0:Math_pow
1:abort
2:enlargeMemory
3:getTotalMemory
4:abortOnCannotGrowMemory
5:invoke_dii
6:invoke_diii
7:invoke_ffffi
8:invoke_fii
9:invoke_fiii
10:invoke_i
11:invoke_ii
12:invoke_iii
13:invoke_iiii
14:invoke_iiiidii
15:invoke_iiiifii
16:invoke_iiiii
17:invoke_iiiiii
18:invoke_iiiiiii
19:invoke_iiiiiiii
20:invoke_iiiiiiiii
21:invoke_iiiiiiiiii
22:invoke_iiiiiiiiiii
23:invoke_v
24:invoke_vi
25:invoke_vidi
26:invoke_vifi
27:invoke_vii
28:invoke_viidi
29:invoke_viiff
30:invoke_viiffi
31:invoke_viifi
32:invoke_viii
33:invoke_viiii
34:invoke_viiiii
35:invoke_viiiiii
36:invoke_viiiiiii
37:invoke_viiiiiiii
38:invoke_viiiiiiiii
39:invoke_viiiiiiiiii
40:invoke_viiiiiiiiiiii
41:_IsMobile
42:_JS_Cursor_SetImage
43:_JS_Cursor_SetShow
44:_JS_Eval_ClearInterval
45:_JS_Eval_SetInterval
46:_JS_FileSystem_Initialize
47:_JS_FileSystem_Sync
48:_JS_Log_Dump
49:_JS_Log_StackTrace
50:_JS_Sound_Create_Channel
51:_JS_Sound_GetLength
52:_JS_Sound_GetLoadState
53:_JS_Sound_Init
54:_JS_Sound_Load
55:_JS_Sound_Load_PCM
56:_JS_Sound_Play
57:_JS_Sound_ReleaseInstance
58:_JS_Sound_ResumeIfNeeded
59:_JS_Sound_Set3D
60:_JS_Sound_SetListenerOrientation
61:_JS_Sound_SetListenerPosition
62:_JS_Sound_SetLoop
63:_JS_Sound_SetLoopPoints
64:_JS_Sound_SetPitch
65:_JS_Sound_SetPosition
66:_JS_Sound_SetVolume
67:_JS_Sound_Stop
68:_JS_SystemInfo_GetCanvasClientSize
69:_JS_SystemInfo_GetDocumentURL
70:_JS_SystemInfo_GetGPUInfo
71:_JS_SystemInfo_GetMemory
72:_JS_SystemInfo_GetOS
73:_JS_SystemInfo_GetPreferredDevicePixelRatio
74:_JS_SystemInfo_GetScreenSize
75:_JS_SystemInfo_HasCursorLock
76:_JS_SystemInfo_HasFullscreen
77:_JS_SystemInfo_HasWebGL
78:___buildEnvironment
79:___cxa_allocate_exception
80:___cxa_begin_catch
81:___cxa_end_catch
82:___cxa_find_matching_catch_2
83:___cxa_find_matching_catch_3
84:___cxa_find_matching_catch_4
85:___cxa_free_exception
86:___cxa_pure_virtual
87:___cxa_rethrow
88:___cxa_throw
89:___lock
90:___map_file
91:___resumeException
92:___setErrNo
93:___syscall10
94:___syscall102
95:___syscall122
96:___syscall140
97:___syscall142
98:___syscall145
99:___syscall146
100:___syscall15
101:___syscall168
102:___syscall183
103:___syscall192
104:___syscall193
105:___syscall195
106:___syscall196
107:___syscall197
108:___syscall199
109:___syscall220
110:___syscall221
111:___syscall268
112:___syscall3
113:___syscall33
114:___syscall38
115:___syscall39
116:___syscall4
117:___syscall40
118:___syscall42
119:___syscall5
120:___syscall54
121:___syscall6
122:___syscall63
123:___syscall77
124:___syscall85
125:___syscall91
126:___unlock
127:_abort
128:_atexit
129:_clock
130:_clock_getres
131:_clock_gettime
132:_difftime
133:_dlclose
134:_dlopen
135:_dlsym
136:_emscripten_asm_const_i
137:_emscripten_asm_const_ii
138:_emscripten_asm_const_sync_on_main_thread_i
139:_emscripten_cancel_main_loop
140:_emscripten_exit_fullscreen
141:_emscripten_exit_pointerlock
142:_emscripten_get_fullscreen_status
143:_emscripten_get_gamepad_status
144:_emscripten_get_main_loop_timing
145:_emscripten_get_now
146:_emscripten_get_num_gamepads
147:_emscripten_has_threading_support
148:_emscripten_html5_remove_all_event_listeners
149:_emscripten_is_webgl_context_lost
150:_emscripten_log
151:_emscripten_memcpy_big
152:_emscripten_num_logical_cores
153:_emscripten_request_fullscreen
154:_emscripten_request_pointerlock
155:_emscripten_set_blur_callback_on_thread
156:_emscripten_set_canvas_element_size
157:_emscripten_set_dblclick_callback_on_thread
158:_emscripten_set_devicemotion_callback_on_thread
159:_emscripten_set_deviceorientation_callback_on_thread
160:_emscripten_set_focus_callback_on_thread
161:_emscripten_set_fullscreenchange_callback_on_thread
162:_emscripten_set_gamepadconnected_callback_on_thread
163:_emscripten_set_gamepaddisconnected_callback_on_thread
164:_emscripten_set_keydown_callback_on_thread
165:_emscripten_set_keypress_callback_on_thread
166:_emscripten_set_keyup_callback_on_thread
167:_emscripten_set_main_loop
168:_emscripten_set_main_loop_timing
169:_emscripten_set_mousedown_callback_on_thread
170:_emscripten_set_mousemove_callback_on_thread
171:_emscripten_set_mouseup_callback_on_thread
172:_emscripten_set_touchcancel_callback_on_thread
173:_emscripten_set_touchend_callback_on_thread
174:_emscripten_set_touchmove_callback_on_thread
175:_emscripten_set_touchstart_callback_on_thread
176:_emscripten_set_wheel_callback_on_thread
177:_emscripten_webgl_create_context
178:_emscripten_webgl_destroy_context
179:_emscripten_webgl_enable_extension
180:_emscripten_webgl_get_current_context
181:_emscripten_webgl_init_context_attributes
182:_emscripten_webgl_make_context_current
183:_exit
184:_flock
185:_getaddrinfo
186:_getenv
187:_getnameinfo
188:_getpagesize
189:_getpwuid
190:_gettimeofday
191:_glActiveTexture
192:_glAttachShader
193:_glBeginQuery
194:_glBeginTransformFeedback
195:_glBindAttribLocation
196:_glBindBuffer
197:_glBindBufferBase
198:_glBindBufferRange
199:_glBindFramebuffer
200:_glBindRenderbuffer
201:_glBindSampler
202:_glBindTexture
203:_glBindTransformFeedback
204:_glBindVertexArray
205:_glBlendEquation
206:_glBlendEquationSeparate
207:_glBlendFuncSeparate
208:_glBlitFramebuffer
209:_glBufferData
210:_glBufferSubData
211:_glCheckFramebufferStatus
212:_glClear
213:_glClearColor
214:_glClearDepthf
215:_glClearStencil
216:_glColorMask
217:_glCompileShader
218:_glCompressedTexImage2D
219:_glCompressedTexSubImage2D
220:_glCompressedTexSubImage3D
221:_glCopyBufferSubData
222:_glCopyTexImage2D
223:_glCopyTexSubImage2D
224:_glCreateProgram
225:_glCreateShader
226:_glCullFace
227:_glDeleteBuffers
228:_glDeleteFramebuffers
229:_glDeleteProgram
230:_glDeleteQueries
231:_glDeleteRenderbuffers
232:_glDeleteSamplers
233:_glDeleteShader
234:_glDeleteSync
235:_glDeleteTextures
236:_glDeleteTransformFeedbacks
237:_glDeleteVertexArrays
238:_glDepthFunc
239:_glDepthMask
240:_glDetachShader
241:_glDisable
242:_glDisableVertexAttribArray
243:_glDrawArrays
244:_glDrawArraysInstanced
245:_glDrawBuffers
246:_glDrawElements
247:_glDrawElementsInstanced
248:_glEnable
249:_glEnableVertexAttribArray
250:_glEndQuery
251:_glEndTransformFeedback
252:_glFenceSync
253:_glFinish
254:_glFlush
255:_glFlushMappedBufferRange
256:_glFramebufferRenderbuffer
257:_glFramebufferTexture2D
258:_glFramebufferTextureLayer
259:_glFrontFace
260:_glGenBuffers
261:_glGenFramebuffers
262:_glGenQueries
263:_glGenRenderbuffers
264:_glGenSamplers
265:_glGenTextures
266:_glGenTransformFeedbacks
267:_glGenVertexArrays
268:_glGenerateMipmap
269:_glGetActiveAttrib
270:_glGetActiveUniform
271:_glGetActiveUniformBlockName
272:_glGetActiveUniformBlockiv
273:_glGetActiveUniformsiv
274:_glGetAttribLocation
275:_glGetError
276:_glGetFramebufferAttachmentParameteriv
277:_glGetIntegeri_v
278:_glGetIntegerv
279:_glGetInternalformativ
280:_glGetProgramBinary
281:_glGetProgramInfoLog
282:_glGetProgramiv
283:_glGetRenderbufferParameteriv
284:_glGetShaderInfoLog
285:_glGetShaderPrecisionFormat
286:_glGetShaderSource
287:_glGetShaderiv
288:_glGetString
289:_glGetStringi
290:_glGetTexParameteriv
291:_glGetUniformBlockIndex
292:_glGetUniformIndices
293:_glGetUniformLocation
294:_glGetUniformiv
295:_glGetVertexAttribiv
296:_glInvalidateFramebuffer
297:_glIsEnabled
298:_glIsVertexArray
299:_glLinkProgram
300:_glMapBufferRange
301:_glPixelStorei
302:_glPolygonOffset
303:_glProgramBinary
304:_glProgramParameteri
305:_glReadBuffer
306:_glReadPixels
307:_glRenderbufferStorage
308:_glRenderbufferStorageMultisample
309:_glSamplerParameteri
310:_glScissor
311:_glShaderSource
312:_glStencilFuncSeparate
313:_glStencilMask
314:_glStencilOpSeparate
315:_glTexImage2D
316:_glTexImage3D
317:_glTexParameterf
318:_glTexParameteri
319:_glTexParameteriv
320:_glTexStorage2D
321:_glTexStorage3D
322:_glTexSubImage2D
323:_glTexSubImage3D
324:_glTransformFeedbackVaryings
325:_glUniform1fv
326:_glUniform1i
327:_glUniform1iv
328:_glUniform1uiv
329:_glUniform2fv
330:_glUniform2iv
331:_glUniform2uiv
332:_glUniform3fv
333:_glUniform3iv
334:_glUniform3uiv
335:_glUniform4fv
336:_glUniform4iv
337:_glUniform4uiv
338:_glUniformBlockBinding
339:_glUniformMatrix3fv
340:_glUniformMatrix4fv
341:_glUnmapBuffer
342:_glUseProgram
343:_glValidateProgram
344:_glVertexAttrib4f
345:_glVertexAttrib4fv
346:_glVertexAttribIPointer
347:_glVertexAttribPointer
348:_glViewport
349:_gmtime
350:_llvm_eh_typeid_for
351:_llvm_exp2_f32
352:_llvm_log10_f32
353:_llvm_log2_f32
354:_llvm_trap
355:_llvm_trunc_f32
356:_localtime
357:_mktime
358:_nanosleep
359:_pthread_getspecific
360:_pthread_key_create
361:_pthread_once
362:_pthread_setspecific
363:_setenv
364:_sigaction
365:_sigemptyset
366:_strftime
367:_sysconf
368:_time
369:_unsetenv
370:_utime
371:f64-rem
372:legalimport$invoke_iiiiij
373:legalimport$invoke_iiiijii
374:legalimport$invoke_iiiijjii
375:legalimport$invoke_iiijiii
376:legalimport$invoke_iij
377:legalimport$invoke_iiji
378:legalimport$invoke_j
379:legalimport$invoke_jdi
380:legalimport$invoke_ji
381:legalimport$invoke_jii
382:legalimport$invoke_jiii
383:legalimport$invoke_jiiii
384:legalimport$invoke_jiiiii
385:legalimport$invoke_jiiiiiiiiii
386:legalimport$invoke_jiiji
387:legalimport$invoke_jiji
388:legalimport$invoke_jijiii
389:legalimport$invoke_jijj
390:legalimport$invoke_viiiji
391:legalimport$invoke_viij
392:legalimport$invoke_viiji
393:legalimport$invoke_viji
394:legalimport$invoke_vijjji
395:legalimport$___atomic_compare_exchange_8
396:legalimport$___atomic_fetch_add_8
397:legalimport$_glClientWaitSync
398:__growWasmMemory
399:stackAlloc
400:stackSave
401:stackRestore
402:establishStackSpace
403:setThrew
404:setTempRet0
405:getTempRet0
406:__GLOBAL__sub_I_AIScriptingClasses_cpp
407:___cxx_global_var_init
408:__ZN9Scripting11UnityEngine2AIL48__ManagedRegistrationHelperFunction_NavMeshProxyEPv
409:__ZN9Scripting11UnityEngine2AIL59__ManagedRegistrationHelperFunction_NavMeshBuildSourceProxyEPv
410:__ZN9Scripting11UnityEngine2AIL61__ManagedRegistrationHelperFunction_NavMeshTriangulationProxyEPv
411:__ZN9Scripting11UnityEngine2AI25NavMeshTriangulationProxy9InitProxyEv
412:__ZN9Scripting11UnityEngine2AI25NavMeshTriangulationProxy12CleanupProxyEv
413:__ZN9Scripting11UnityEngine2AI23NavMeshBuildSourceProxy9InitProxyEv
414:__ZN9Scripting11UnityEngine2AI23NavMeshBuildSourceProxy12CleanupProxyEv
415:__ZN9Scripting11UnityEngine2AI12NavMeshProxy9InitProxyEv
416:__ZN9Scripting11UnityEngine2AI12NavMeshProxy12CleanupProxyEv
417:__ZN6Object21AwakeFromLoadThreadedEv
418:__ZN6Object17IsAScriptedObjectEv
419:__ZNK16LevelGameManager7GetNameEv
420:__ZN6Object7SetNameEPKc
421:__ZN6Object12SetHideFlagsENS_9HideFlagsE
422:__ZNK11GameManager19ShouldWriteForBuildEv
423:__Z12TransferPPtrI14SafeBinaryReadEvRiRT_
424:__Z12TransferPPtrI18StreamedBinaryReadEvRiRT_
425:__Z12TransferPPtrI19StreamedBinaryWriteEvRiRT_
426:__ZNK9Behaviour10GetEnabledEv
427:__ZNSt3__213__tree_removeIPNS_16__tree_node_baseIPvEEEEvT_S5_
428:__ZN13dynamic_arrayIyLm0EE21resize_buffer_nocheckEm12ResizePolicy
429:__ZN13dynamic_arrayIiLm0EE21resize_buffer_nocheckEm12ResizePolicy
430:__ZN13dynamic_arrayIiLm0EED2Ev
431:__Z17CalculateGlobalRS23TransformAccessReadOnly
432:__Z23CalculateGlobalPosition23TransformAccessReadOnly
433:__ZN15EditorExtensionD2Ev
434:__ZN15EditorExtensionD0Ev
435:__ZNK15EditorExtension22GetTypeVirtualInternalEv
436:__ZNK6Object7GetNameEv
437:__ZN13dynamic_arrayIiLm0EE4growEv
438:__ZN4core20StringStorageDefaultIcE10deallocateEv
439:__ZN8Vector3f8TransferI14SafeBinaryReadEEvRT_
440:__ZNK4PPtrI9TransformEcvPS0_Ev
441:__ZNK4PPtrI9TransformEptEv
442:__ZNK11NamedObject7GetNameEv
443:__ZN4AABB8TransferI14SafeBinaryReadEEvRT_
444:__ZN11Quaternionf8TransferI14SafeBinaryReadEEvRT_
445:__ZN14SafeBinaryRead21TransferSTLStyleArrayI13dynamic_arrayI8Vector3fLm0EEEEvRT_17TransferMetaFlags
446:__ZN14SafeBinaryRead21TransferSTLStyleArrayI13dynamic_arrayIiLm0EEEEvRT_17TransferMetaFlags
447:__ZN13dynamic_arrayI8Vector3fLm0EE21resize_buffer_nocheckEm12ResizePolicy
448:__ZN14SafeBinaryRead21TransferSTLStyleArrayI13dynamic_arrayIhLm0EEEEvRT_17TransferMetaFlags
449:__ZN7Hash1288TransferI14SafeBinaryReadEEvRT_
450:__ZN13dynamic_arrayIhLm0EE21resize_buffer_nocheckEm12ResizePolicy
451:__ZN7Hash1288TransferI24GenerateTypeTreeTransferEEvRT_
452:__ZN11Quaternionf8TransferI24GenerateTypeTreeTransferEEvRT_
453:__ZN18StreamedBinaryRead8TransferI13dynamic_arrayIhLm0EEEEvRT_PKc17TransferMetaFlags
454:__ZN7Hash1288TransferI18StreamedBinaryReadEEvRT_
455:__ZN4AABB8TransferI18StreamedBinaryReadEEvRT_
456:__ZN18StreamedBinaryRead8TransferI11QuaternionfEEvRT_PKc17TransferMetaFlags
457:__ZN18StreamedBinaryRead8TransferI13dynamic_arrayIiLm0EEEEvRT_PKc17TransferMetaFlags
458:__ZN4AABB8TransferI19StreamedBinaryWriteEEvRT_
459:__ZN7Hash1288TransferI19StreamedBinaryWriteEEvRT_
460:__ZN4core20StringStorageDefaultIcE6assignERKS1_
461:__ZN4core20StringStorageDefaultIcE8allocateEm
462:__ZN14SafeBinaryRead21TransferSTLStyleArrayI13dynamic_arrayIN4core12basic_stringIcNS2_20StringStorageDefaultIcEEEELm0EEEEvRT_17TransferMetaFlags
463:__ZN13dynamic_arrayIN4core12basic_stringIcNS0_20StringStorageDefaultIcEEEELm0EE21resize_buffer_nocheckEm12ResizePolicy
464:__ZN14SafeBinaryRead21TransferSTLStyleArrayIN4core12basic_stringIcNS1_20StringStorageDefaultIcEEEEEEvRT_17TransferMetaFlags
465:__ZN4core20StringStorageDefaultIcE10reallocateEm
466:__ZN18StreamedBinaryRead21TransferSTLStyleArrayI13dynamic_arrayIN4core12basic_stringIcNS2_20StringStorageDefaultIcEEEELm0EEEEvRT_17TransferMetaFlags
467:__ZN18StreamedBinaryRead21TransferSTLStyleArrayIN4core12basic_stringIcNS1_20StringStorageDefaultIcEEEEEEvRT_17TransferMetaFlags
468:__ZN19StreamedBinaryWrite21TransferSTLStyleArrayIN4core12basic_stringIcNS1_20StringStorageDefaultIcEEEEEEvRT_17TransferMetaFlags
469:__ZN13dynamic_arrayIN4core12basic_stringIcNS0_20StringStorageDefaultIcEEEELm0EED2Ev
470:__ZNK4PPtrI6ObjectEcvPS0_Ev
471:__ZN13dynamic_arrayItLm0EE21resize_buffer_nocheckEm12ResizePolicy
472:__ZN13dynamic_arrayI8Vector3fLm0EE4growEv
473:__ZN13dynamic_arrayItLm0EE4growEv
474:__ZN13dynamic_arrayI8Vector2fLm0EE21resize_buffer_nocheckEm12ResizePolicy
475:__ZNSt3__227__tree_balance_after_insertIPNS_16__tree_node_baseIPvEEEEvT_S5_
476:__Z18TransformDirection23TransformAccessReadOnlyRKN4math7_float3E
477:__Z24InverseTransformRotationRK23TransformAccessReadOnlyRKN4math7_float4E
478:__Z9SetLocalR15TransformAccessRKN4math7_float4Ey
479:__Z24InverseTransformPosition23TransformAccessReadOnlyRKN4math7_float3E
480:__Z25InverseTransformDirection23TransformAccessReadOnlyRKN4math7_float3Eb
481:__ZN13dynamic_arrayI8Vector2fLm0EEC2Em10MemLabelId
482:__ZN13dynamic_arrayIN4core12basic_stringIcNS0_20StringStorageDefaultIcEEEELm0EE4growEv
483:__ZN13dynamic_arrayI8JobFenceLm0EE4growEv
484:__ZN11Marshalling39CreateNullExceptionForUnityEngineObjectE18ScriptingObjectPtr
485:__ZN11Marshalling16StringMarshallercvRKN4core12basic_stringIcNS1_20StringStorageDefaultIcEEEEEv
486:__GLOBAL__sub_I_AccessibilityScriptingClasses_cpp
487:__ZN9Scripting11UnityEngine13AccessibilityL54__ManagedRegistrationHelperFunction_VisionUtilityProxyEPv
488:__ZN9Scripting11UnityEngine13Accessibility18VisionUtilityProxy9InitProxyEv
489:__ZN9Scripting11UnityEngine13Accessibility18VisionUtilityProxy12CleanupProxyEv
490:__GLOBAL__sub_I_AndroidJNIScriptingClasses_cpp
491:__ZN9Scripting11UnityEngineL58__ManagedRegistrationHelperFunction__AndroidJNIHelperProxyEPv
492:__ZN9Scripting11UnityEngineL57__ManagedRegistrationHelperFunction_AndroidJNIHelperProxyEPv
493:__ZN9Scripting11UnityEngine21AndroidJNIHelperProxy9InitProxyEv
494:__ZN9Scripting11UnityEngine21AndroidJNIHelperProxy12CleanupProxyEv
495:__ZN9Scripting11UnityEngine22_AndroidJNIHelperProxy9InitProxyEv
496:__ZN9Scripting11UnityEngine22_AndroidJNIHelperProxy12CleanupProxyEv
497:__GLOBAL__sub_I_AnimationScriptingClasses_cpp
498:__GLOBAL__sub_I_Modules_Animation_0_cpp
499:__GLOBAL__sub_I_Modules_Animation_1_cpp
500:__GLOBAL__sub_I_Modules_Animation_3_cpp
501:__GLOBAL__sub_I_Modules_Animation_6_cpp
502:__GLOBAL__sub_I_Modules_Animation_Constraints_0_cpp
503:__GLOBAL__sub_I_AnimationClip_cpp
504:___cxx_global_var_init_371
505:__ZN13RuntimeStaticI17ConstraintManagerLb0EE16StaticInitializeEPv
506:__ZN13RuntimeStaticI17ConstraintManagerLb0EE13StaticDestroyEPv
507:__ZN24StaticInitializeInternal13ConstructTypeI17ConstraintManagerLb0EEEPvS2_10MemLabelId
508:__ZZN17ConstraintManager15InitializeClassEvEN47PreLateUpdateConstraintManagerUpdateRegistrator7ForwardEv
509:__ZN17ConstraintManagerD2Ev
510:__ZN17ConstraintManagerD0Ev
511:__ZN17ConstraintManager6UpdateEv
512:__ZN4core8hash_setINS_4pairIKPK10GameObjectiLb0EEENS_9hash_pairINS_4hashIS4_EES5_iEENS_10equal_pairINSt3__28equal_toIS4_EES5_iEEE4growEi
513:__ZN4core8hash_mapIPK10GameObjectiNS_4hashIS3_EENSt3__28equal_toIS3_EEEixERKS3_
514:__ZN4core8hash_setIPN5Unity9ComponentENS_4hashIS3_EENSt3__28equal_toIS3_EEE4growEi
515:__ZL23GetComponentsInChildrenRK10GameObjectPFbRKN5Unity9ComponentEERN4core8hash_setIPS3_NS8_4hashISA_EENSt3__28equal_toISA_EEEE
516:__ZNSt3__26__sortIR23DependencySortPredicatePN4core4pairIiP9BehaviourLb0EEEEEvT0_S9_T_
517:__ZL32GetComponentsInConstraintSourcesRK11IConstraintPFbRKN5Unity9ComponentEERN4core8hash_setIPS3_NS8_4hashISA_EENSt3__28equal_toISA_EEEE
518:__ZN13dynamic_arrayIN4core4pairIiS_IP9BehaviourLm0EELb1EEELm0EED2Ev
519:__ZN13dynamic_arrayIN4math4trsXELm0EE21resize_buffer_nocheckEm12ResizePolicy
520:__ZN13ConstraintJob18ComputeConstraintsEPNS_17ConstraintJobDataEj
521:__ZN13dynamic_arrayIN13ConstraintJob23ConstraintComponentDataELm0EE4growEv
522:__ZN13ConstraintJob23ConstraintComponentDataC2ERKS0_
523:__ZN13dynamic_arrayIN13ConstraintJob23ConstraintComponentDataELm0EED2Ev
524:__Z11SetLocalTRS15TransformAccessRKN4math7_float3ERKNS0_7_float4ES3_y
525:__ZN13ConstraintJob23ConstraintComponentDataC2ERK16LookAtConstraint
526:__ZL21InitConstraintSourcesRK13dynamic_arrayI16ConstraintSourceLm0EERS_I23TransformAccessReadOnlyLm0EERS_IfLm0EE
527:__ZN13ConstraintJob23ConstraintComponentDataC2ERK16ParentConstraint
528:__ZN13ConstraintJob23ConstraintComponentDataC2ERK13AimConstraint
529:__ZN13ConstraintJob23ConstraintComponentDataC2ERK15ScaleConstraint
530:__ZN13ConstraintJob23ConstraintComponentDataC2ERK18RotationConstraint
531:__ZN13ConstraintJob23ConstraintComponentDataC2ERK18PositionConstraint
532:__Z21InverseTransformScale23TransformAccessReadOnlyRKN4math7_float3E
533:__ZN13dynamic_arrayIN4math7affineXELm0EEC2Em10MemLabelId
534:__Z34CalculateGlobalPositionAndRotation23TransformAccessReadOnlyRKN4math7_float3ERKNS0_7_float4E
535:__ZL17quatArcRotateSafeRKN4math7_float3ES2_
536:__ZL22GetComponentsInParentsRK10GameObjectPFbRKN5Unity9ComponentEERN4core8hash_setIPS3_NS8_4hashISA_EENSt3__28equal_toISA_EEEE
537:__ZN4core8hash_setIPN5Unity9ComponentENS_4hashIS3_EENSt3__28equal_toIS3_EEE6insertIRS3_EENS_4pairINS9_13node_iteratorIS3_EEbLb0EEEOT_
538:__ZNSt3__27__sort4IR23DependencySortPredicatePN4core4pairIiP9BehaviourLb0EEEEEjT0_S9_S9_S9_T_
539:__ZNSt3__227__insertion_sort_incompleteIR23DependencySortPredicatePN4core4pairIiP9BehaviourLb0EEEEEbT0_S9_T_
540:__ZN13RuntimeStaticI15AnimationBinderLb0EE16StaticInitializeEPv
541:__ZN13RuntimeStaticI15AnimationBinderLb0EE13StaticDestroyEPv
542:__ZN13RuntimeStaticI15AnimationBinderLb0EE7DestroyEv
543:__ZNSt3__26__treeINS_12__value_typeIPKN5Unity4TypeEPK8TypeTreeEENS_19__map_value_compareIS5_S9_NS_4lessIS5_EELb1EEENS_9allocatorIS9_EEE7destroyEPNS_11__tree_nodeIS9_PvEE
544:__ZN24StaticInitializeInternal13ConstructTypeI15AnimationBinderLb0EEEPvS2_10MemLabelId
545:__ZN11UnityEngine9Animation38InitializeGenericAnimationBindingCacheEPv
546:__ZN11UnityEngine9Animation35CleanupGenericAnimationBindingCacheEPv
547:__ZN11UnityEngine9Animation28GenericAnimationBindingCacheD2Ev
548:__ZN11UnityEngine9Animation28GenericAnimationBindingCache15DidReloadDomainE19AssemblyLoadFailure
549:__ZN11UnityEngine9Animation28GenericAnimationBindingCacheC2Ev
550:__ZN9Scripting11UnityEngineL55__ManagedRegistrationHelperFunction_AnimationEventProxyEPv
551:__ZN9Scripting11UnityEngine10AnimationsL54__ManagedRegistrationHelperFunction_AimConstraintProxyEPv
552:__ZN9Scripting11UnityEngine10AnimationsL62__ManagedRegistrationHelperFunction_AnimationClipPlayableProxyEPv
553:__ZN9Scripting11UnityEngine10AnimationsL61__ManagedRegistrationHelperFunction_AnimationHumanStreamProxyEPv
554:__ZN9Scripting11UnityEngine10AnimationsL68__ManagedRegistrationHelperFunction_AnimationLayerMixerPlayableProxyEPv
555:__ZN9Scripting11UnityEngine10AnimationsL63__ManagedRegistrationHelperFunction_AnimationMixerPlayableProxyEPv
556:__ZN9Scripting11UnityEngine10AnimationsL72__ManagedRegistrationHelperFunction_AnimationMotionXToDeltaPlayableProxyEPv
557:__ZN9Scripting11UnityEngine10AnimationsL64__ManagedRegistrationHelperFunction_AnimationOffsetPlayableProxyEPv
558:__ZN9Scripting11UnityEngine10AnimationsL64__ManagedRegistrationHelperFunction_AnimationPlayableOutputProxyEPv
559:__ZN9Scripting11UnityEngine10AnimationsL62__ManagedRegistrationHelperFunction_AnimationPosePlayableProxyEPv
560:__ZN9Scripting11UnityEngine10AnimationsL69__ManagedRegistrationHelperFunction_AnimationRemoveScalePlayableProxyEPv
561:__ZN9Scripting11UnityEngine10AnimationsL64__ManagedRegistrationHelperFunction_AnimationScriptPlayableProxyEPv
562:__ZN9Scripting11UnityEngine10AnimationsL56__ManagedRegistrationHelperFunction_AnimationStreamProxyEPv
563:__ZN9Scripting11UnityEngine10AnimationsL67__ManagedRegistrationHelperFunction_AnimatorControllerPlayableProxyEPv
564:__ZN9Scripting11UnityEngine10AnimationsL57__ManagedRegistrationHelperFunction_ConstraintSourceProxyEPv
565:__ZN9Scripting11UnityEngine10AnimationsL57__ManagedRegistrationHelperFunction_LookAtConstraintProxyEPv
566:__ZN9Scripting11UnityEngine10AnimationsL60__ManagedRegistrationHelperFunction_NotKeyableAttributeProxyEPv
567:__ZN9Scripting11UnityEngine10AnimationsL57__ManagedRegistrationHelperFunction_ParentConstraintProxyEPv
568:__ZN9Scripting11UnityEngine10AnimationsL59__ManagedRegistrationHelperFunction_PositionConstraintProxyEPv
569:__ZN9Scripting11UnityEngine10AnimationsL59__ManagedRegistrationHelperFunction_RotationConstraintProxyEPv
570:__ZN9Scripting11UnityEngine10AnimationsL56__ManagedRegistrationHelperFunction_ScaleConstraintProxyEPv
571:__ZN9Scripting11UnityEngineL55__ManagedRegistrationHelperFunction_AnimationStateProxyEPv
572:__ZN9Scripting11UnityEngineL49__ManagedRegistrationHelperFunction_AnimatorProxyEPv
573:__ZN9Scripting11UnityEngineL57__ManagedRegistrationHelperFunction_AnimatorClipInfoProxyEPv
574:__ZN9Scripting11UnityEngineL68__ManagedRegistrationHelperFunction_AnimatorControllerParameterProxyEPv
575:__ZN9Scripting11UnityEngineL66__ManagedRegistrationHelperFunction_RuntimeAnimatorControllerProxyEPv
576:__ZN9Scripting11UnityEngineL67__ManagedRegistrationHelperFunction_AnimatorOverrideControllerProxyEPv
577:__ZN9Scripting11UnityEngineL58__ManagedRegistrationHelperFunction_AnimatorStateInfoProxyEPv
578:__ZN9Scripting11UnityEngineL63__ManagedRegistrationHelperFunction_AnimatorTransitionInfoProxyEPv
579:__ZN9Scripting11UnityEngineL47__ManagedRegistrationHelperFunction_AvatarProxyEPv
580:__ZN9Scripting11UnityEngineL51__ManagedRegistrationHelperFunction_AvatarMaskProxyEPv
581:__ZN9Scripting11UnityEngineL50__ManagedRegistrationHelperFunction_HumanBoneProxyEPv
582:__ZN9Scripting11UnityEngineL72__ManagedRegistrationHelperFunction_SharedBetweenAnimatorsAttributeProxyEPv
583:__ZN9Scripting11UnityEngineL53__ManagedRegistrationHelperFunction_SkeletonBoneProxyEPv
584:__ZN9Scripting11UnityEngineL62__ManagedRegistrationHelperFunction_StateMachineBehaviourProxyEPv
585:__ZN9Scripting11UnityEngine26StateMachineBehaviourProxy9InitProxyEv
586:__ZN9Scripting11UnityEngine26StateMachineBehaviourProxy12CleanupProxyEv
587:__ZN9Scripting11UnityEngine17SkeletonBoneProxy9InitProxyEv
588:__ZN9Scripting11UnityEngine17SkeletonBoneProxy12CleanupProxyEv
589:__ZN9Scripting11UnityEngine36SharedBetweenAnimatorsAttributeProxy9InitProxyEv
590:__ZN9Scripting11UnityEngine36SharedBetweenAnimatorsAttributeProxy12CleanupProxyEv
591:__ZN9Scripting11UnityEngine14HumanBoneProxy9InitProxyEv
592:__ZN9Scripting11UnityEngine14HumanBoneProxy12CleanupProxyEv
593:__ZN9Scripting11UnityEngine15AvatarMaskProxy9InitProxyEv
594:__ZN9Scripting11UnityEngine15AvatarMaskProxy12CleanupProxyEv
595:__ZN9Scripting11UnityEngine11AvatarProxy9InitProxyEv
596:__ZN9Scripting11UnityEngine11AvatarProxy12CleanupProxyEv
597:__ZN9Scripting11UnityEngine27AnimatorTransitionInfoProxy9InitProxyEv
598:__ZN9Scripting11UnityEngine27AnimatorTransitionInfoProxy12CleanupProxyEv
599:__ZN9Scripting11UnityEngine22AnimatorStateInfoProxy9InitProxyEv
600:__ZN9Scripting11UnityEngine22AnimatorStateInfoProxy12CleanupProxyEv
601:__ZN9Scripting11UnityEngine31AnimatorOverrideControllerProxy9InitProxyEv
602:__ZN9Scripting11UnityEngine31AnimatorOverrideControllerProxy12CleanupProxyEv
603:__ZN9Scripting11UnityEngine30RuntimeAnimatorControllerProxy9InitProxyEv
604:__ZN9Scripting11UnityEngine30RuntimeAnimatorControllerProxy12CleanupProxyEv
605:__ZN9Scripting11UnityEngine32AnimatorControllerParameterProxy9InitProxyEv
606:__ZN9Scripting11UnityEngine32AnimatorControllerParameterProxy12CleanupProxyEv
607:__ZN9Scripting11UnityEngine21AnimatorClipInfoProxy9InitProxyEv
608:__ZN9Scripting11UnityEngine21AnimatorClipInfoProxy12CleanupProxyEv
609:__ZN9Scripting11UnityEngine13AnimatorProxy9InitProxyEv
610:__ZN9Scripting11UnityEngine13AnimatorProxy12CleanupProxyEv
611:__ZN9Scripting11UnityEngine19AnimationStateProxy9InitProxyEv
612:__ZN9Scripting11UnityEngine19AnimationStateProxy12CleanupProxyEv
613:__ZN9Scripting11UnityEngine10Animations20ScaleConstraintProxy9InitProxyEv
614:__ZN9Scripting11UnityEngine10Animations20ScaleConstraintProxy12CleanupProxyEv
615:__ZN9Scripting11UnityEngine10Animations23RotationConstraintProxy9InitProxyEv
616:__ZN9Scripting11UnityEngine10Animations23RotationConstraintProxy12CleanupProxyEv
617:__ZN9Scripting11UnityEngine10Animations23PositionConstraintProxy9InitProxyEv
618:__ZN9Scripting11UnityEngine10Animations23PositionConstraintProxy12CleanupProxyEv
619:__ZN9Scripting11UnityEngine10Animations21ParentConstraintProxy9InitProxyEv
620:__ZN9Scripting11UnityEngine10Animations21ParentConstraintProxy12CleanupProxyEv
621:__ZN9Scripting11UnityEngine10Animations24NotKeyableAttributeProxy9InitProxyEv
622:__ZN9Scripting11UnityEngine10Animations24NotKeyableAttributeProxy12CleanupProxyEv
623:__ZN9Scripting11UnityEngine10Animations21LookAtConstraintProxy9InitProxyEv
624:__ZN9Scripting11UnityEngine10Animations21LookAtConstraintProxy12CleanupProxyEv
625:__ZN9Scripting11UnityEngine10Animations21ConstraintSourceProxy9InitProxyEv
626:__ZN9Scripting11UnityEngine10Animations21ConstraintSourceProxy12CleanupProxyEv
627:__ZN9Scripting11UnityEngine10Animations31AnimatorControllerPlayableProxy9InitProxyEv
628:__ZN9Scripting11UnityEngine10Animations31AnimatorControllerPlayableProxy12CleanupProxyEv
629:__ZN9Scripting11UnityEngine10Animations20AnimationStreamProxy9InitProxyEv
630:__ZN9Scripting11UnityEngine10Animations20AnimationStreamProxy12CleanupProxyEv
631:__ZN9Scripting11UnityEngine10Animations28AnimationScriptPlayableProxy9InitProxyEv
632:__ZN9Scripting11UnityEngine10Animations28AnimationScriptPlayableProxy12CleanupProxyEv
633:__ZN9Scripting11UnityEngine10Animations33AnimationRemoveScalePlayableProxy9InitProxyEv
634:__ZN9Scripting11UnityEngine10Animations33AnimationRemoveScalePlayableProxy12CleanupProxyEv
635:__ZN9Scripting11UnityEngine10Animations26AnimationPosePlayableProxy9InitProxyEv
636:__ZN9Scripting11UnityEngine10Animations26AnimationPosePlayableProxy12CleanupProxyEv
637:__ZN9Scripting11UnityEngine10Animations28AnimationPlayableOutputProxy9InitProxyEv
638:__ZN9Scripting11UnityEngine10Animations28AnimationPlayableOutputProxy12CleanupProxyEv
639:__ZN9Scripting11UnityEngine10Animations28AnimationOffsetPlayableProxy9InitProxyEv
640:__ZN9Scripting11UnityEngine10Animations28AnimationOffsetPlayableProxy12CleanupProxyEv
641:__ZN9Scripting11UnityEngine10Animations36AnimationMotionXToDeltaPlayableProxy9InitProxyEv
642:__ZN9Scripting11UnityEngine10Animations36AnimationMotionXToDeltaPlayableProxy12CleanupProxyEv
643:__ZN9Scripting11UnityEngine10Animations27AnimationMixerPlayableProxy9InitProxyEv
644:__ZN9Scripting11UnityEngine10Animations27AnimationMixerPlayableProxy12CleanupProxyEv
645:__ZN9Scripting11UnityEngine10Animations32AnimationLayerMixerPlayableProxy9InitProxyEv
646:__ZN9Scripting11UnityEngine10Animations32AnimationLayerMixerPlayableProxy12CleanupProxyEv
647:__ZN9Scripting11UnityEngine10Animations25AnimationHumanStreamProxy9InitProxyEv
648:__ZN9Scripting11UnityEngine10Animations25AnimationHumanStreamProxy12CleanupProxyEv
649:__ZN9Scripting11UnityEngine10Animations26AnimationClipPlayableProxy9InitProxyEv
650:__ZN9Scripting11UnityEngine10Animations26AnimationClipPlayableProxy12CleanupProxyEv
651:__ZN9Scripting11UnityEngine10Animations18AimConstraintProxy9InitProxyEv
652:__ZN9Scripting11UnityEngine10Animations18AimConstraintProxy12CleanupProxyEv
653:__ZN9Scripting11UnityEngine19AnimationEventProxy9InitProxyEv
654:__ZN9Scripting11UnityEngine19AnimationEventProxy12CleanupProxyEv
655:__ZN8AnimatorD2Ev
656:__ZN8AnimatorD0Ev
657:__ZN8Animator17MainThreadCleanupEv
658:__ZN8Animator13AwakeFromLoadE17AwakeFromLoadMode
659:__ZN8Animator16CheckConsistencyEv
660:__ZN8Animator5ResetEv
661:__ZNK8Animator22GetTypeVirtualInternalEv
662:__ZN8Animator23VirtualRedirectTransferER19StreamedBinaryWrite
663:__ZN8Animator23VirtualRedirectTransferER18StreamedBinaryRead
664:__ZN8Animator23VirtualRedirectTransferER17RemapPPtrTransfer
665:__ZN8Animator23VirtualRedirectTransferER24GenerateTypeTreeTransfer
666:__ZN8Animator23VirtualRedirectTransferER14SafeBinaryRead
667:__ZN8Animator10DeactivateE19DeactivateOperation
668:__ZN8Animator12AddToManagerEv
669:__ZN8Animator17RemoveFromManagerEv
670:__ZN8Animator15SetPrepareStageEv
671:__ZNK8Animator25GetStateMachineBehavioursEv
672:__ZN8Animator27CreateInternalPlayableGraphEv
673:__ZN8Animator32CreateInternalControllerPlayableEv
674:__ZN26AnimatorControllerPlayable21SetAnimatorControllerEP25RuntimeAnimatorController
675:__ZN26AnimatorControllerPlayable13GenerateGraphEv
676:__ZN17AnimationPlayable23RequestAllocateBindingsEv
677:__ZN17PlayableTraverser10RootByTypeEP8Playable18DirectorPlayerType
678:__ZN26AnimatorControllerPlayable13ClearPlayableEv
679:__ZN7mecanim9animation21CreateControllerInputEPKNS0_18ControllerConstantER20RuntimeBaseAllocator
680:__ZN7mecanim9animation22CreateControllerMemoryEPKNS0_18ControllerConstantER20RuntimeBaseAllocator
681:__ZN7mecanim9animation25CreateControllerWorkspaceEPKNS0_18ControllerConstantER20RuntimeBaseAllocator
682:__ZN17AnimationPlayable23ConnectNoTopologyChangeEPS_S0_ii
683:__ZN26AnimationBlendTreePlayable12CreateInputsER13PlayableGraphm
684:__ZN26AnimatorControllerPlayable18SetLayerAutoWeightEv
685:__ZN7mecanim12statemachine29SetStateMachineInInitialStateERKNS0_20StateMachineConstantERKNS0_17StateMachineInputERNS0_18StateMachineOutputERNS0_18StateMachineMemoryERNS0_21StateMachineWorkspaceE
686:__ZN26AnimationBlendTreePlayable21ConfigureFromConstantEPKN7mecanim9animation17BlendTreeConstantEPKNS0_12statemachine13StateConstantEPKNS1_12AnimationSetE
687:__ZN7mecanim12statemachine13EvaluateStateERKNS_18ValueArrayConstantERKNS0_13StateConstantERKNS0_17StateMachineInputERNS0_18StateMachineOutputERNS0_18StateMachineMemoryERNS0_11StateOutputERNS0_14StateWorkspaceEbb
688:__ZN7mecanim12statemachine21EvaluateStateDurationERKNS0_13StateConstantERNS0_11StateOutputERNS0_14StateWorkspaceERKNS_18ValueArrayConstantERKNS0_17StateMachineInputEb
689:__ZN7mecanim14FindValueIndexEPKNS_18ValueArrayConstantEj
690:__ZN26AnimationBlendTreePlayable37PropagateStateMachineInfoToChildClipsEfffRfS0_b
691:__ZN26AnimationBlendTreePlayable18SetUsePosePlayableEb
692:__ZN26AnimationBlendTreePlayable21DoBlendTreeEvaluationEPKN7mecanim9animation17BlendTreeConstantERKNS0_12statemachine13StateConstantEPNS1_14BlendTreeInputEPNS1_15BlendTreeOutputEPNS1_18BlendTreeWorkspaceERKNS5_17StateMachineInputEfb
693:__ZN7mecanim9animation17EvaluateBlendTreeERKNS0_17BlendTreeConstantERKNS0_14BlendTreeInputERNS0_15BlendTreeOutputERNS0_18BlendTreeWorkspaceERKNS0_12AnimationSetE
694:__ZN13AnimationClip15GetRuntimeAssetEv
695:__ZN7mecanim9animation10GetWeightsERKNS0_21BlendTreeNodeConstantERNS0_18BlendTreeWorkspaceEPfff
696:__ZN7mecanim9animation27GetWeightsSimpleDirectionalERKNS0_19Blend2dDataConstantEPfPiP8Vector2fffb
697:__ZN7mecanim9animation29GetWeightsFreeformDirectionalERKNS0_19Blend2dDataConstantEPfPiP8Vector2fffb
698:__ZN7mecanim9animation27GetWeightsFreeformCartesianERKNS0_19Blend2dDataConstantEPfPiP8Vector2fffb
699:__ZNK13AnimationClip18IsMecanimDataValidEv
700:__ZN7mecanim9animation12GetLeafCountERKNS0_17BlendTreeConstantE
701:__ZN7mecanim9animation12GetLeafCountERKNS0_17BlendTreeConstantERKNS0_21BlendTreeNodeConstantE
702:__ZN27AnimationLayerMixerPlayable14SetLayerWeightEjf
703:__ZN27AnimationLayerMixerPlayable16SetLayerAdditiveEjb
704:__ZN27AnimationLayerMixerPlayable21UpdateLayerParametersEv
705:__ZN13PlayableGraph25ConstructPlayableInternalI21AnimationClipPlayableEEPT_18DirectorPlayerTypem
706:__ZN17AnimationPlayableC2E18DirectorPlayerType
707:__ZN21AnimationClipPlayable6MemoryD0Ev
708:__ZN21AnimationClipPlayableD2Ev
709:__ZN21AnimationClipPlayableD0Ev
710:__ZN21AnimationClipPlayable7SetTimeEd
711:__ZNK21AnimationClipPlayable8GetAssetEv
712:__ZNK21AnimationClipPlayable7GetTypeEv
713:__ZNK21AnimationClipPlayable11DerivesFromE17ScriptingClassPtr
714:__ZN17AnimationPlayable19DeallocateResourcesEv
715:__ZN21AnimationClipPlayable13OnAdvanceTimeEd
716:__ZN17AnimationPlayable18SetInputConnectionEP8Playableii
717:__ZN17AnimationPlayable21ClearOutputConnectionEi
718:__ZN21AnimationClipPlayable17ProcessRootMotionEP35AnimationPlayableEvaluationConstantP32AnimationPlayableEvaluationInputP33AnimationPlayableEvaluationOutput
719:__ZN21AnimationClipPlayable16ProcessAnimationEP35AnimationPlayableEvaluationConstantP32AnimationPlayableEvaluationInputP33AnimationPlayableEvaluationOutput
720:__ZN21AnimationClipPlayable17GetAnimationClipsER13dynamic_arrayIP13AnimationClipLm0EE
721:__ZN17AnimationPlayable19PreProcessAnimationEPK35AnimationPlayableEvaluationConstantPKN7mecanim9animation18AnimationNodeStateE
722:__ZN21AnimationClipPlayable22PrepareAnimationEventsEfR13dynamic_arrayI22AnimationClipEventInfoLm0EE
723:__ZN17AnimationPlayable34CollectAnimatorControllerPlayablesER13dynamic_arrayIP26AnimatorControllerPlayableLm0EE
724:__ZN21AnimationClipPlayable29CollectAnimationClipPlayablesER13dynamic_arrayIPS_Lm0EE
725:__ZN17AnimationPlayable13AddObjectUserER8UserList
726:__ZN21AnimationClipPlayable16AllocateBindingsEPK35AnimationPlayableEvaluationConstant
727:__ZN21AnimationClipPlayable18DeallocateBindingsEv
728:__ZN21AnimationClipPlayable17SetInternalWeightEf
729:__ZN7mecanim9animation15HasMotionCurvesERKNS0_18ClipMuscleConstantE
730:__ZN7mecanim9animation13HasRootCurvesERKNS0_18ClipMuscleConstantE
731:__ZN7mecanim9animation14HasHumanCurvesERKNS0_18ClipMuscleConstantE
732:__ZN7mecanim9animation23CalculateClipMemorySizeEPKNS0_4ClipEmR20RuntimeBaseAllocator
733:__ZN7mecanim9animation23CalculateClipOutputSizeEPKNS0_4ClipEmR20RuntimeBaseAllocator
734:__ZN7mecanim8skeleton25CalculateSkeletonPoseSizeIN4math4trsXEEEmPKNS0_8SkeletonEmR20RuntimeBaseAllocator
735:__ZN7mecanim9animation16CreateClipMemoryEPKNS0_4ClipEiR20RuntimeBaseAllocator
736:__ZN7mecanim9animation16CreateClipOutputEPKNS0_4ClipER20RuntimeBaseAllocator
737:__ZN7mecanim8skeleton18CreateSkeletonPoseIN4math4trsXEEEPNS0_13SkeletonPoseTIT_EEPKNS0_8SkeletonER20RuntimeBaseAllocator
738:__ZNK17AnimationPlayable27GetNextCompatibleDescendantEm
739:__ZN7mecanim9animation15ComputeClipTimeEffffbfRfS1_bf
740:__ZN17AnimationPlayable17GetAnimationClipsER13dynamic_arrayIP13AnimationClipLm0EE
741:__ZN21AnimationClipPlayable20ProcessAnimationPassEPK35AnimationPlayableEvaluationConstantPK32AnimationPlayableEvaluationInputP33AnimationPlayableEvaluationOutput
742:__ZN21AnimationClipPlayable16ProcessHumanPassEPK35AnimationPlayableEvaluationConstantPK32AnimationPlayableEvaluationInputP33AnimationPlayableEvaluationOutput
743:__ZN7mecanim9animation17ClearMotionOutputEPNS0_18AnimationNodeStateE
744:__ZN7mecanim9animation15ClearHumanPosesEPNS0_18AnimationNodeStateE
745:__ZN7mecanim9animation13EvaluateHumanEPKNS0_18ClipMuscleConstantEPKNS0_15ClipMuscleInputEPKNS0_10ClipOutputERKNS0_16MotionXReferenceEPNS0_18AnimationNodeStateEbb
746:__ZN7mecanim9animation17EvaluateHumanPoseERKNS0_18ClipMuscleConstantERKNS0_15ClipMuscleInputEPKfRKNS0_12MotionOutputERKNS0_16MotionXReferenceERNS_5human9HumanPoseEb
747:__ZN7mecanim5human15HumanPoseMirrorERNS0_9HumanPoseERKS1_
748:__ZN7mecanim5human12HumanPoseSubERNS0_9HumanPoseERKS1_S4_
749:__ZN7mecanim5human13HumanPoseCopyERNS0_9HumanPoseERKS1_b
750:__ZN7mecanim9animation12GetHumanPoseINS0_10ValueDeltaEEEvRKNS0_18ClipMuscleConstantEPKT_RNS_5human9HumanPoseE
751:__ZN7mecanim9animation12GetHumanPoseIfEEvRKNS0_18ClipMuscleConstantEPKT_RNS_5human9HumanPoseE
752:__ZN7mecanim5human9HumanPoseC2Ev
753:__ZN7mecanim5human15HumanPoseWeightERNS0_9HumanPoseERKS1_f
754:__ZN7mecanim5human12HumanPoseAddERNS0_9HumanPoseERKS1_S4_
755:__ZN7mecanim5human14HumanPoseClearERNS0_9HumanPoseE
756:__ZN7mecanim9animation17MotionOutputClearEPNS0_12MotionOutputE
757:__ZN21AnimationClipPlayable22ProcessAnimationNoClipEPK35AnimationPlayableEvaluationConstantPK32AnimationPlayableEvaluationInputP33AnimationPlayableEvaluationOutput
758:__ZN7mecanim9animation14ValuesFromClipILb0EEEvRKNS_10ValueArrayERKNS0_10ClipOutputERKNS0_12ClipBindingsEiRS2_RNS_14ValueArrayMaskEbPKSC_
759:__ZN7mecanim9animation14EvaluateValuesEPKNS0_18ClipMuscleConstantEPKNS_18ValueArrayConstantEPKNS0_12ClipBindingsEPKNS0_14AvatarConstantEPKNS0_14SkeletonTQSMapEPNS0_10ClipOutputERN21AnimationClipPlayable6MemoryEPNS0_18AnimationNodeStateEfbbb
760:__ZN7mecanim16CreateValueArrayEPKNS_18ValueArrayConstantER20RuntimeBaseAllocator
761:__ZN7mecanim9animation14DeltasFromClipILb0EEEvRKNS0_18ClipMuscleConstantERKNS0_12ClipBindingsERKNS_14ValueArrayMaskERNS_10ValueArrayESC_SC_
762:__ZN7mecanim9animation19AdjustPoseForMotionERKNS0_14AvatarConstantERKNS0_14SkeletonTQSMapERKN4math4trsXERNS_10ValueArrayERNS_8skeleton13SkeletonPoseTIS8_EESG_
763:__ZN7mecanim13ValueArraySubILb0EEEvRKNS_10ValueArrayEPKNS_14ValueArrayMaskERS1_
764:__ZN7mecanim14ValueArrayLoopILb0EEEvRKNS_10ValueArrayES3_RKNS_14ValueArrayMaskERS1_f
765:__ZN7mecanim9animation30SkeletonPoseFromValueRecursiveERKNS_8skeleton8SkeletonERKNS1_13SkeletonPoseTIN4math4trsXEEERKNS_10ValueArrayEPKNS0_14SkeletonTQSMapEPKiRS8_ii
766:__ZN7mecanim8skeleton25SkeletonPoseComputeGlobalIN4math4trsXEEEvPKNS0_8SkeletonEPKNS0_13SkeletonPoseTIT_EEPS9_
767:__ZN7mecanim8skeleton25SkeletonPoseComputeGlobalIN4math4trsXEEEvPKNS0_8SkeletonEPKNS0_13SkeletonPoseTIT_EEPS9_ii
768:__ZN7mecanim8skeleton24SkeletonPoseComputeLocalIN4math4trsXEEEvPKNS0_8SkeletonEPKNS0_13SkeletonPoseTIT_EEPS9_ii
769:__ZN7mecanim9animation30ValueFromSkeletonPoseRecursiveERKNS_8skeleton8SkeletonERKNS1_13SkeletonPoseTIN4math4trsXEEEPKNS0_14SkeletonTQSMapEPKiRNS_10ValueArrayEii
770:__ZN7mecanim6memory16InPlaceAllocator8AllocateEmm
771:__ZN7mecanim6memory13HeapAllocator8AllocateEmm
772:__ZN7mecanim6memory13HeapAllocator10DeallocateEPv
773:__ZN7mecanim12SetValueMaskILb0EEEvPNS_14ValueArrayMaskEb
774:__ZN7mecanim21SetTransformValueMaskEiiiPNS_14ValueArrayMaskEb
775:__ZN7mecanim13CopyValueMaskILb1EEEvPKNS_14ValueArrayMaskEPS1_
776:__ZN7mecanim14ValueArrayCopyILb0EEEvPKNS_10ValueArrayEPS1_PKNS_14ValueArrayMaskE
777:__ZN21AnimationClipPlayable30ProcessAnimationRootMotionPassEPK35AnimationPlayableEvaluationConstantPK32AnimationPlayableEvaluationInputP33AnimationPlayableEvaluationOutput
778:__ZN21AnimationClipPlayable31ProcessAnimationTargetMatchPassEPK35AnimationPlayableEvaluationConstantPK32AnimationPlayableEvaluationInputP33AnimationPlayableEvaluationOutput
779:__ZN7mecanim9animation15ClearClipOutputEPNS0_10ClipOutputEi
780:__ZN7mecanim9animation12EvaluateClipEPKNS0_4ClipEPKNS0_9ClipInputEPNS0_10ClipMemoryEPNS0_10ClipOutputE
781:__ZN7mecanim9animation29GenericRootXReferenceFromClipEiiRKNS0_18ClipMuscleConstantERKNS0_10ClipOutputES6_RKNS0_12ClipBindingsERNS0_21GenericRootXReferenceE
782:__ZN7mecanim9animation18EvaluateRootMotionERKNS0_18ClipMuscleConstantERKNS0_15ClipMuscleInputEPKfS8_PKNS0_21GenericRootXReferenceERNS0_12MotionOutputERNS0_16MotionXReferenceEbbb
783:__ZN7mecanim9animation13GetClipStartXERKNS0_18ClipMuscleConstantEi
784:__ZN7mecanim9animation12GetClipStopXERKNS0_18ClipMuscleConstantEi
785:__ZN7mecanim9animation5LoopXERN4math4trsXERKNS1_7_float3ERKNS1_7_float4ERKS2_bbb
786:__ZN7mecanim9animation9GetCycleXERKN4math4trsXES4_S4_if
787:__ZN7mecanim9animation11xformPrePowERKN4math4trsXEi
788:__ZN7mecanim9animation10SampleClipERKNS0_12StreamedClipERNS0_18StreamedClipMemoryEfPf
789:__ZN7mecanim9animation10SampleClipERKNS0_12ConstantClipEjPf
790:__ZN7mecanim9animation8SeekClipERKNS0_12StreamedClipERNS0_18StreamedClipMemoryEf
791:__ZN21AnimationClipPlayable23ProcessRootMotionNoClipEPK35AnimationPlayableEvaluationConstantPK32AnimationPlayableEvaluationInputP33AnimationPlayableEvaluationOutput
792:__ZN7mecanim9animation23TransformValuesFromClipEiiiRKNS_10ValueArrayERKNS0_10ClipOutputERKNS0_12ClipBindingsERS1_RNS_14ValueArrayMaskEb
793:__ZN7mecanim9animation14ValuesFromClipILb1EEEvRKNS_10ValueArrayERKNS0_10ClipOutputERKNS0_12ClipBindingsEiRS2_RNS_14ValueArrayMaskEbPKSC_
794:__ZN7mecanim9animation23TransformDeltasFromClipEiiiRKNS0_18ClipMuscleConstantERKNS0_12ClipBindingsERKNS_14ValueArrayMaskERN4math4trsXESC_SC_
795:__ZN7mecanim22TransformValueArraySubEiiiRKN4math4trsXERNS_10ValueArrayE
796:__ZN7mecanim23TransformValueArrayLoopEiiiRKN4math4trsXES3_RNS_10ValueArrayEf
797:__ZN7mecanim9animation26GenericRootXReferenceClearEPNS0_21GenericRootXReferenceE
798:__ZN7mecanim9animation30MotionOutputClearAdditiveLayerEPNS0_12MotionOutputE
799:__ZN7mecanim9animation19EvaluateFloatValuesEPKNS0_18ClipMuscleConstantEPKNS_18ValueArrayConstantEPKNS0_12ClipBindingsEPKNS0_10ClipOutputEPNS0_18AnimationNodeStateEfbb
800:__ZN7mecanim21CreateFloatValueArrayEPKNS_18ValueArrayConstantER20RuntimeBaseAllocator
801:__ZN7mecanim9animation14DeltasFromClipILb1EEEvRKNS0_18ClipMuscleConstantERKNS0_12ClipBindingsERKNS_14ValueArrayMaskERNS_10ValueArrayESC_SC_
802:__ZN7mecanim13ValueArraySubILb1EEEvRKNS_10ValueArrayEPKNS_14ValueArrayMaskERS1_
803:__ZN7mecanim14ValueArrayLoopILb1EEEvRKNS_10ValueArrayES3_RKNS_14ValueArrayMaskERS1_f
804:__ZN7mecanim23TransformValueArrayCopyEiiiPKNS_10ValueArrayEPS0_
805:__ZN7mecanim14ValueArrayCopyILb1EEEvPKNS_10ValueArrayEPS1_PKNS_14ValueArrayMaskE
806:__Z28GetAnimationScriptingClassesv
807:__ZL35InitializeAnimationScriptingClassesv
808:__ZL32CleanupAnimationScriptingClassesv
809:__ZN7mecanim6memory16ChainedAllocator8AllocateEmm
810:__ZN7mecanim6memory16ChainedAllocator5ResetEv
811:__ZN7mecanim6memory16ChainedAllocator16AllocateNewBlockERKmS3_
812:__ZN17AnimationPlayableD2Ev
813:__ZN17AnimationPlayableD0Ev
814:__ZNK17AnimationPlayable11DerivesFromE17ScriptingClassPtr
815:__ZN17AnimationPlayable17ProcessRootMotionEP35AnimationPlayableEvaluationConstantP32AnimationPlayableEvaluationInputP33AnimationPlayableEvaluationOutput
816:__ZN17AnimationPlayable16ProcessAnimationEP35AnimationPlayableEvaluationConstantP32AnimationPlayableEvaluationInputP33AnimationPlayableEvaluationOutput
817:__ZN17AnimationPlayable22PrepareAnimationEventsEfR13dynamic_arrayI22AnimationClipEventInfoLm0EE
818:__ZN17AnimationPlayable29CollectAnimationClipPlayablesER13dynamic_arrayIP21AnimationClipPlayableLm0EE
819:__ZN17AnimationPlayable16AllocateBindingsEPK35AnimationPlayableEvaluationConstant
820:__ZN17AnimationPlayable18DeallocateBindingsEv
821:__ZN17AnimationPlayable17SetInternalWeightEf
822:__ZN22AnimationAssetObserverD2Ev
823:__ZN14AnimationAsset14RemoveObserverEP22AnimationAssetObserver
824:__ZN21AnimationPosePlayableC2E18DirectorPlayerType
825:__ZNK21AnimationPosePlayable7GetTypeEv
826:__ZNK21AnimationPosePlayable11DerivesFromE17ScriptingClassPtr
827:__ZN21AnimationPosePlayable17ProcessRootMotionEP35AnimationPlayableEvaluationConstantP32AnimationPlayableEvaluationInputP33AnimationPlayableEvaluationOutput
828:__ZN21AnimationPosePlayable16ProcessAnimationEP35AnimationPlayableEvaluationConstantP32AnimationPlayableEvaluationInputP33AnimationPlayableEvaluationOutput
829:__ZN21AnimationPosePlayable19PreProcessAnimationEPK35AnimationPlayableEvaluationConstantPKN7mecanim9animation18AnimationNodeStateE
830:__ZN21AnimationPosePlayable16AllocateBindingsEPK35AnimationPlayableEvaluationConstant
831:__ZN21AnimationPosePlayable18DeallocateBindingsEv
832:__ZN7mecanim9animation25DestroyAnimationNodeStateEPNS0_18AnimationNodeStateER20RuntimeBaseAllocator
833:__ZN7mecanim21DestroyValueArrayMaskEPNS_14ValueArrayMaskER20RuntimeBaseAllocator
834:__ZN7mecanim9animation24CreateAnimationNodeStateERKNS_18ValueArrayConstantEbbR20RuntimeBaseAllocator
835:__ZN7mecanim20CreateValueArrayMaskEPKNS_18ValueArrayConstantER20RuntimeBaseAllocator
836:__ZN7mecanim9animation22CopyAnimationNodeStateEPKNS0_18AnimationNodeStateEPS1_bRKNS_6bitsetILj83EEE
837:__ZN7mecanim14ValueArrayCopyILb0EEEvPKNS_10ValueArrayEPS1_
838:__ZN7mecanim13CopyValueMaskILb0EEEvPKNS_14ValueArrayMaskEPS1_
839:__ZN7mecanim9animation16MotionOutputCopyEPNS0_12MotionOutputEPKS1_bRKNS_6bitsetILj83EEE
840:__ZN7mecanim5human13HumanPoseCopyERNS0_9HumanPoseERKS1_RKNS_6bitsetILj83EEE
841:__ZN7mecanim11OrValueMaskILb0EEEvPKNS_14ValueArrayMaskEPS1_
842:__ZN7mecanim9animation14CopyHumanPosesEPKNS0_18AnimationNodeStateEPS1_RKNS_6bitsetILj83EEE
843:__ZN7mecanim9animation16CopyMotionOutputEPKNS0_18AnimationNodeStateEPS1_bRKNS_6bitsetILj83EEE
844:__ZN7mecanim22CopyTransformValueMaskEiiiPKNS_14ValueArrayMaskEPS0_
845:__ZN7mecanim11OrValueMaskILb1EEEvPKNS_14ValueArrayMaskEPS1_
846:__ZN26AnimationBlendTreePlayableC2E18DirectorPlayerType
847:__ZN22AnimationMixerPlayableD2Ev
848:__ZN26AnimationBlendTreePlayableD0Ev
849:__ZNK26AnimationBlendTreePlayable7GetTypeEv
850:__ZNK26AnimationBlendTreePlayable11DerivesFromE17ScriptingClassPtr
851:__ZN22AnimationMixerPlayable18SetInputConnectionEP8Playableii
852:__ZN22AnimationMixerPlayable17ProcessRootMotionEP35AnimationPlayableEvaluationConstantP32AnimationPlayableEvaluationInputP33AnimationPlayableEvaluationOutput
853:__ZN22AnimationMixerPlayable16ProcessAnimationEP35AnimationPlayableEvaluationConstantP32AnimationPlayableEvaluationInputP33AnimationPlayableEvaluationOutput
854:__ZN22AnimationMixerPlayable16AllocateBindingsEPK35AnimationPlayableEvaluationConstant
855:__ZN22AnimationMixerPlayable18DeallocateBindingsEv
856:__ZN7mecanim22CreateValueArrayWeightEPKNS_18ValueArrayConstantER20RuntimeBaseAllocator
857:__ZN22AnimationMixerPlayable26ProcessAnimationEmptyMixerEP35AnimationPlayableEvaluationConstantP32AnimationPlayableEvaluationInputP33AnimationPlayableEvaluationOutput
858:__ZN22AnimationMixerPlayable24ProcessAnimationMixBeginEP35AnimationPlayableEvaluationConstantP32AnimationPlayableEvaluationInputP33AnimationPlayableEvaluationOutput
859:__ZN22AnimationMixerPlayable19ProcessAnimationMixEP33AnimationPlayableEvaluationOutputP35AnimationPlayableEvaluationConstantP32AnimationPlayableEvaluationInputS1_f
860:__ZN22AnimationMixerPlayable22ProcessAnimationMixEndEP35AnimationPlayableEvaluationConstantP32AnimationPlayableEvaluationInputP33AnimationPlayableEvaluationOutputf
861:__ZN22AnimationMixerPlayable12MixerProcessEP35AnimationPlayableEvaluationConstantP32AnimationPlayableEvaluationInputP33AnimationPlayableEvaluationOutputM17AnimationPlayableFvS1_S3_S5_EMS_FvS1_S3_S5_ESA_MS_FvS5_S1_S3_S5_fEMS_FvS1_S3_S5_fE
862:__ZN7mecanim14SetValueWeightEPNS_16ValueArrayWeightEf
863:__ZN7mecanim18ValueArrayBlendEndILb0EEEvPKNS_10ValueArrayERKNS_14ValueArrayMaskERKNS_16ValueArrayWeightERS1_
864:__ZN7mecanim5human17HumanPoseBlendEndERNS0_9HumanPoseERf
865:__ZN7mecanim19ValueArrayBlendNodeILb0EEEvRKNS_10ValueArrayERKNS_14ValueArrayMaskERS1_RS4_RNS_16ValueArrayWeightEf
866:__ZN7mecanim5human18HumanPoseBlendNodeERNS0_9HumanPoseEPS1_f
867:__ZN7mecanim20ValueArrayBlendBeginILb0EEEvRNS_14ValueArrayMaskE
868:__ZN7mecanim5human19HumanPoseBlendBeginERNS0_9HumanPoseE
869:__ZN22AnimationMixerPlayable27ProcessRootMotionEmptyMixerEP35AnimationPlayableEvaluationConstantP32AnimationPlayableEvaluationInputP33AnimationPlayableEvaluationOutput
870:__ZN22AnimationMixerPlayable25ProcessRootMotionMixBeginEP35AnimationPlayableEvaluationConstantP32AnimationPlayableEvaluationInputP33AnimationPlayableEvaluationOutput
871:__ZN22AnimationMixerPlayable20ProcessRootMotionMixEP33AnimationPlayableEvaluationOutputP35AnimationPlayableEvaluationConstantP32AnimationPlayableEvaluationInputS1_f
872:__ZN22AnimationMixerPlayable23ProcessRootMotionMixEndEP35AnimationPlayableEvaluationConstantP32AnimationPlayableEvaluationInputP33AnimationPlayableEvaluationOutputf
873:__ZN7mecanim27TransformValueArrayBlendEndEiiiPKNS_10ValueArrayERKNS_14ValueArrayMaskERKNS_16ValueArrayWeightERS0_
874:__ZN7mecanim18ValueArrayBlendEndILb1EEEvPKNS_10ValueArrayERKNS_14ValueArrayMaskERKNS_16ValueArrayWeightERS1_
875:__ZN7mecanim9animation20MotionOutputBlendEndEPNS0_12MotionOutputEbRKNS_6bitsetILj83EEERf
876:__ZN7mecanim9animation21MotionOutputBlendNodeEPNS0_12MotionOutputES2_fbRKNS_6bitsetILj83EEE
877:__ZN7mecanim28TransformValueArrayBlendNodeEiiiRKNS_10ValueArrayERKNS_14ValueArrayMaskERS0_RS3_RNS_16ValueArrayWeightEf
878:__ZN7mecanim19ValueArrayBlendNodeILb1EEEvRKNS_10ValueArrayERKNS_14ValueArrayMaskERS1_RS4_RNS_16ValueArrayWeightEf
879:__ZN7mecanim9animation22MotionOutputBlendBeginEPNS0_12MotionOutputEb
880:__ZN7mecanim29TransformValueArrayBlendBeginEiiiRNS_14ValueArrayMaskE
881:__ZN7mecanim20ValueArrayBlendBeginILb1EEEvRNS_14ValueArrayMaskE
882:__ZN7mecanim12SetValueMaskILb1EEEvPNS_14ValueArrayMaskEb
883:__ZNK22AnimationMixerPlayable11DerivesFromE17ScriptingClassPtr
884:__ZN22AnimationMixerPlayableC2E18DirectorPlayerType
885:__ZN27AnimationLayerMixerPlayableC2E18DirectorPlayerType
886:__ZN27AnimationLayerMixerPlayableD2Ev
887:__ZN27AnimationLayerMixerPlayableD0Ev
888:__ZN27AnimationLayerMixerPlayable13SetInputCountEi
889:__ZN27AnimationLayerMixerPlayable14SetInputWeightEif
890:__ZNK27AnimationLayerMixerPlayable7GetTypeEv
891:__ZNK27AnimationLayerMixerPlayable11DerivesFromE17ScriptingClassPtr
892:__ZN27AnimationLayerMixerPlayable19DeallocateResourcesEv
893:__ZN27AnimationLayerMixerPlayable18SetInputConnectionEP8Playableii
894:__ZN27AnimationLayerMixerPlayable17ProcessRootMotionEP35AnimationPlayableEvaluationConstantP32AnimationPlayableEvaluationInputP33AnimationPlayableEvaluationOutput
895:__ZN27AnimationLayerMixerPlayable16ProcessAnimationEP35AnimationPlayableEvaluationConstantP32AnimationPlayableEvaluationInputP33AnimationPlayableEvaluationOutput
896:__ZN27AnimationLayerMixerPlayable22PrepareAnimationEventsEfR13dynamic_arrayI22AnimationClipEventInfoLm0EE
897:__ZN27AnimationLayerMixerPlayable16AllocateBindingsEPK35AnimationPlayableEvaluationConstant
898:__ZN27AnimationLayerMixerPlayable18DeallocateBindingsEv
899:__ZN27AnimationLayerMixerPlayable13ClearBindingsEv
900:__ZN27AnimationLayerMixerPlayable18GetLayerParametersEj
901:__ZN27AnimationLayerMixerPlayable6Memory20CreateNodeStateArrayEiRKN7mecanim18ValueArrayConstantEbbR20RuntimeBaseAllocator
902:__ZN27AnimationLayerMixerPlayable27ProcessAnimationSingleLayerEP35AnimationPlayableEvaluationConstantP32AnimationPlayableEvaluationInputP33AnimationPlayableEvaluationOutput
903:__ZN27AnimationLayerMixerPlayable24ProcessAnimationLayerMixEP33AnimationPlayableEvaluationOutputP35AnimationPlayableEvaluationConstantP32AnimationPlayableEvaluationInputS1_if
904:__ZN27AnimationLayerMixerPlayable17LayerMixerProcessEP35AnimationPlayableEvaluationConstantP32AnimationPlayableEvaluationInputP33AnimationPlayableEvaluationOutputM17AnimationPlayableFvS1_S3_S5_EMS_FvS1_S3_S5_ESA_MS_FvS5_S1_S3_S5_ifE
905:__ZN7mecanim12AndValueMaskILb0EEEvPKNS_14ValueArrayMaskEPS1_
906:__ZN7mecanim13ValueArrayAddILb0EEEvPKNS_10ValueArrayES3_PKNS_14ValueArrayMaskEfbPS1_PS4_
907:__ZN27AnimationLayerMixerPlayable8MixHumanEP33AnimationPlayableEvaluationOutputP35AnimationPlayableEvaluationConstantP32AnimationPlayableEvaluationInputS1_f
908:__ZN7mecanim5human25HumanPoseAddAdditiveLayerERNS0_9HumanPoseERKS1_fRKNS_6bitsetILj83EEE
909:__ZN7mecanim5human25HumanPoseAddOverrideLayerERNS0_9HumanPoseERKS1_fRKNS_6bitsetILj83EEE
910:__ZN7mecanim5human14HumanPoseClearERNS0_9HumanPoseERKNS_6bitsetILj83EEE
911:__ZN27AnimationLayerMixerPlayable28ProcessRootMotionSingleLayerEP35AnimationPlayableEvaluationConstantP32AnimationPlayableEvaluationInputP33AnimationPlayableEvaluationOutput
912:__ZN27AnimationLayerMixerPlayable27ProcessRootMotionLayerBeginEP35AnimationPlayableEvaluationConstantP32AnimationPlayableEvaluationInputP33AnimationPlayableEvaluationOutput
913:__ZN27AnimationLayerMixerPlayable25ProcessRootMotionLayerMixEP33AnimationPlayableEvaluationOutputP35AnimationPlayableEvaluationConstantP32AnimationPlayableEvaluationInputS1_if
914:__ZN7mecanim22TransformValueArrayAddEiiiPKNS_10ValueArrayES2_PKNS_14ValueArrayMaskEfbPS0_PS3_
915:__ZN7mecanim13ValueArrayAddILb1EEEvPKNS_10ValueArrayES3_PKNS_14ValueArrayMaskEfbPS1_PS4_
916:__ZN7mecanim9animation22MotionAddOverrideLayerEPNS0_12MotionOutputEPKS1_fbRKNS_6bitsetILj83EEE
917:__ZN7mecanim14ValueArrayCopyILb1EEEvPKNS_10ValueArrayEPS1_
918:__ZN7mecanim12statemachine24CreateStateMachineOutputEPKNS0_20StateMachineConstantEjR20RuntimeBaseAllocator
919:__ZN7mecanim12statemachine27CreateStateMachineWorkspaceEPKNS0_20StateMachineConstantEjR20RuntimeBaseAllocator
920:__ZN7mecanim12statemachine20GetBlendTreeConstantERKNS0_13StateConstantEi
921:__ZN7mecanim12statemachine20CreateStateWorkspaceEjjjR20RuntimeBaseAllocator
922:__ZN7mecanim9animation21CreateBlendTreeOutputEjR20RuntimeBaseAllocator
923:__ZN7mecanim9animation24CreateBlendTreeWorkspaceEjR20RuntimeBaseAllocator
924:__ZN7mecanim12statemachine24CreateStateMachineMemoryEPKNS0_20StateMachineConstantER20RuntimeBaseAllocator
925:__ZN26AnimatorControllerPlayableC2E18DirectorPlayerType
926:__ZN26AnimatorControllerPlayableD2Ev
927:__ZN26AnimatorControllerPlayableD0Ev
928:__ZN26AnimatorControllerPlayable12PrepareFrameERK19DirectorVisitorInfo
929:__ZNK26AnimatorControllerPlayable8GetAssetEv
930:__ZNK26AnimatorControllerPlayable7GetTypeEv
931:__ZNK26AnimatorControllerPlayable11DerivesFromE17ScriptingClassPtr
932:__ZN26AnimatorControllerPlayable19DeallocateResourcesEv
933:__ZN26AnimatorControllerPlayable17ProcessRootMotionEP35AnimationPlayableEvaluationConstantP32AnimationPlayableEvaluationInputP33AnimationPlayableEvaluationOutput
934:__ZN26AnimatorControllerPlayable16ProcessAnimationEP35AnimationPlayableEvaluationConstantP32AnimationPlayableEvaluationInputP33AnimationPlayableEvaluationOutput
935:__ZN26AnimatorControllerPlayable17GetAnimationClipsER13dynamic_arrayIP13AnimationClipLm0EE
936:__ZN26AnimatorControllerPlayable19PreProcessAnimationEPK35AnimationPlayableEvaluationConstantPKN7mecanim9animation18AnimationNodeStateE
937:__ZN26AnimatorControllerPlayable22PrepareAnimationEventsEfR13dynamic_arrayI22AnimationClipEventInfoLm0EE
938:__ZN26AnimatorControllerPlayable34CollectAnimatorControllerPlayablesER13dynamic_arrayIPS_Lm0EE
939:__ZN26AnimatorControllerPlayable13AddObjectUserER8UserList
940:__ZN26AnimatorControllerPlayable16AllocateBindingsEPK35AnimationPlayableEvaluationConstant
941:__ZN26AnimatorControllerPlayable18DeallocateBindingsEv
942:__ZN26AnimatorControllerPlayable27SetupStateMachineBehavioursEv
943:__ZN26AnimatorControllerPlayable29CleanupStateMachineBehavioursEv
944:__ZN26AnimatorControllerPlayable8GetFloatEiRf
945:__ZN26AnimatorControllerPlayable8SetFloatEiRKf
946:__ZN26AnimatorControllerPlayable10GetIntegerEiRi
947:__ZN26AnimatorControllerPlayable10SetIntegerEiRKi
948:__ZN26AnimatorControllerPlayable7GetBoolEiRb
949:__ZN26AnimatorControllerPlayable7SetBoolEiRKb
950:__ZN26AnimatorControllerPlayable12ResetTriggerEi
951:__ZN26AnimatorControllerPlayable10SetTriggerEi
952:__ZNK26AnimatorControllerPlayable13IsInitializedEv
953:__ZNK26AnimatorControllerPlayable24HasStateMachineBehaviourEv
954:__ZNK26AnimatorControllerPlayable25GetStateMachineBehavioursEv
955:__ZNK26AnimatorControllerPlayable41GetStateMachineBehaviourVectorDescriptionEv
956:__ZThn176_NK26AnimatorControllerPlayable13IsInitializedEv
957:__ZThn176_NK26AnimatorControllerPlayable24HasStateMachineBehaviourEv
958:__ZThn176_NK26AnimatorControllerPlayable25GetStateMachineBehavioursEv
959:__ZThn176_NK26AnimatorControllerPlayable41GetStateMachineBehaviourVectorDescriptionEv
960:__Z33PPtrToObjectDontLoadNoThreadCheckI13MonoBehaviourEPT_4PPtrIS1_E
961:__ZN7mecanim9animation22DestroyControllerInputEPNS0_15ControllerInputER20RuntimeBaseAllocator
962:__ZN7mecanim9animation23DestroyControllerMemoryEPNS0_16ControllerMemoryER20RuntimeBaseAllocator
963:__ZN7mecanim9animation26DestroyControllerWorkspaceEPNS0_19ControllerWorkspaceER20RuntimeBaseAllocator
964:__ZN7mecanim12statemachine28DestroyStateMachineWorkspaceEPNS0_21StateMachineWorkspaceER20RuntimeBaseAllocator
965:__ZN7mecanim12statemachine21DestroyStateWorkspaceEPNS0_14StateWorkspaceER20RuntimeBaseAllocator
966:__ZN7mecanim9animation22DestroyBlendTreeOutputEPNS0_15BlendTreeOutputER20RuntimeBaseAllocator
967:__ZN7mecanim9animation25DestroyBlendTreeWorkspaceEPNS0_18BlendTreeWorkspaceER20RuntimeBaseAllocator
968:__ZN7mecanim21ValueArrayReverseCopyEPKNS_18ValueArrayConstantEPKNS_10ValueArrayES2_PS3_PKi
969:__ZN27AnimationLayerMixerPlayable16SetLayerMaskCopyEjRKN7mecanim6bitsetILj83EEEPKNS0_8skeleton12SkeletonMaskE
970:__ZN7mecanim8skeleton18CreateSkeletonMaskEjPKNS0_19SkeletonMaskElementER20RuntimeBaseAllocator
971:__ZN7mecanim14ValueArrayCopyEPKNS_18ValueArrayConstantEPKNS_10ValueArrayES2_PS3_PKi
972:__ZN26AnimatorControllerPlayable11UpdateGraphEf
973:__ZN7mecanim12statemachine20EvaluateStateMachineERKNS0_20StateMachineConstantERKNS0_17StateMachineInputERNS0_18StateMachineOutputERNS0_18StateMachineMemoryERNS0_21StateMachineWorkspaceE
974:__ZN34AnimationStateMachineMixerPlayable13EndTransitionEv
975:__ZN7mecanim12statemachine19EvaluateTransitionsERK9OffsetPtrIS1_INS0_18TransitionConstantEEEjRNS0_15TransitionInputERNS0_16TransitionOutputERNS0_16TransitionMemoryEPKNS0_20StateMachineConstantEPKNS0_17StateMachineInputEPNS0_18StateMachineOutputEPNS0_18StateMachineMemoryEPNS0_21StateMachineWorkspaceEi
976:__ZN34AnimationStateMachineMixerPlayable26StartInterruptedTransitionEbb
977:__ZN7mecanim12statemachine18EvaluateTransitionEPKNS0_18TransitionConstantEPKNS0_15TransitionInputEPNS0_16TransitionOutputEPKNS0_16TransitionMemoryEPNS0_21StateMachineWorkspaceE
978:__ZN7mecanim12statemachine17EvaluateSelectorsEPKNS0_20StateMachineConstantEPKNS_18ValueArrayConstantEPNS_10ValueArrayEjPKNS0_17StateMachineInputEPNS0_18StateMachineMemoryEPNS0_21StateMachineWorkspaceE
979:__ZNK27StateMachineBehaviourPlayer25FireStateMachineBehaviourEiiN7mecanim12statemachine19StateMachineMessageE
980:__ZN7mecanim12statemachine17EvaluateConditionEPKNS0_17ConditionConstantEPKNS_18ValueArrayConstantEPKNS_10ValueArrayE
981:__ZNK27StateMachineBehaviourPlayer13FireBehaviourER8StateKeyR18ScriptingArgumentsN7mecanim12statemachine19StateMachineMessageEb
982:__Z24FindStateBehavioursRangeRK8StateKeyPK38StateMachineBehaviourVectorDescription
983:__ZN21AnimationClipPlayable7SetClipEP13AnimationClip
984:__ZN23AnimationPlayableOutput17SetTargetAnimatorEP8Animator
985:__ZN8Animator28BuildControllerPlayableCacheEv
986:__ZN8Animator16OnPlayableUnbindEP23AnimationPlayableOutput
987:__ZN23AnimationPlayableOutput4BindEv
988:__ZN8Animator14OnPlayableBindEP23AnimationPlayableOutput
989:__ZN13dynamic_arrayI13BoundPlayableLm0EE4growEv
990:__ZN13dynamic_arrayI13BoundPlayableLm0EE21resize_buffer_nocheckEm12ResizePolicy
991:__ZN8Animator13ClearBindingsEv
992:__ZN8Animator22SyncPlayStateToCullingEv
993:__ZN11UnityEngine9Animation30DestroyAnimatorGenericBindingsEPNS0_30AnimatorGenericBindingConstantER20RuntimeBaseAllocator
994:__ZN17AnimationPlayable28UpdateInternalStateRecursiveILi1ELb0EEEvPK35AnimationPlayableEvaluationConstant
995:__ZN11UnityEngine9Animation31UnregisterGenericBindingObjectsEPNS0_30AnimatorGenericBindingConstantE
996:__ZN11UnityEngine9AnimationL22GenericBindingCallbackEPvS1_i
997:__ZN23AnimationPlayableOutputC2EPKcP13PlayableGraph
998:__ZN14PlayableOutputD2Ev
999:__ZN23AnimationPlayableOutputD0Ev
1000:__ZNK23AnimationPlayableOutput7GetTypeEv
1001:__ZNK23AnimationPlayableOutput11DerivesFromE17ScriptingClassPtr
1002:__ZNK23AnimationPlayableOutput9GetStagesER13dynamic_arrayI16StageDescriptionLm0EE
1003:__ZN23AnimationPlayableOutput17SetSourcePlayableEP8Playablei
1004:__ZN23AnimationPlayableOutput17OnPlayerDestroyedEP6Object
1005:__ZN23AnimationPlayableOutput22OnConnectionHashChangeEv
1006:__ZN23AnimationPlayableOutput19DeallocateResourcesEv
1007:__ZN8Animator22OnGraphTopologyChangedEP23AnimationPlayableOutputi
1008:__ZN17AnimationPlayable28ComputeNeedsBindingRebuildedEv
1009:__ZN8Animator25WriteDefaultValuesNoDirtyEv
1010:__ZN8Animator14CreateBindingsEv
1011:__ZN8Animator20CreatePlayableMemoryEv
1012:__ZN8Animator22SetupPlayableWorkspaceERKNS_13AvatarDataSetERKNS_15BindingsDataSetER35AnimationPlayableEvaluationConstantR32AnimationPlayableEvaluationInput
1013:__ZN21AnimationHandleBinder10ResolveAllERK35AnimationPlayableEvaluationConstant
1014:__ZN11UnityEngine9Animation33DeallocatePlayableEvaluationInputER32AnimationPlayableEvaluationInputR20RuntimeBaseAllocator
1015:__ZN11UnityEngine9Animation31AllocatePlayableEvaluationInputER32AnimationPlayableEvaluationInputRK35AnimationPlayableEvaluationConstantR20RuntimeBaseAllocator
1016:__ZN31AnimationStreamHandleDefinition7ResolveERK35AnimationPlayableEvaluationConstant
1017:__ZN21AnimationHandleBinder22ResolveAllSceneHandlesERK35AnimationPlayableEvaluationConstant
1018:__ZN11UnityEngine9Animation28GenericAnimationBindingCache11BindGenericERKNS0_14GenericBindingERK9TransformRNS0_10BoundCurveE
1019:__ZL48InvalidatePropertySceneHandleBoundCurvesCallbackPvS_i
1020:__ZNK11UnityEngine9Animation28GenericAnimationBindingCache10BindCustomERKNS0_14GenericBindingERK9TransformRNS0_10BoundCurveE
1021:__ZN11UnityEngine9Animation28GenericAnimationBindingCache10BindScriptERKNS0_14GenericBindingERK9TransformRNS0_10BoundCurveE
1022:__ZN11UnityEngine9Animation28GenericAnimationBindingCache20BindGenericComponentERKNS0_14GenericBindingERK9TransformRNS0_10BoundCurveE
1023:__ZN11UnityEngine9AnimationL24GenerateComponentBindingEPKN5Unity4TypeE18ScriptingObjectPtr17ScriptingClassPtrP6Object
1024:__ZNSt3__26__sortIRNS_6__lessIN11UnityEngine9Animation13CachedBindingES4_EEPS4_EEvT0_S8_T_
1025:__ZN11UnityEngine9AnimationL22GenerateBindingRecurseERK16TypeTreeIterator18ScriptingObjectPtr5crc32R13dynamic_arrayINS0_13CachedBindingELm0EE
1026:__ZN11UnityEngine9Animation19GetTypeTreeBindTypeERK16TypeTreeIterator
1027:__ZNSt3__26vectorI14TypeTreeString13stl_allocatorIS1_L18MemLabelIdentifier1ELi16EEE21__push_back_slow_pathIS1_EEvOT_
1028:__ZNSt3__27__sort4IRNS_6__lessIN11UnityEngine9Animation13CachedBindingES4_EEPS4_EEjT0_S8_S8_S8_T_
1029:__ZNSt3__227__insertion_sort_incompleteIRNS_6__lessIN11UnityEngine9Animation13CachedBindingES4_EEPS4_EEbT0_S8_T_
1030:__ZN7mecanim8skeleton16SkeletonFindNodeEPKNS0_8SkeletonEj
1031:__ZN17AnimationPlayable28UpdateInternalStateRecursiveILi3ELb0EEEvPK35AnimationPlayableEvaluationConstant
1032:__ZN8Animator24SetupAnimationClipsCacheEv
1033:__ZN11UnityEngine9Animation26CreateAnimationSetBindingsERK13dynamic_arrayIP13AnimationClipLm0EER20RuntimeBaseAllocator
1034:__ZN11UnityEngine9Animation27DestroyAnimationSetBindingsEPNS0_20AnimationSetBindingsER20RuntimeBaseAllocator
1035:__ZN7mecanim9animation32DeallocateAvatarOuputForBindingsEPNS0_12AvatarOutputER20RuntimeBaseAllocator
1036:__ZN8Animator20SetupBindingsDataSetEN4core8AllocPtrIN11UnityEngine9Animation20AnimationSetBindingsE20MecanimDestroyPolicyIS4_EEERNS_15BindingsDataSetERNS_13AvatarDataSetE
1037:__ZN8Animator13GetAvatarRootEv
1038:__ZN11UnityEngine9Animation29CreateAnimatorGenericBindingsERKNS0_20AnimationSetBindingsER9TransformPKN7mecanim9animation14AvatarConstantEbR20RuntimeBaseAllocatorR8Animator
1039:__ZN11UnityEngine9Animation32CreateAnimatorGenericBindingsOptERKNS0_20AnimationSetBindingsER9TransformPKN7mecanim9animation14AvatarConstantEPKNS0_21AvatarBindingConstantEbR20RuntimeBaseAllocatorR8Animator
1040:__ZN7mecanim9animation30AllocateAvatarOuputForBindingsEPNS0_12AvatarOutputEPKNS_18ValueArrayConstantER20RuntimeBaseAllocator
1041:__ZN11UnityEngine9Animation36GenerateTransformBindingMapRecursiveER9TransformRK5crc32R13dynamic_arrayINS0_14BoundTransformELm0EEPKN7mecanim9animation14AvatarConstantEb
1042:__ZN11UnityEngine9AnimationL56CalculateTransformBindingSizeBasedOnConstantOptimizationERKNS0_20AnimationSetBindingsERK13dynamic_arrayINS0_14BoundTransformELm0EEPKiPKN7mecanim9animation14AvatarConstantEb
1043:__ZN7mecanim28CreateValueArrayConstantCopyEPKNS_18ValueArrayConstantEjR20RuntimeBaseAllocator
1044:__ZN11UnityEngine9AnimationL29RegisterGenericBindingObjectsEPNS0_30AnimatorGenericBindingConstantE
1045:__ZN11UnityEngine9AnimationL23InitializeDefaultValuesERKNS0_30AnimatorGenericBindingConstantEPKN7mecanim9animation14AvatarConstantEb
1046:__ZN7mecanim9animation21ValueFromSkeletonPoseERKNS_8skeleton8SkeletonERKNS1_13SkeletonPoseTIN4math4trsXEEEPKNS0_14SkeletonTQSMapERNS_10ValueArrayE
1047:__Z14FindAvatarRootPKN7mecanim8skeleton8SkeletonEPKjR9Transformb
1048:__ZL18BuildTransformListR9TransformR13dynamic_arrayIPS_Lm0EE
1049:__ZL15HiearchyMatchesP9TransformPKN7mecanim8skeleton8SkeletonEjRK5crc32
1050:__ZN7mecanim9animation19DestroyAnimationSetEPNS0_12AnimationSetER20RuntimeBaseAllocator
1051:__ZN7mecanim9animation18CreateAnimationSetEjR20RuntimeBaseAllocator
1052:__ZN4core8hash_mapIN11UnityEngine9Animation14GenericBindingENS2_10BoundIndexENS2_25GenericBindingHashFunctorENS2_30GenericBindingValueArrayUniqueEE6insertERKS3_RKS4_
1053:__ZNSt3__26__sortIRN11UnityEngine9Animation11BindingSortEPNS_4pairINS2_14GenericBindingEPNS2_10BoundIndexEEEEEvT0_SB_T_
1054:__ZN11UnityEngine9Animation15IsMuscleBindingERKNS0_14GenericBindingE
1055:__ZNK11UnityEngine9Animation30GenericBindingValueArrayUniqueclERKNS0_14GenericBindingES4_
1056:__ZN7mecanim24CreateValueArrayConstantENS_9ValueTypeEjR20RuntimeBaseAllocator
1057:__ZN11UnityEngine9AnimationltERKNS0_14GenericBindingES3_
1058:__ZNSt3__27__sort3IRN11UnityEngine9Animation11BindingSortEPNS_4pairINS2_14GenericBindingEPNS2_10BoundIndexEEEEEjT0_SB_SB_T_
1059:__ZNSt3__27__sort4IRN11UnityEngine9Animation11BindingSortEPNS_4pairINS2_14GenericBindingEPNS2_10BoundIndexEEEEEjT0_SB_SB_SB_T_
1060:__ZNSt3__27__sort5IRN11UnityEngine9Animation11BindingSortEPNS_4pairINS2_14GenericBindingEPNS2_10BoundIndexEEEEEjT0_SB_SB_SB_SB_T_
1061:__ZNSt3__218__insertion_sort_3IRN11UnityEngine9Animation11BindingSortEPNS_4pairINS2_14GenericBindingEPNS2_10BoundIndexEEEEEvT0_SB_T_
1062:__ZNSt3__227__insertion_sort_incompleteIRN11UnityEngine9Animation11BindingSortEPNS_4pairINS2_14GenericBindingEPNS2_10BoundIndexEEEEEbT0_SB_T_
1063:__ZN4core8hash_setINS_4pairIKN11UnityEngine9Animation14GenericBindingENS3_10BoundIndexELb0EEENS_9hash_pairINS3_25GenericBindingHashFunctorES5_S6_EENS_10equal_pairINS3_30GenericBindingValueArrayUniqueES5_S6_EEE4growEi
1064:__ZNK21AnimationHandleBinder36CreateAnimationStreamHandlesBindingsEv
1065:__ZNK21AnimationHandleBinder21BuildClipFromBindingsERK13dynamic_arrayI31AnimationStreamHandleDefinitionLm0EEP13AnimationClip
1066:__ZN13AnimationClip11ClearCurvesEv
1067:__ZN13AnimationClip18CleanupMecanimDataEv
1068:__ZN13AnimationClip26BuildMecanimDataMainThreadEv
1069:__ZN13AnimationClip16AddPositionCurveERK17AnimationCurveTplI8Vector3fERKN4core12basic_stringIcNS5_20StringStorageDefaultIcEEEE
1070:__ZN13AnimationClip18AddQuaternionCurveERK17AnimationCurveTplI11QuaternionfERKN4core12basic_stringIcNS5_20StringStorageDefaultIcEEEE
1071:__ZN13AnimationClip13AddScaleCurveERK17AnimationCurveTplI8Vector3fERKN4core12basic_stringIcNS5_20StringStorageDefaultIcEEEE
1072:__ZN13AnimationClip13AddFloatCurveERK17AnimationCurveTplIfERKN4core12basic_stringIcNS4_20StringStorageDefaultIcEEEEPKN5Unity4TypeESA_4PPtrI10MonoScriptE
1073:__ZN13dynamic_arrayI12PPtrKeyframeLm0EEC2Em10MemLabelId
1074:__ZN13AnimationClip12AddPPtrCurveERK13dynamic_arrayI12PPtrKeyframeLm0EERKN4core12basic_stringIcNS5_20StringStorageDefaultIcEEEEPKN5Unity4TypeESB_4PPtrI10MonoScriptE
1075:__ZN13AnimationClip9PPtrCurveC2Ev
1076:__ZN13stl_allocatorIN13AnimationClip9PPtrCurveEL18MemLabelIdentifier30ELi16EE9constructEPS1_RKS1_
1077:__ZNSt3__26vectorIN13AnimationClip9PPtrCurveE13stl_allocatorIS2_L18MemLabelIdentifier30ELi16EEE21__push_back_slow_pathIS2_EEvOT_
1078:__ZN13AnimationClip9PPtrCurveD2Ev
1079:__ZN13dynamic_arrayI12PPtrKeyframeLm0EEaSERKS1_
1080:__ZN4core12basic_stringIcNS_20StringStorageDefaultIcEEEaSERKS3_
1081:__ZN4core12basic_stringIcNS_20StringStorageDefaultIcEEE6assignERKS3_
1082:__ZNK13dynamic_arrayI12PPtrKeyframeLm0EE5beginEv
1083:__ZNK13dynamic_arrayI12PPtrKeyframeLm0EE3endEv
1084:__ZN13dynamic_arrayI12PPtrKeyframeLm0EE6assignEPKS0_S3_
1085:__ZNK13dynamic_arrayI12PPtrKeyframeLm0EE8capacityEv
1086:__ZN13dynamic_arrayI12PPtrKeyframeLm0EE21resize_buffer_nocheckEm12ResizePolicy
1087:__Z30copy_construct_array_autolabelI12PPtrKeyframeEvPT_mPKS1_10MemLabelId
1088:__ZN4core12basic_stringIcNS_20StringStorageDefaultIcEEED2Ev
1089:__ZN4core20StringStorageDefaultIcED2Ev
1090:__ZNKSt3__26vectorIN13AnimationClip9PPtrCurveE13stl_allocatorIS2_L18MemLabelIdentifier30ELi16EEE8max_sizeEv
1091:__ZNSt3__214__split_bufferIN13AnimationClip9PPtrCurveER13stl_allocatorIS2_L18MemLabelIdentifier30ELi16EEEC2EmmS6_
1092:__ZNSt3__26vectorIN13AnimationClip9PPtrCurveE13stl_allocatorIS2_L18MemLabelIdentifier30ELi16EEE26__swap_out_circular_bufferERNS_14__split_bufferIS2_RS5_EE
1093:__ZNSt3__214__split_bufferIN13AnimationClip9PPtrCurveER13stl_allocatorIS2_L18MemLabelIdentifier30ELi16EEED2Ev
1094:__ZN13stl_allocatorIN13AnimationClip9PPtrCurveEL18MemLabelIdentifier30ELi16EE7destroyEPS1_
1095:__ZN13stl_allocatorIN13AnimationClip9PPtrCurveEL18MemLabelIdentifier30ELi16EE10deallocateEPS1_m
1096:__Z14CreateMemLabel18MemLabelIdentifieri
1097:__ZN13stl_allocatorIN13AnimationClip9PPtrCurveEL18MemLabelIdentifier30ELi16EE8allocateEmPKv
1098:__ZN13AnimationClip9PPtrCurveC2ERKS0_
1099:__ZN4core12basic_stringIcNS_20StringStorageDefaultIcEEEC2ERKS3_
1100:__ZN13dynamic_arrayI12PPtrKeyframeLm0EEC2ERKS1_
1101:__ZN20dynamic_array_detail18dynamic_array_dataC2E10MemLabelId
1102:__ZNK4core12basic_stringIcNS_20StringStorageDefaultIcEEE16get_memory_labelEv
1103:__ZN4core20StringStorageDefaultIcEC2E10MemLabelId
1104:__ZNK4core20StringStorageDefaultIcE16get_memory_labelEv
1105:__ZN4core12basic_stringIcNS_20StringStorageDefaultIcEEEC2Ev
1106:__ZN13AnimationClip10FloatCurveC2Ev
1107:__ZN13stl_allocatorIN13AnimationClip10FloatCurveEL18MemLabelIdentifier30ELi16EE9constructEPS1_RKS1_
1108:__ZNSt3__26vectorIN13AnimationClip10FloatCurveE13stl_allocatorIS2_L18MemLabelIdentifier30ELi16EEE21__push_back_slow_pathIS2_EEvOT_
1109:__ZN13AnimationClip10FloatCurveD2Ev
1110:__ZN17AnimationCurveTplIfEaSERKS0_
1111:__ZN13dynamic_arrayI11KeyframeTplIfELm0EEaSERKS2_
1112:__ZNK13dynamic_arrayI11KeyframeTplIfELm0EE3endEv
1113:__ZN13dynamic_arrayI11KeyframeTplIfELm0EE6assignEPKS1_S4_
1114:__Z30copy_construct_array_autolabelI11KeyframeTplIfEEvPT_mPKS2_10MemLabelId
1115:__ZN17AnimationCurveTplIfED2Ev
1116:__ZNSt3__214__split_bufferIN13AnimationClip10FloatCurveER13stl_allocatorIS2_L18MemLabelIdentifier30ELi16EEEC2EmmS6_
1117:__ZNSt3__26vectorIN13AnimationClip10FloatCurveE13stl_allocatorIS2_L18MemLabelIdentifier30ELi16EEE26__swap_out_circular_bufferERNS_14__split_bufferIS2_RS5_EE
1118:__ZNSt3__214__split_bufferIN13AnimationClip10FloatCurveER13stl_allocatorIS2_L18MemLabelIdentifier30ELi16EEED2Ev
1119:__ZN13stl_allocatorIN13AnimationClip10FloatCurveEL18MemLabelIdentifier30ELi16EE7destroyEPS1_
1120:__ZN13stl_allocatorIN13AnimationClip10FloatCurveEL18MemLabelIdentifier30ELi16EE8allocateEmPKv
1121:__ZN13AnimationClip10FloatCurveC2ERKS0_
1122:__ZN17AnimationCurveTplIfEC2ERKS0_
1123:__ZN13dynamic_arrayI11KeyframeTplIfELm0EEC2ERKS2_
1124:__ZN17AnimationCurveTplIfEC2E10MemLabelId
1125:__ZN17AnimationCurveTplIfE5CacheC2Ev
1126:__ZN13AnimationClip12Vector3CurveC2Ev
1127:__ZN13stl_allocatorIN13AnimationClip12Vector3CurveEL18MemLabelIdentifier30ELi16EE9constructEPS1_RKS1_
1128:__ZNSt3__26vectorIN13AnimationClip12Vector3CurveE13stl_allocatorIS2_L18MemLabelIdentifier30ELi16EEE21__push_back_slow_pathIS2_EEvOT_
1129:__ZN13AnimationClip12Vector3CurveD2Ev
1130:__ZN17AnimationCurveTplI8Vector3fEaSERKS1_
1131:__ZN13dynamic_arrayI11KeyframeTplI8Vector3fELm0EEaSERKS3_
1132:__ZNK13dynamic_arrayI11KeyframeTplI8Vector3fELm0EE3endEv
1133:__ZN13dynamic_arrayI11KeyframeTplI8Vector3fELm0EE6assignEPKS2_S5_
1134:__ZN13dynamic_arrayI11KeyframeTplI8Vector3fELm0EE21resize_buffer_nocheckEm12ResizePolicy
1135:__Z30copy_construct_array_autolabelI11KeyframeTplI8Vector3fEEvPT_mPKS3_10MemLabelId
1136:__ZN17AnimationCurveTplI8Vector3fED2Ev
1137:__ZNSt3__214__split_bufferIN13AnimationClip12Vector3CurveER13stl_allocatorIS2_L18MemLabelIdentifier30ELi16EEEC2EmmS6_
1138:__ZNSt3__26vectorIN13AnimationClip12Vector3CurveE13stl_allocatorIS2_L18MemLabelIdentifier30ELi16EEE26__swap_out_circular_bufferERNS_14__split_bufferIS2_RS5_EE
1139:__ZNSt3__214__split_bufferIN13AnimationClip12Vector3CurveER13stl_allocatorIS2_L18MemLabelIdentifier30ELi16EEED2Ev
1140:__ZN13stl_allocatorIN13AnimationClip12Vector3CurveEL18MemLabelIdentifier30ELi16EE7destroyEPS1_
1141:__ZN13stl_allocatorIN13AnimationClip12Vector3CurveEL18MemLabelIdentifier30ELi16EE8allocateEmPKv
1142:__ZN13AnimationClip12Vector3CurveC2ERKS0_
1143:__ZN17AnimationCurveTplI8Vector3fEC2ERKS1_
1144:__ZN17AnimationCurveTplI8Vector3fEC2E10MemLabelId
1145:__ZN17AnimationCurveTplI8Vector3fE5CacheC2Ev
1146:__ZN13AnimationClip15QuaternionCurveC2Ev
1147:__ZN13stl_allocatorIN13AnimationClip15QuaternionCurveEL18MemLabelIdentifier30ELi16EE9constructEPS1_RKS1_
1148:__ZNSt3__26vectorIN13AnimationClip15QuaternionCurveE13stl_allocatorIS2_L18MemLabelIdentifier30ELi16EEE21__push_back_slow_pathIS2_EEvOT_
1149:__ZN13AnimationClip15QuaternionCurveD2Ev
1150:__ZN17AnimationCurveTplI11QuaternionfEaSERKS1_
1151:__ZN13dynamic_arrayI11KeyframeTplI11QuaternionfELm0EEaSERKS3_
1152:__ZNK13dynamic_arrayI11KeyframeTplI11QuaternionfELm0EE3endEv
1153:__ZN13dynamic_arrayI11KeyframeTplI11QuaternionfELm0EE6assignEPKS2_S5_
1154:__ZN13dynamic_arrayI11KeyframeTplI11QuaternionfELm0EE21resize_buffer_nocheckEm12ResizePolicy
1155:__Z30copy_construct_array_autolabelI11KeyframeTplI11QuaternionfEEvPT_mPKS3_10MemLabelId
1156:__ZN17AnimationCurveTplI11QuaternionfED2Ev
1157:__ZNSt3__214__split_bufferIN13AnimationClip15QuaternionCurveER13stl_allocatorIS2_L18MemLabelIdentifier30ELi16EEEC2EmmS6_
1158:__ZNSt3__26vectorIN13AnimationClip15QuaternionCurveE13stl_allocatorIS2_L18MemLabelIdentifier30ELi16EEE26__swap_out_circular_bufferERNS_14__split_bufferIS2_RS5_EE
1159:__ZNSt3__214__split_bufferIN13AnimationClip15QuaternionCurveER13stl_allocatorIS2_L18MemLabelIdentifier30ELi16EEED2Ev
1160:__ZN13stl_allocatorIN13AnimationClip15QuaternionCurveEL18MemLabelIdentifier30ELi16EE7destroyEPS1_
1161:__ZN13stl_allocatorIN13AnimationClip15QuaternionCurveEL18MemLabelIdentifier30ELi16EE8allocateEmPKv
1162:__ZN13AnimationClip15QuaternionCurveC2ERKS0_
1163:__ZN17AnimationCurveTplI11QuaternionfEC2ERKS1_
1164:__ZN13dynamic_arrayI11KeyframeTplI11QuaternionfELm0EEC2ERKS3_
1165:__ZN17AnimationCurveTplI11QuaternionfEC2E10MemLabelId
1166:__ZN17AnimationCurveTplI11QuaternionfE5CacheC2Ev
1167:__ZN13AnimationClip18GenerateMuscleClipEv
1168:__ZN13AnimationClip16ClearCachedRangeEv
1169:__ZN13AnimationClip8GetRangeEv
1170:__ZNK13AnimationClip18HasAnimationEventsEv
1171:__ZN13stl_allocatorIP17AnimationCurveTplI8Vector3fEL18MemLabelIdentifier1ELi16EEC2Ev
1172:__ZNK4core12basic_stringIcNS_20StringStorageDefaultIcEEE5c_strEv
1173:__ZL12ComputeCRC32PKc
1174:__ZN7mecanim9animation15FindMuscleIndexEj
1175:__ZN13stl_allocatorIP17AnimationCurveTplI8Vector3fEL18MemLabelIdentifier1ELi16EE9constructEPS3_RKS3_
1176:__ZNSt3__26vectorIP17AnimationCurveTplI8Vector3fE13stl_allocatorIS4_L18MemLabelIdentifier1ELi16EEE21__push_back_slow_pathIS4_EEvOT_
1177:__ZN4coreeqERKNS_12basic_stringIcNS_20StringStorageDefaultIcEEEEPKc
1178:__Z29AddPositionCurveToClipBuilderR17AnimationCurveTplI8Vector3fERKN4core12basic_stringIcNS3_20StringStorageDefaultIcEEEER18MecanimClipBuilderb
1179:__Z29AddRotationCurveToClipBuilderR17AnimationCurveTplI11QuaternionfERKN4core12basic_stringIcNS3_20StringStorageDefaultIcEEEER18MecanimClipBuilderb
1180:__Z26AddEulerCurveToClipBuilderR17AnimationCurveTplI8Vector3fERKN4core12basic_stringIcNS3_20StringStorageDefaultIcEEEER18MecanimClipBuilderb
1181:__Z26AddScaleCurveToClipBuilderR17AnimationCurveTplI8Vector3fERKN4core12basic_stringIcNS3_20StringStorageDefaultIcEEEER18MecanimClipBuilderb
1182:__ZNK4core12basic_stringIcNS_20StringStorageDefaultIcEEE5emptyEv
1183:__ZN4coreplEPKcRKNS_12basic_stringIcNS_20StringStorageDefaultIcEEEE
1184:__ZN4coreplERKNS_12basic_stringIcNS_20StringStorageDefaultIcEEEEPKc
1185:__Z17GetInstanceIDFromPK6Object
1186:__Z17DebugStringToFileIN4core12basic_stringIcNS0_20StringStorageDefaultIcEEEEEvRKT_PKcii15LogMessageFlagsiiPFvRK11CppLogEntryE
1187:__ZN11UnityEngine9Animation14GenericBindingC2Ev
1188:__ZNK11UnityEngine9Animation28GenericAnimationBindingCache20CreateGenericBindingERKN4core12basic_stringIcNS2_20StringStorageDefaultIcEEEEPKN5Unity4TypeE4PPtrI10MonoScriptES8_bRNS0_14GenericBindingE
1189:__Z28AddGenericCurveToClipBuilderR17AnimationCurveTplIfERKN11UnityEngine9Animation14GenericBindingER18MecanimClipBuilderb
1190:__Z25AddPPtrCurveToClipBuilderR13dynamic_arrayI12PPtrKeyframeLm0EERKN11UnityEngine9Animation14GenericBindingER18MecanimClipBuilder
1191:__Z18PrepareClipBuilderR18MecanimClipBuilder
1192:__Z15BuildMuscleClipRK18MecanimClipBuilderRK21AnimationClipSettingsbRN11UnityEngine9Animation28AnimationClipBindingConstantER20RuntimeBaseAllocator
1193:__ZN9BlobWrite12TransferBaseIN7mecanim9animation18ClipMuscleConstantEEEvRT_17TransferMetaFlags
1194:__Z23PatchMuscleClipWithInfoP13AnimationClipRK21AnimationClipSettingsbPN7mecanim9animation18ClipMuscleConstantER20RuntimeBaseAllocator
1195:__ZN9BlobWriteD2Ev
1196:__ZN20RuntimeBaseAllocator9ConstructIN7mecanim9animation18ClipMuscleConstantEEEPT_m
1197:__Z15delete_internalI17AnimationCurveTplI8Vector3fEEvPT_10MemLabelIdPKci
1198:__Z15delete_internalI17AnimationCurveTplI11QuaternionfEEvPT_10MemLabelIdPKci
1199:__Z15delete_internalI17AnimationCurveTplIfEEvPT_10MemLabelIdPKci
1200:__ZN18MecanimClipBuilderD2Ev
1201:__ZN18MecanimClipBuilder6CurvesD2Ev
1202:__ZN13dynamic_arrayIPS_I12PPtrKeyframeLm0EELm0EED2Ev
1203:__ZN13dynamic_arrayIP17AnimationCurveTplI11QuaternionfELm0EE9owns_dataEv
1204:__ZN13dynamic_arrayIP17AnimationCurveTplI11QuaternionfELm0EE10deallocateEv
1205:__ZNSt3__213__vector_baseIP17AnimationCurveTplI8Vector3fE13stl_allocatorIS4_L18MemLabelIdentifier1ELi16EEED2Ev
1206:__ZN13stl_allocatorIP17AnimationCurveTplI8Vector3fEL18MemLabelIdentifier1ELi16EE10deallocateEPS3_m
1207:__ZNSt3__217__compressed_pairIPP17AnimationCurveTplI8Vector3fE13stl_allocatorIS4_L18MemLabelIdentifier1ELi16EEED2Ev
1208:__ZN7mecanim9animation18ClipMuscleConstantC2Ev
1209:__ZN7mecanim9animation25InitClipMuscleDeltaValuesERNS0_18ClipMuscleConstantEb
1210:__ZN7mecanim9animation26InitClipMuscleAverageSpeedERNS0_18ClipMuscleConstantEi
1211:__ZNK4PPtrI13AnimationClipE6IsNullEv
1212:__ZN7mecanim6memory13HeapAllocatorC2E10MemLabelId
1213:__ZN13dynamic_arrayIP13AnimationClipLm0EE9push_backERKS1_
1214:__ZN13dynamic_arrayIP13AnimationClipLm0EE9push_backI4PPtrIS0_EEEvRKT_
1215:__Z26InitClipMuscleAdditivePoseRN7mecanim9animation18ClipMuscleConstantES2_PN11UnityEngine9Animation20AnimationSetBindingsEfR20RuntimeBaseAllocator
1216:__ZN9OffsetPtrIN7mecanim9animation4ClipEE3GetEv
1217:__ZN7mecanim9animation16CreateClipMemoryEPKNS0_4ClipER20RuntimeBaseAllocator
1218:__ZN20RuntimeBaseAllocator14ConstructArrayIfEEPT_mRKS1_m
1219:__ZN9OffsetPtrIfEaSEPf
1220:__ZN9OffsetPtrIfEixEm
1221:__ZN9OffsetPtrIfE5ResetEPf
1222:__ZNSt3__218uninitialized_fillIPffEEvT_S2_RKT0_
1223:__ZN13dynamic_arrayIP13AnimationClipLm0EE12emplace_backIJRK4PPtrIS0_EEEERS1_DpOT_
1224:__Z23arg_construct_autolabelIP13AnimationClipJRK4PPtrIS0_EEEvPT_10MemLabelIdDpOT0_
1225:__ZN15AllocatorTraitsIP13AnimationClipLb0EE9ConstructIJRK4PPtrIS0_EEEEvPS1_10MemLabelIdDpOT_
1226:__ZnwmPv20non_null_placement_t
1227:__ZN13dynamic_arrayIP13AnimationClipLm0EE12emplace_backIJRKS1_EEERS1_DpOT_
1228:__Z23arg_construct_autolabelIP13AnimationClipJRKS1_EEvPT_10MemLabelIdDpOT0_
1229:__ZN15AllocatorTraitsIP13AnimationClipLb0EE9ConstructEPS1_10MemLabelIdRKS1_
1230:__ZN20RuntimeBaseAllocatorC2Ev
1231:__ZN9BlobWrite8TransferIN7mecanim9animation18ClipMuscleConstantEEEvRT_PKc17TransferMetaFlags
1232:__ZN8BlobSize13CalculateSizeIN7mecanim9animation18ClipMuscleConstantEEEmRT_bb
1233:__ZN13dynamic_arrayIN9BlobWrite11TypeContextELm0EE4backEv
1234:__ZN9BlobWrite12AlignAddressEmm
1235:__ZN15SerializeTraitsIN7mecanim9animation18ClipMuscleConstantEE8TransferI9BlobWriteEEvRS2_RT_
1236:__ZN13dynamic_arrayIN9BlobWrite11TypeContextELm0EE8pop_backEv
1237:__ZN7mecanim9animation18ClipMuscleConstant8TransferI9BlobWriteEEvRT_
1238:__ZN9BlobWrite8TransferIN7mecanim5human9HumanPoseEEEvRT_PKc17TransferMetaFlags
1239:__ZN9BlobWrite8TransferIN4math4trsXEEEvRT_PKc17TransferMetaFlags
1240:__ZN9BlobWrite8TransferIKN4math7_float3EEEvRT_PKc17TransferMetaFlags
1241:__ZN9BlobWrite8TransferI9OffsetPtrIN7mecanim9animation4ClipEEEEvRT_PKc17TransferMetaFlags
1242:__ZN9BlobWrite8TransferIfEEvRT_PKc17TransferMetaFlags
1243:__Z13TransferArrayILi200Ei9BlobWriteEmRAT__T0_PKcRT1_
1244:__Z17TransferOffsetPtrI9OffsetPtrIN7mecanim9animation10ValueDeltaEE9BlobWriteEvRT_PKcRjRT0_
1245:__Z17TransferOffsetPtrI9OffsetPtrIfE9BlobWriteEvRT_PKcRjRT0_
1246:__ZN9BlobWrite8TransferIbEEvRT_PKc17TransferMetaFlags
1247:__ZN7mecanim9animation18ClipMuscleConstant30TransferBackwardsCompatibilityI9BlobWriteEEvRT_
1248:__ZN8BlobSize13CalculateSizeIbEEmRT_bb
1249:__ZN15SerializeTraitsIbE8TransferI9BlobWriteEEvRbRT_
1250:__ZN9BlobWrite17TransferBasicDataIhEEvRT_
1251:__ZN9BlobWrite16GetActiveBlobPtrEv
1252:__ZNK9BlobWrite15GetActiveOffsetEv
1253:__ZN13dynamic_arrayIhLm16EEixEm
1254:__ZN8BlobSizeC2Ebb
1255:__ZN8BlobSize12TransferBaseIbEEvRT_17TransferMetaFlags
1256:__ZN8BlobSize8TransferIbEEvRT_PKc17TransferMetaFlags
1257:__ZN15SerializeTraitsIbE8TransferI8BlobSizeEEvRbRT_
1258:__ZN8BlobSize17TransferBasicDataIhEEvRT_
1259:__ZN12TransferBaseC2Ev
1260:__ZN22OffsetPtrArrayTransferIfEC2ER9OffsetPtrIfERjPv
1261:__ZN9BlobWrite8TransferI22OffsetPtrArrayTransferIfEEEvRT_PKc17TransferMetaFlags
1262:__ZN34BlobWriteTransferSTLStyleArrayImplI22OffsetPtrArrayTransferIfEEclERS1_17TransferMetaFlagsR9BlobWrite
1263:__ZN9BlobWrite8TransferI22OffsetPtrArrayTransferIN7mecanim9animation10ValueDeltaEEEEvRT_PKc17TransferMetaFlags
1264:__ZN8BlobSize13CalculateSizeI22OffsetPtrArrayTransferIN7mecanim9animation10ValueDeltaEEEEmRT_bb
1265:__ZN15SerializeTraitsI22OffsetPtrArrayTransferIN7mecanim9animation10ValueDeltaEEE8TransferI9BlobWriteEEvRS4_RT_
1266:__ZN9BlobWrite11TransferPtrIN7mecanim9animation10ValueDeltaEEEvbP14ReduceCopyData
1267:__ZN9BlobWrite21TransferSTLStyleArrayI22OffsetPtrArrayTransferIN7mecanim9animation10ValueDeltaEEEEvRT_17TransferMetaFlags
1268:__ZN9BlobWrite10ReduceCopyIN7mecanim9animation10ValueDeltaEEEvRK14ReduceCopyData
1269:__ZN34BlobWriteTransferSTLStyleArrayImplI22OffsetPtrArrayTransferIN7mecanim9animation10ValueDeltaEEEclERS4_17TransferMetaFlagsR9BlobWrite
1270:__ZN22OffsetPtrArrayTransferIN7mecanim9animation10ValueDeltaEE5beginEv
1271:__ZN8BlobSize13CalculateSizeIN7mecanim9animation10ValueDeltaEEEmRT_bb
1272:__ZN22OffsetPtrArrayTransferIN7mecanim9animation10ValueDeltaEE3endEv
1273:__ZN9BlobWrite8TransferIN7mecanim9animation10ValueDeltaEEEvRT_PKc17TransferMetaFlags
1274:__ZN15SerializeTraitsIN7mecanim9animation10ValueDeltaEE8TransferI9BlobWriteEEvRS2_RT_
1275:__ZN7mecanim9animation10ValueDelta8TransferI9BlobWriteEEvRT_
1276:__ZN8BlobSize12TransferBaseIN7mecanim9animation10ValueDeltaEEEvRT_17TransferMetaFlags
1277:__ZN8BlobSize8TransferIN7mecanim9animation10ValueDeltaEEEvRT_PKc17TransferMetaFlags
1278:__ZN15SerializeTraitsIN7mecanim9animation10ValueDeltaEE8TransferI8BlobSizeEEvRS2_RT_
1279:__ZN7mecanim9animation10ValueDelta8TransferI8BlobSizeEEvRT_
1280:__ZN8BlobSize8TransferIfEEvRT_PKc17TransferMetaFlags
1281:__ZN31SerializeTraitsBaseForBasicTypeIfE8TransferI8BlobSizeEEvRfRT_
1282:__ZN8BlobSize17TransferBasicDataIfEEvRT_
1283:__ZN8BlobSize12TransferBaseI22OffsetPtrArrayTransferIN7mecanim9animation10ValueDeltaEEEEvRT_17TransferMetaFlags
1284:__ZN8BlobSize8TransferI22OffsetPtrArrayTransferIN7mecanim9animation10ValueDeltaEEEEvRT_PKc17TransferMetaFlags
1285:__ZN15SerializeTraitsI22OffsetPtrArrayTransferIN7mecanim9animation10ValueDeltaEEE8TransferI8BlobSizeEEvRS4_RT_
1286:__ZN8BlobSize11TransferPtrIN7mecanim9animation10ValueDeltaEEEvbP14ReduceCopyData
1287:__ZN8BlobSize21TransferSTLStyleArrayI22OffsetPtrArrayTransferIN7mecanim9animation10ValueDeltaEEEEvRT_17TransferMetaFlags
1288:__ZN33BlobSizeTransferSTLStyleArrayImplI22OffsetPtrArrayTransferIN7mecanim9animation10ValueDeltaEEEclERS4_17TransferMetaFlagsR8BlobSize
1289:__ZN8BlobSize13CalculateSizeIjEEmRT_bb
1290:__ZN31SerializeTraitsBaseForBasicTypeIjE8TransferI9BlobWriteEEvRjRT_
1291:__ZN9BlobWrite17TransferBasicDataIjEEvRT_
1292:__ZN8BlobSize12TransferBaseIjEEvRT_17TransferMetaFlags
1293:__ZN19StaticArrayTransferIiLi200EEC2ERA200_i
1294:__ZN9BlobWrite8TransferI19StaticArrayTransferIiLi200EEEEvRT_PKc17TransferMetaFlags
1295:__ZN8BlobSize13CalculateSizeI19StaticArrayTransferIiLi200EEEEmRT_bb
1296:__ZN15SerializeTraitsI19StaticArrayTransferIiLi200EEE8TransferI9BlobWriteEEvRS1_RT_
1297:__ZN9BlobWrite21TransferSTLStyleArrayI19StaticArrayTransferIiLi200EEEEvRT_17TransferMetaFlags
1298:__ZN34BlobWriteTransferSTLStyleArrayImplI19StaticArrayTransferIiLi200EEEclERS1_17TransferMetaFlagsR9BlobWrite
1299:__ZN19StaticArrayTransferIiLi200EE3endEv
1300:__ZN8BlobSize12TransferBaseI19StaticArrayTransferIiLi200EEEEvRT_17TransferMetaFlags
1301:__ZN8BlobSize8TransferI19StaticArrayTransferIiLi200EEEEvRT_PKc17TransferMetaFlags
1302:__ZN15SerializeTraitsI19StaticArrayTransferIiLi200EEE8TransferI8BlobSizeEEvRS1_RT_
1303:__ZN8BlobSize21TransferSTLStyleArrayI19StaticArrayTransferIiLi200EEEEvRT_17TransferMetaFlags
1304:__ZN33BlobSizeTransferSTLStyleArrayImplI19StaticArrayTransferIiLi200EEEclERS1_17TransferMetaFlagsR8BlobSize
1305:__ZN8BlobSize13CalculateSizeI9OffsetPtrIN7mecanim9animation4ClipEEEEmRT_bb
1306:__ZN15SerializeTraitsI9OffsetPtrIN7mecanim9animation4ClipEEE8TransferI9BlobWriteEEvRS4_RT_
1307:__ZN9OffsetPtrIN7mecanim9animation4ClipEEdeEv
1308:__ZN9BlobWrite8TransferIN7mecanim9animation4ClipEEEvRT_PKc17TransferMetaFlags
1309:__ZN8BlobSize13CalculateSizeIN7mecanim9animation4ClipEEEmRT_bb
1310:__ZN15SerializeTraitsIN7mecanim9animation4ClipEE8TransferI9BlobWriteEEvRS2_RT_
1311:__ZN7mecanim9animation4Clip8TransferI9BlobWriteEEvRT_
1312:__ZN9BlobWrite8TransferIN7mecanim9animation12StreamedClipEEEvRT_PKc17TransferMetaFlags
1313:__ZN9BlobWrite8TransferIN7mecanim9animation9DenseClipEEEvRT_PKc17TransferMetaFlags
1314:__ZN9BlobWrite8TransferIN7mecanim9animation12ConstantClipEEEvRT_PKc17TransferMetaFlags
1315:__ZN8BlobSize13CalculateSizeIN7mecanim9animation12ConstantClipEEEmRT_bb
1316:__ZN15SerializeTraitsIN7mecanim9animation12ConstantClipEE8TransferI9BlobWriteEEvRS2_RT_
1317:__ZN7mecanim9animation12ConstantClip8TransferI9BlobWriteEEvRT_
1318:__ZN8BlobSize12TransferBaseIN7mecanim9animation12ConstantClipEEEvRT_17TransferMetaFlags
1319:__ZN8BlobSize8TransferIN7mecanim9animation12ConstantClipEEEvRT_PKc17TransferMetaFlags
1320:__ZN15SerializeTraitsIN7mecanim9animation12ConstantClipEE8TransferI8BlobSizeEEvRS2_RT_
1321:__ZN7mecanim9animation12ConstantClip8TransferI8BlobSizeEEvRT_
1322:__Z17TransferOffsetPtrI9OffsetPtrIfE8BlobSizeEvRT_PKcRjRT0_
1323:__ZN8BlobSize13CalculateSizeIN7mecanim9animation9DenseClipEEEmRT_bb
1324:__ZN15SerializeTraitsIN7mecanim9animation9DenseClipEE8TransferI9BlobWriteEEvRS2_RT_
1325:__ZN7mecanim9animation9DenseClip8TransferI9BlobWriteEEvRT_
1326:__ZN8BlobSize12TransferBaseIN7mecanim9animation9DenseClipEEEvRT_17TransferMetaFlags
1327:__ZN8BlobSize8TransferIN7mecanim9animation9DenseClipEEEvRT_PKc17TransferMetaFlags
1328:__ZN15SerializeTraitsIN7mecanim9animation9DenseClipEE8TransferI8BlobSizeEEvRS2_RT_
1329:__ZN7mecanim9animation9DenseClip8TransferI8BlobSizeEEvRT_
1330:__ZN8BlobSize13CalculateSizeIN7mecanim9animation12StreamedClipEEEmRT_bb
1331:__ZN15SerializeTraitsIN7mecanim9animation12StreamedClipEE8TransferI9BlobWriteEEvRS2_RT_
1332:__ZN7mecanim9animation12StreamedClip8TransferI9BlobWriteEEvRT_
1333:__ZN8BlobSize12TransferBaseIN7mecanim9animation12StreamedClipEEEvRT_17TransferMetaFlags
1334:__ZN8BlobSize8TransferIN7mecanim9animation12StreamedClipEEEvRT_PKc17TransferMetaFlags
1335:__ZN15SerializeTraitsIN7mecanim9animation12StreamedClipEE8TransferI8BlobSizeEEvRS2_RT_
1336:__ZN7mecanim9animation12StreamedClip8TransferI8BlobSizeEEvRT_
1337:__ZN8BlobSize12TransferBaseIN7mecanim9animation4ClipEEEvRT_17TransferMetaFlags
1338:__ZN8BlobSize8TransferIN7mecanim9animation4ClipEEEvRT_PKc17TransferMetaFlags
1339:__ZN15SerializeTraitsIN7mecanim9animation4ClipEE8TransferI8BlobSizeEEvRS2_RT_
1340:__ZN7mecanim9animation4Clip8TransferI8BlobSizeEEvRT_
1341:__ZN8BlobSize12TransferBaseI9OffsetPtrIN7mecanim9animation4ClipEEEEvRT_17TransferMetaFlags
1342:__ZN8BlobSize8TransferI9OffsetPtrIN7mecanim9animation4ClipEEEEvRT_PKc17TransferMetaFlags
1343:__ZN15SerializeTraitsI9OffsetPtrIN7mecanim9animation4ClipEEE8TransferI8BlobSizeEEvRS4_RT_
1344:__ZN20RuntimeBaseAllocator9ConstructIN7mecanim9animation4ClipEEEPT_m
1345:__ZN7mecanim9animation4ClipC2Ev
1346:__ZN7mecanim9animation12StreamedClipC2Ev
1347:__ZN7mecanim9animation9DenseClipC2Ev
1348:__ZN7mecanim9animation12ConstantClipC2Ev
1349:__ZN8BlobSize13CalculateSizeIKN4math7_float3EEEmRT_bb
1350:__ZN15SerializeTraitsIKN4math7_float3EE8TransferI9BlobWriteEEvRS2_RT_
1351:__ZN8BlobSize12TransferBaseIKN4math7_float3EEEvRT_17TransferMetaFlags
1352:__ZN8BlobSize8TransferIKN4math7_float3EEEvRT_PKc17TransferMetaFlags
1353:__ZN15SerializeTraitsIKN4math7_float3EE8TransferI8BlobSizeEEvRS2_RT_
1354:__ZN8BlobSize13CalculateSizeIN4math4trsXEEEmRT_bb
1355:__ZN15SerializeTraitsIN4math4trsXEE8TransferI9BlobWriteEEvRS1_RT_
1356:__ZN15SerializeTraitsIKN4math7_float4EE8TransferI9BlobWriteEEvRS2_RT_
1357:__ZN8BlobSize12TransferBaseIN4math4trsXEEEvRT_17TransferMetaFlags
1358:__ZN8BlobSize8TransferIN4math4trsXEEEvRT_PKc17TransferMetaFlags
1359:__ZN15SerializeTraitsIN4math4trsXEE8TransferI8BlobSizeEEvRS1_RT_
1360:__ZN8BlobSize13CalculateSizeIN7mecanim5human9HumanPoseEEEmRT_bb
1361:__ZN15SerializeTraitsIN7mecanim5human9HumanPoseEE8TransferI9BlobWriteEEvRS2_RT_
1362:__ZN7mecanim5human9HumanPose8TransferI9BlobWriteEEvRT_
1363:__ZN9BlobWrite8TransferIKN4math7_float4EEEvRT_PKc17TransferMetaFlags
1364:__Z13TransferArrayILi4EN7mecanim5human9HumanGoalE9BlobWriteEmRAT__T0_PKcRT1_
1365:__ZN9BlobWrite8TransferIN7mecanim4hand8HandPoseEEEvRT_PKc17TransferMetaFlags
1366:__Z13TransferArrayILi55Ef9BlobWriteEmRAT__T0_PKcRT1_
1367:__Z13TransferArrayILi21EKN4math7_float3E9BlobWriteEmRAT__T0_PKcRT1_
1368:__ZN7mecanim5human9HumanPose30TransferBackwardsCompatibilityI9BlobWriteEEvRT_m
1369:__ZN19StaticArrayTransferIKN4math7_float3ELi21EEC2ERA21_S2_
1370:__ZN9BlobWrite8TransferI19StaticArrayTransferIKN4math7_float3ELi21EEEEvRT_PKc17TransferMetaFlags
1371:__ZN8BlobSize13CalculateSizeI19StaticArrayTransferIKN4math7_float3ELi21EEEEmRT_bb
1372:__ZN15SerializeTraitsI19StaticArrayTransferIKN4math7_float3ELi21EEE8TransferI9BlobWriteEEvRS4_RT_
1373:__ZN9BlobWrite21TransferSTLStyleArrayI19StaticArrayTransferIKN4math7_float3ELi21EEEEvRT_17TransferMetaFlags
1374:__ZN34BlobWriteTransferSTLStyleArrayImplI19StaticArrayTransferIKN4math7_float3ELi21EEEclERS4_17TransferMetaFlagsR9BlobWrite
1375:__ZN19StaticArrayTransferIKN4math7_float3ELi21EE3endEv
1376:__ZN19StaticArrayTransferIKN4math7_float3ELi21EE5beginEv
1377:__ZN8BlobSize12TransferBaseI19StaticArrayTransferIKN4math7_float3ELi21EEEEvRT_17TransferMetaFlags
1378:__ZN8BlobSize8TransferI19StaticArrayTransferIKN4math7_float3ELi21EEEEvRT_PKc17TransferMetaFlags
1379:__ZN15SerializeTraitsI19StaticArrayTransferIKN4math7_float3ELi21EEE8TransferI8BlobSizeEEvRS4_RT_
1380:__ZN8BlobSize21TransferSTLStyleArrayI19StaticArrayTransferIKN4math7_float3ELi21EEEEvRT_17TransferMetaFlags
1381:__ZN33BlobSizeTransferSTLStyleArrayImplI19StaticArrayTransferIKN4math7_float3ELi21EEEclERS4_17TransferMetaFlagsR8BlobSize
1382:__ZN19StaticArrayTransferIfLi55EEC2ERA55_f
1383:__ZN8BlobSize13CalculateSizeIN7mecanim4hand8HandPoseEEEmRT_bb
1384:__ZN15SerializeTraitsIN7mecanim4hand8HandPoseEE8TransferI9BlobWriteEEvRS2_RT_
1385:__ZN7mecanim4hand8HandPose8TransferI9BlobWriteEEvRT_
1386:__Z13TransferArrayILi20Ef9BlobWriteEmRAT__T0_PKcRT1_
1387:__ZN19StaticArrayTransferIfLi20EEC2ERA20_f
1388:__ZN8BlobSize12TransferBaseIN7mecanim4hand8HandPoseEEEvRT_17TransferMetaFlags
1389:__ZN8BlobSize8TransferIN7mecanim4hand8HandPoseEEEvRT_PKc17TransferMetaFlags
1390:__ZN15SerializeTraitsIN7mecanim4hand8HandPoseEE8TransferI8BlobSizeEEvRS2_RT_
1391:__ZN7mecanim4hand8HandPose8TransferI8BlobSizeEEvRT_
1392:__Z13TransferArrayILi20Ef8BlobSizeEmRAT__T0_PKcRT1_
1393:__ZN19StaticArrayTransferIN7mecanim5human9HumanGoalELi4EEC2ERA4_S2_
1394:__ZN9BlobWrite8TransferI19StaticArrayTransferIN7mecanim5human9HumanGoalELi4EEEEvRT_PKc17TransferMetaFlags
1395:__ZN8BlobSize13CalculateSizeI19StaticArrayTransferIN7mecanim5human9HumanGoalELi4EEEEmRT_bb
1396:__ZN15SerializeTraitsI19StaticArrayTransferIN7mecanim5human9HumanGoalELi4EEE8TransferI9BlobWriteEEvRS4_RT_
1397:__ZN9BlobWrite21TransferSTLStyleArrayI19StaticArrayTransferIN7mecanim5human9HumanGoalELi4EEEEvRT_17TransferMetaFlags
1398:__ZN34BlobWriteTransferSTLStyleArrayImplI19StaticArrayTransferIN7mecanim5human9HumanGoalELi4EEEclERS4_17TransferMetaFlagsR9BlobWrite
1399:__ZN19StaticArrayTransferIN7mecanim5human9HumanGoalELi4EE3endEv
1400:__ZN9BlobWrite8TransferIN7mecanim5human9HumanGoalEEEvRT_PKc17TransferMetaFlags
1401:__ZN8BlobSize13CalculateSizeIN7mecanim5human9HumanGoalEEEmRT_bb
1402:__ZN15SerializeTraitsIN7mecanim5human9HumanGoalEE8TransferI9BlobWriteEEvRS2_RT_
1403:__ZN7mecanim5human9HumanGoal8TransferI9BlobWriteEEvRT_
1404:__ZN8BlobSize12TransferBaseIN7mecanim5human9HumanGoalEEEvRT_17TransferMetaFlags
1405:__ZN8BlobSize8TransferIN7mecanim5human9HumanGoalEEEvRT_PKc17TransferMetaFlags
1406:__ZN15SerializeTraitsIN7mecanim5human9HumanGoalEE8TransferI8BlobSizeEEvRS2_RT_
1407:__ZN7mecanim5human9HumanGoal8TransferI8BlobSizeEEvRT_
1408:__ZN8BlobSize12TransferBaseI19StaticArrayTransferIN7mecanim5human9HumanGoalELi4EEEEvRT_17TransferMetaFlags
1409:__ZN8BlobSize8TransferI19StaticArrayTransferIN7mecanim5human9HumanGoalELi4EEEEvRT_PKc17TransferMetaFlags
1410:__ZN15SerializeTraitsI19StaticArrayTransferIN7mecanim5human9HumanGoalELi4EEE8TransferI8BlobSizeEEvRS4_RT_
1411:__ZN8BlobSize21TransferSTLStyleArrayI19StaticArrayTransferIN7mecanim5human9HumanGoalELi4EEEEvRT_17TransferMetaFlags
1412:__ZN33BlobSizeTransferSTLStyleArrayImplI19StaticArrayTransferIN7mecanim5human9HumanGoalELi4EEEclERS4_17TransferMetaFlagsR8BlobSize
1413:__ZN8BlobSize13CalculateSizeIKN4math7_float4EEEmRT_bb
1414:__ZN8BlobSize12TransferBaseIKN4math7_float4EEEvRT_17TransferMetaFlags
1415:__ZN8BlobSize8TransferIKN4math7_float4EEEvRT_PKc17TransferMetaFlags
1416:__ZN15SerializeTraitsIKN4math7_float4EE8TransferI8BlobSizeEEvRS2_RT_
1417:__ZN8BlobSize12TransferBaseIN7mecanim5human9HumanPoseEEEvRT_17TransferMetaFlags
1418:__ZN8BlobSize8TransferIN7mecanim5human9HumanPoseEEEvRT_PKc17TransferMetaFlags
1419:__ZN15SerializeTraitsIN7mecanim5human9HumanPoseEE8TransferI8BlobSizeEEvRS2_RT_
1420:__ZN7mecanim5human9HumanPose8TransferI8BlobSizeEEvRT_
1421:__Z13TransferArrayILi4EN7mecanim5human9HumanGoalE8BlobSizeEmRAT__T0_PKcRT1_
1422:__Z13TransferArrayILi55Ef8BlobSizeEmRAT__T0_PKcRT1_
1423:__Z13TransferArrayILi21EKN4math7_float3E8BlobSizeEmRAT__T0_PKcRT1_
1424:__ZN8BlobSize12TransferBaseIN7mecanim9animation18ClipMuscleConstantEEEvRT_17TransferMetaFlags
1425:__ZN8BlobSize8TransferIN7mecanim9animation18ClipMuscleConstantEEEvRT_PKc17TransferMetaFlags
1426:__ZN15SerializeTraitsIN7mecanim9animation18ClipMuscleConstantEE8TransferI8BlobSizeEEvRS2_RT_
1427:__ZN7mecanim9animation18ClipMuscleConstant8TransferI8BlobSizeEEvRT_
1428:__Z13TransferArrayILi200Ei8BlobSizeEmRAT__T0_PKcRT1_
1429:__Z22AddCurveToStreamedClipI8Vector3fEvP19StreamedClipBuilderiRK17AnimationCurveTplIT_E
1430:__Z19AddCurveToDenseClipI8Vector3fEvRN7mecanim9animation9DenseClipEiRK17AnimationCurveTplIT_E
1431:__Z22AddCurveToStreamedClipI11QuaternionfEvP19StreamedClipBuilderiRK17AnimationCurveTplIT_E
1432:__Z19AddCurveToDenseClipI11QuaternionfEvRN7mecanim9animation9DenseClipEiRK17AnimationCurveTplIT_E
1433:__Z22AddCurveToStreamedClipIfEvP19StreamedClipBuilderiRK17AnimationCurveTplIT_E
1434:__Z19AddCurveToDenseClipIfEvRN7mecanim9animation9DenseClipEiRK17AnimationCurveTplIT_E
1435:__ZL32AddMappedPPtrCurveToStreamedClipP19StreamedClipBuilderiRN11UnityEngine9Animation28AnimationClipBindingConstantERK13dynamic_arrayI12PPtrKeyframeLm0EE
1436:__Z24CreateStreamClipConstantP19StreamedClipBuilderRN7mecanim9animation12StreamedClipER20RuntimeBaseAllocator
1437:__Z26DestroyStreamedClipBuilderP19StreamedClipBuilder
1438:__ZN7mecanim9animation24CreateClipMuscleConstantEPNS0_4ClipER20RuntimeBaseAllocator
1439:__ZN7mecanim9animation16CreateClipSimpleEjR20RuntimeBaseAllocator
1440:__Z25CreateStreamedClipBuilderjj
1441:__ZN7mecanim9animation18CreateConstantClipERNS0_12ConstantClipEmR20RuntimeBaseAllocator
1442:__Z15CreateDenseClipRN7mecanim9animation9DenseClipEjfffR20RuntimeBaseAllocator
1443:__ZNSt3__26__sortIRNS_6__lessI13BuildCurveKeyS2_EEPS2_EEvT0_S6_T_
1444:__ZNSt3__27__sort4IRNS_6__lessI13BuildCurveKeyS2_EEPS2_EEjT0_S6_S6_S6_T_
1445:__ZNSt3__27__sort5IRNS_6__lessI13BuildCurveKeyS2_EEPS2_EEjT0_S6_S6_S6_S6_T_
1446:__ZNSt3__218__insertion_sort_3IRNS_6__lessI13BuildCurveKeyS2_EEPS2_EEvT0_S6_T_
1447:__ZNSt3__227__insertion_sort_incompleteIRNS_6__lessI13BuildCurveKeyS2_EEPS2_EEbT0_S6_T_
1448:__Z29AddIntegerCurveToStreamedClipP19StreamedClipBuilderiPfPii
1449:__ZN13dynamic_arrayI13BuildCurveKeyLm0EE4growEv
1450:__Z23ConvertCacheToBuildKeysI11QuaternionfEvRN17AnimationCurveTplIT_E5CacheEiP19StreamedClipBuilder
1451:__Z23ConvertCacheToBuildKeysI8Vector3fEvRN17AnimationCurveTplIT_E5CacheEiP19StreamedClipBuilder
1452:__ZN11UnityEngine9Animation20IsDiscreteIntBindingE4PPtrI10MonoScriptERKN4core12basic_stringIcNS4_20StringStorageDefaultIcEEEEPKN5Unity4TypeE
1453:__ZNSt3__214__split_bufferIP17AnimationCurveTplIfER13stl_allocatorIS3_L18MemLabelIdentifier1ELi16EEEC2EmmS7_
1454:__ZNSt3__26vectorIP17AnimationCurveTplIfE13stl_allocatorIS3_L18MemLabelIdentifier1ELi16EEE26__swap_out_circular_bufferERNS_14__split_bufferIS3_RS6_EE
1455:__ZNSt3__214__split_bufferIP17AnimationCurveTplIfER13stl_allocatorIS3_L18MemLabelIdentifier1ELi16EEED2Ev
1456:__ZN13stl_allocatorIP17AnimationCurveTplIfEL18MemLabelIdentifier1ELi16EE8allocateEmPKv
1457:__ZN21DebugStringToFileDataC2Ev
1458:__ZN12StringTraits13AsConstTCharsIcN4core20StringStorageDefaultIcEEEEPKT_RKNS1_12basic_stringIS4_T0_EE
1459:__ZN4core12basic_stringIcNS_20StringStorageDefaultIcEEEC2E10MemLabelId
1460:__ZNSt3__211char_traitsIcE6lengthEPKc
1461:__ZNK4core12basic_stringIcNS_20StringStorageDefaultIcEEE6lengthEv
1462:__ZN4core12basic_stringIcNS_20StringStorageDefaultIcEEE7reserveEm
1463:__ZN4core12basic_stringIcNS_20StringStorageDefaultIcEEE6assignEPKcm
1464:__ZN4core12basic_stringIcNS_20StringStorageDefaultIcEEE6appendERKS3_
1465:__ZN4core12basic_stringIcNS_20StringStorageDefaultIcEEE6appendEPKcm
1466:__ZN4core20StringStorageDefaultIcE6appendEPKcm
1467:__ZN4core20StringStorageDefaultIcE8get_dataEv
1468:__ZN4core20StringStorageDefaultIcE6resizeEmb
1469:__ZNK4core20StringStorageDefaultIcE8capacityEv
1470:__ZN4core20StringStorageDefaultIcE6assignEPKcm
1471:__ZNK4core20StringStorageDefaultIcE9owns_dataEv
1472:__ZN4core20StringStorageDefaultIcE7reserveEm
1473:__ZL13ClassifyCurveI8Vector3fE11ClipOptTypeR17AnimationCurveTplIT_Ebf
1474:__ZN11UnityEngine9Animation22CreateTransformBindingERKN4core12basic_stringIcNS1_20StringStorageDefaultIcEEEEiRNS0_14GenericBindingE
1475:__ZNK4core12basic_stringIcNS_20StringStorageDefaultIcEEE7compareEPKc14ComparisonType
1476:__ZN4core23basic_string_operationsIcE7ToLowerEc
1477:__ZN5crc3213process_bytesEPKvm
1478:__ZNK13dynamic_arrayI12PPtrKeyframeLm0EE5emptyEv
1479:__Z8IsFiniteRKf
1480:__ZN18MecanimClipBuilderC2Ev
1481:__ZNK14AnimationAsset6NotifyE29AnimationAssetChangeEventType
1482:__ZN13dynamic_arrayIN11UnityEngine9Animation14GenericBindingELm0EE13clear_deallocEv
1483:__ZN20dynamic_array_detail18dynamic_array_data22set_capacity_not_ownedEm
1484:__ZN13AnimationClip35ClipWasModifiedAndUpdateMuscleRangeEv
1485:__ZN13AnimationClip15ClipWasModifiedEb
1486:__ZN6Motion17NotifyObjectUsersERK17MessageIdentifier
1487:__ZN13AnimationClipC2E10MemLabelId18ObjectCreationMode
1488:__ZN6MotionC2E10MemLabelId18ObjectCreationMode
1489:__ZN7mecanim6memory16ChainedAllocatorC2E10MemLabelIdm
1490:__ZN4ListI8ListNodeI14AnimationStateEEC2Ev
1491:__ZN21AnimationClipSettingsC2Ev
1492:__ZN11UnityEngine9Animation28AnimationClipBindingConstantC2Ev
1493:__ZN4AABBC2ERK8Vector3fS2_
1494:__ZN11ListElementC2Ev
1495:__ZN11ListElement13SetAsListRootEv
1496:__ZN13AnimationClipD2Ev
1497:__ZN13AnimationClipD0Ev
1498:__ZN13AnimationClip17MainThreadCleanupEv
1499:__ZN13AnimationClip13AwakeFromLoadE17AwakeFromLoadMode
1500:__ZN13AnimationClip16CheckConsistencyEv
1501:__ZN13AnimationClip5ResetEv
1502:__ZNK13AnimationClip22GetTypeVirtualInternalEv
1503:__ZN13AnimationClip7SetNameEPKc
1504:__ZN13AnimationClip23VirtualRedirectTransferER19StreamedBinaryWrite
1505:__ZN13AnimationClip23VirtualRedirectTransferER18StreamedBinaryRead
1506:__ZN13AnimationClip23VirtualRedirectTransferER17RemapPPtrTransfer
1507:__ZN13AnimationClip23VirtualRedirectTransferER24GenerateTypeTreeTransfer
1508:__ZN13AnimationClip23VirtualRedirectTransferER14SafeBinaryRead
1509:__ZNK13AnimationClip18GetAverageDurationEv
1510:__ZNK13AnimationClip22GetAverageAngularSpeedEv
1511:__ZNK13AnimationClip15GetAverageSpeedEv
1512:__ZNK13AnimationClip16GetApparentSpeedEv
1513:__ZNK13AnimationClip13IsHumanMotionEv
1514:__ZNK13AnimationClip9IsLoopingEv
1515:__ZNK13AnimationClip17GetAnimationClipsEv
1516:__ZNK13AnimationClip8IsLegacyEv
1517:__ZN6Motion21AddSelfToDependenciesER8UserList
1518:__ZN13dynamic_arrayI4PPtrI13AnimationClipELm0EE9push_backIPKS1_EEvRKT_
1519:__ZN13dynamic_arrayI4PPtrI13AnimationClipELm0EE12emplace_backIJRKPKS1_EEERS2_DpOT_
1520:__Z23arg_construct_autolabelI4PPtrI13AnimationClipEJRKPKS1_EEvPT_10MemLabelIdDpOT0_
1521:__ZN15AllocatorTraitsI4PPtrI13AnimationClipELb0EE9ConstructIJRKPKS1_EEEvPS2_10MemLabelIdDpOT_
1522:__ZN4PPtrI13AnimationClipEC2EPKS0_
1523:__ZN4PPtrI13AnimationClipE12AssignObjectEPK6Object
1524:__Z9MagnitudeRK8Vector3f
1525:__Z3DotRK8Vector3fS1_
1526:__Z8SqrtImplf
1527:__Z16float3ToVector3fRKN4math7_float3E
1528:__ZN8Vector3fC2ERKS_
1529:__ZN14SafeBinaryRead12TransferBaseI13AnimationClipEEvRT_17TransferMetaFlags
1530:__ZN14SafeBinaryRead8TransferI13AnimationClipEEvRT_PKc17TransferMetaFlags
1531:__ZN15SerializeTraitsI13AnimationClipE13GetTypeStringEPv
1532:__ZN14SafeBinaryRead22TransferWithTypeStringI13AnimationClipEEvRT_PKcS5_17TransferMetaFlags
1533:__ZN15SerializeTraitsI13AnimationClipE8TransferI14SafeBinaryReadEEvRS0_RT_
1534:__ZN13AnimationClip8TransferI14SafeBinaryReadEEvRT_
1535:__ZN14SafeBinaryRead8TransferIbEEvRT_PKc17TransferMetaFlags
1536:__ZN14SafeBinaryRead8TransferINSt3__26vectorIN13AnimationClip15QuaternionCurveE13stl_allocatorIS4_L18MemLabelIdentifier30ELi16EEEEEEvRT_PKc17TransferMetaFlags
1537:__ZN14SafeBinaryRead8TransferINSt3__26vectorI24CompressedAnimationCurve13stl_allocatorIS3_L18MemLabelIdentifier30ELi16EEEEEEvRT_PKc17TransferMetaFlags
1538:__ZNSt3__26vectorI24CompressedAnimationCurve13stl_allocatorIS1_L18MemLabelIdentifier30ELi16EEED2Ev
1539:__Zan24TransferInstructionFlagsS_
1540:__ZN13AnimationClip14CompressCurvesERNSt3__26vectorI24CompressedAnimationCurve13stl_allocatorIS2_L18MemLabelIdentifier30ELi16EEEE
1541:__ZN13AnimationClip16DecompressCurvesERNSt3__26vectorI24CompressedAnimationCurve13stl_allocatorIS2_L18MemLabelIdentifier30ELi16EEEE
1542:__ZNSt3__26vectorIN13AnimationClip15QuaternionCurveE13stl_allocatorIS2_L18MemLabelIdentifier30ELi16EEED2Ev
1543:__ZN14SafeBinaryRead8TransferINSt3__26vectorIN13AnimationClip12Vector3CurveE13stl_allocatorIS4_L18MemLabelIdentifier30ELi16EEEEEEvRT_PKc17TransferMetaFlags
1544:__ZN14SafeBinaryRead8TransferINSt3__26vectorIN13AnimationClip10FloatCurveE13stl_allocatorIS4_L18MemLabelIdentifier30ELi16EEEEEEvRT_PKc17TransferMetaFlags
1545:__ZN14SafeBinaryRead8TransferINSt3__26vectorIN13AnimationClip9PPtrCurveE13stl_allocatorIS4_L18MemLabelIdentifier30ELi16EEEEEEvRT_PKc17TransferMetaFlags
1546:__ZN14SafeBinaryRead8TransferIfEEvRT_PKc17TransferMetaFlags
1547:__Z32TransferEnumWithNameForceIntSizeI14SafeBinaryRead8WrapModeEvRT_RT0_PKc17TransferMetaFlags
1548:__ZN14SafeBinaryRead8TransferI4AABBEEvRT_PKc17TransferMetaFlags
1549:__ZL51RenameMotionCurvesToRootCurvesBackwardCompatibilityRNSt3__26vectorIN13AnimationClip10FloatCurveE13stl_allocatorIS2_L18MemLabelIdentifier30ELi16EEEE
1550:__ZN14SafeBinaryRead8TransferIiEEvRT_PKc17TransferMetaFlags
1551:__ZN12TransferBase11SetUserDataEPv
1552:__Z21TransferBlobSerializeIN7mecanim9animation18ClipMuscleConstantE14SafeBinaryReadEvRPT_PKcRjS8_RT0_
1553:__ZN14SafeBinaryRead8TransferIN11UnityEngine9Animation28AnimationClipBindingConstantEEEvRT_PKc17TransferMetaFlags
1554:__ZN14SafeBinaryRead8TransferINSt3__26vectorI14AnimationEvent13stl_allocatorIS3_L18MemLabelIdentifier30ELi16EEEEEEvRT_PKc17TransferMetaFlags
1555:__ZN14SafeBinaryRead22TransferWithTypeStringINSt3__26vectorI14AnimationEvent13stl_allocatorIS3_L18MemLabelIdentifier30ELi16EEEEEEvRT_PKcSB_17TransferMetaFlags
1556:__ZN15SerializeTraitsINSt3__26vectorI14AnimationEvent13stl_allocatorIS2_L18MemLabelIdentifier30ELi16EEEEE8TransferI14SafeBinaryReadEEvRS6_RT_
1557:__ZN14SafeBinaryRead21TransferSTLStyleArrayINSt3__26vectorI14AnimationEvent13stl_allocatorIS3_L18MemLabelIdentifier30ELi16EEEEEEvRT_17TransferMetaFlags
1558:__ZN15SerializeTraitsINSt3__26vectorI14AnimationEvent13stl_allocatorIS2_L18MemLabelIdentifier30ELi16EEEEE19ResizeSTLStyleArrayERS6_i
1559:__ZNK16TypeTreeIteratorptEv
1560:__ZN3VFS8FileSizeC2ERKS0_
1561:__ZNK3VFS16FileSizeTemplateIyEplERKy
1562:__ZN3VFS8FileSizeC2ENS_16FileSizeTemplateIyEE
1563:__ZN15SerializeTraitsI14AnimationEventE8TransferI14SafeBinaryReadEEvRS0_RT_
1564:__ZN14SafeBinaryRead8TransferI14AnimationEventEEvRT_PKc17TransferMetaFlags
1565:__ZN14SafeBinaryRead22TransferWithTypeStringI14AnimationEventEEvRT_PKcS5_17TransferMetaFlags
1566:__ZN14AnimationEvent8TransferI14SafeBinaryReadEEvRT_
1567:__ZN3VFS16FileSizeTemplateIyEC2ERKy
1568:__Z14resize_trimmedINSt3__26vectorI14AnimationEvent13stl_allocatorIS2_L18MemLabelIdentifier30ELi16EEEEEvRT_j
1569:__ZN13stl_allocatorI14AnimationEventL18MemLabelIdentifier30ELi16EEC2ERKS2_
1570:__ZNSt3__26vectorI14AnimationEvent13stl_allocatorIS1_L18MemLabelIdentifier30ELi16EEE7reserveEm
1571:__ZNSt3__26vectorI14AnimationEvent13stl_allocatorIS1_L18MemLabelIdentifier30ELi16EEE6assignINS_11__wrap_iterIPS1_EEEENS_9enable_ifIXaasr21__is_forward_iteratorIT_EE5valuesr16is_constructibleIS1_NS_15iterator_traitsISB_E9referenceEEE5valueEvE4typeESB_SB_
1572:__ZNSt3__26vectorI14AnimationEvent13stl_allocatorIS1_L18MemLabelIdentifier30ELi16EEE6resizeEm
1573:__ZNSt3__26vectorI14AnimationEvent13stl_allocatorIS1_L18MemLabelIdentifier30ELi16EEE4swapERS5_
1574:__ZNSt3__26vectorI14AnimationEvent13stl_allocatorIS1_L18MemLabelIdentifier30ELi16EEED2Ev
1575:__ZNSt3__26vectorI14AnimationEvent13stl_allocatorIS1_L18MemLabelIdentifier30ELi16EEEC2INS_11__wrap_iterIPS1_EEEET_SA_RKS4_PNS_9enable_ifIXaasr21__is_forward_iteratorISA_EE5valuesr16is_constructibleIS1_NS_15iterator_traitsISA_E9referenceEEE5valueEvE4typeE
1576:__ZNSt3__26vectorI14AnimationEvent13stl_allocatorIS1_L18MemLabelIdentifier30ELi16EEE8allocateEm
1577:__ZNSt3__26vectorI14AnimationEvent13stl_allocatorIS1_L18MemLabelIdentifier30ELi16EEE18__construct_at_endINS_11__wrap_iterIPS1_EEEENS_9enable_ifIXsr21__is_forward_iteratorIT_EE5valueEvE4typeESB_SB_m
1578:__ZN13stl_allocatorI14AnimationEventL18MemLabelIdentifier30ELi16EE9constructEPS0_RKS0_
1579:__ZN14AnimationEventC2ERKS_
1580:__ZN13stl_allocatorI14AnimationEventL18MemLabelIdentifier30ELi16EE8allocateEmPKv
1581:__ZNSt3__213__vector_baseI14AnimationEvent13stl_allocatorIS1_L18MemLabelIdentifier30ELi16EEED2Ev
1582:__ZN13stl_allocatorI14AnimationEventL18MemLabelIdentifier30ELi16EE7destroyEPS0_
1583:__ZN14AnimationEventD2Ev
1584:__ZNSt3__26vectorI14AnimationEvent13stl_allocatorIS1_L18MemLabelIdentifier30ELi16EEE8__appendEm
1585:__ZN14AnimationEventaSERKS_
1586:__ZNSt3__26vectorI14AnimationEvent13stl_allocatorIS1_L18MemLabelIdentifier30ELi16EEE10deallocateEv
1587:__ZNSt3__214__split_bufferI14AnimationEventR13stl_allocatorIS1_L18MemLabelIdentifier30ELi16EEEC2EmmS5_
1588:__ZNSt3__26vectorI14AnimationEvent13stl_allocatorIS1_L18MemLabelIdentifier30ELi16EEE26__swap_out_circular_bufferERNS_14__split_bufferIS1_RS4_EE
1589:__ZNSt3__214__split_bufferI14AnimationEventR13stl_allocatorIS1_L18MemLabelIdentifier30ELi16EEED2Ev
1590:__ZN14SafeBinaryRead22TransferWithTypeStringIN11UnityEngine9Animation28AnimationClipBindingConstantEEEvRT_PKcS7_17TransferMetaFlags
1591:__ZN15SerializeTraitsIN11UnityEngine9Animation28AnimationClipBindingConstantEE8TransferI14SafeBinaryReadEEvRS2_RT_
1592:__ZN11UnityEngine9Animation28AnimationClipBindingConstant8TransferI14SafeBinaryReadEEvRT_
1593:__ZN14SafeBinaryRead8TransferI13dynamic_arrayIN11UnityEngine9Animation14GenericBindingELm0EEEEvRT_PKc17TransferMetaFlags
1594:__ZN14SafeBinaryRead8TransferI13dynamic_arrayI4PPtrI6ObjectELm0EEEEvRT_PKc17TransferMetaFlags
1595:__ZN14SafeBinaryRead22TransferWithTypeStringI13dynamic_arrayI4PPtrI6ObjectELm0EEEEvRT_PKcS9_17TransferMetaFlags
1596:__ZN15SerializeTraitsI13dynamic_arrayI4PPtrI6ObjectELm0EEE8TransferI14SafeBinaryReadEEvRS4_RT_
1597:__ZN14SafeBinaryRead21TransferSTLStyleArrayI13dynamic_arrayI4PPtrI6ObjectELm0EEEEvRT_17TransferMetaFlags
1598:__ZN15SerializeTraitsI13dynamic_arrayI4PPtrI6ObjectELm0EEE19ResizeSTLStyleArrayERS4_i
1599:__ZN13dynamic_arrayI4PPtrI6ObjectELm0EE3endEv
1600:__ZN15SerializeTraitsI4PPtrI6ObjectEE8TransferI14SafeBinaryReadEEvRS2_RT_
1601:__ZN14SafeBinaryRead8TransferI4PPtrI6ObjectEEEvRT_PKc17TransferMetaFlags
1602:__ZN14SafeBinaryRead22TransferWithTypeStringI4PPtrI6ObjectEEEvRT_PKcS7_17TransferMetaFlags
1603:__ZN4PPtrI6ObjectE8TransferI14SafeBinaryReadEEvRT_
1604:__ZN13dynamic_arrayI4PPtrI6ObjectELm0EE18resize_initializedEm12ResizePolicy
1605:__ZN13dynamic_arrayI4PPtrI6ObjectELm0EE21resize_buffer_nocheckEm12ResizePolicy
1606:__Z29default_construct_n_autolabelI4PPtrI6ObjectEEvPT_m10MemLabelId
1607:__Z27default_construct_autolabelI4PPtrI6ObjectEEvPT_10MemLabelId
1608:__ZN15AllocatorTraitsI4PPtrI6ObjectELb0EE9ConstructEPS2_10MemLabelId
1609:__ZN14SafeBinaryRead22TransferWithTypeStringI13dynamic_arrayIN11UnityEngine9Animation14GenericBindingELm0EEEEvRT_PKcS9_17TransferMetaFlags
1610:__ZN15SerializeTraitsI13dynamic_arrayIN11UnityEngine9Animation14GenericBindingELm0EEE8TransferI14SafeBinaryReadEEvRS4_RT_
1611:__ZN14SafeBinaryRead21TransferSTLStyleArrayI13dynamic_arrayIN11UnityEngine9Animation14GenericBindingELm0EEEEvRT_17TransferMetaFlags
1612:__ZN15SerializeTraitsI13dynamic_arrayIN11UnityEngine9Animation14GenericBindingELm0EEE19ResizeSTLStyleArrayERS4_i
1613:__ZN13dynamic_arrayIN11UnityEngine9Animation14GenericBindingELm0EE3endEv
1614:__ZN15SerializeTraitsIN11UnityEngine9Animation14GenericBindingEE8TransferI14SafeBinaryReadEEvRS2_RT_
1615:__ZN14SafeBinaryRead8TransferIN11UnityEngine9Animation14GenericBindingEEEvRT_PKc17TransferMetaFlags
1616:__ZN14SafeBinaryRead22TransferWithTypeStringIN11UnityEngine9Animation14GenericBindingEEEvRT_PKcS7_17TransferMetaFlags
1617:__ZN11UnityEngine9Animation14GenericBinding8TransferI14SafeBinaryReadEEvRT_
1618:__ZN14SafeBinaryRead8TransferIjEEvRT_PKc17TransferMetaFlags
1619:__ZN14SafeBinaryRead8TransferIPKN5Unity4TypeEEEvRT_PKc17TransferMetaFlags
1620:__ZN14SafeBinaryRead8TransferIhEEvRT_PKc17TransferMetaFlags
1621:__ZN14SafeBinaryRead22TransferWithTypeStringIhEEvRT_PKcS4_17TransferMetaFlags
1622:__ZN31SerializeTraitsBaseForBasicTypeIhE8TransferI14SafeBinaryReadEEvRhRT_
1623:__ZN14SafeBinaryRead17TransferBasicDataIhEEvRT_
1624:__ZN12CachedReader4ReadIhEEvRT_m
1625:__ZN14SafeBinaryRead16ConvertEndianessEv
1626:__ZN14SafeBinaryRead22TransferWithTypeStringIPKN5Unity4TypeEEEvRT_PKcS8_17TransferMetaFlags
1627:__ZN15SerializeTraitsIPKN5Unity4TypeEE8TransferI14SafeBinaryReadEEvRS3_RT_
1628:__ZN14SafeBinaryRead17TransferBasicDataIiEEvRT_
1629:__ZN12CachedReader4ReadIiEEvRT_m
1630:__Z15SwapEndianBytesRj
1631:__ZN13dynamic_arrayIN11UnityEngine9Animation14GenericBindingELm0EE18resize_initializedEm12ResizePolicy
1632:__Z29default_construct_n_autolabelIN11UnityEngine9Animation14GenericBindingEEvPT_m10MemLabelId
1633:__Z27default_construct_autolabelIN11UnityEngine9Animation14GenericBindingEEvPT_10MemLabelId
1634:__ZN15AllocatorTraitsIN11UnityEngine9Animation14GenericBindingELb0EE9ConstructEPS2_10MemLabelId
1635:__ZN7mecanim6memory16ChainedAllocator7ReserveEm
1636:__ZN14SafeBinaryRead8TransferIN7mecanim9animation18ClipMuscleConstantEEEvRT_PKc17TransferMetaFlags
1637:__ZN14SafeBinaryRead22TransferWithTypeStringIN7mecanim9animation18ClipMuscleConstantEEEvRT_PKcS7_17TransferMetaFlags
1638:__ZN15SerializeTraitsIN7mecanim9animation18ClipMuscleConstantEE8TransferI14SafeBinaryReadEEvRS2_RT_
1639:__ZN7mecanim9animation18ClipMuscleConstant8TransferI14SafeBinaryReadEEvRT_
1640:__ZN14SafeBinaryRead8TransferIN7mecanim5human9HumanPoseEEEvRT_PKc17TransferMetaFlags
1641:__ZN14SafeBinaryRead8TransferIN4math4trsXEEEvRT_PKc17TransferMetaFlags
1642:__ZN14SafeBinaryRead8TransferIKN4math7_float3EEEvRT_PKc17TransferMetaFlags
1643:__ZN14SafeBinaryRead8TransferI9OffsetPtrIN7mecanim9animation4ClipEEEEvRT_PKc17TransferMetaFlags
1644:__Z13TransferArrayILi200Ei14SafeBinaryReadEmRAT__T0_PKcRT1_
1645:__Z17TransferOffsetPtrI9OffsetPtrIN7mecanim9animation10ValueDeltaEE14SafeBinaryReadEvRT_PKcRjRT0_
1646:__Z17TransferOffsetPtrI9OffsetPtrIfE14SafeBinaryReadEvRT_PKcRjRT0_
1647:__ZN7mecanim9animation18ClipMuscleConstant30TransferBackwardsCompatibilityI14SafeBinaryReadEEvRT_
1648:__ZN14SafeBinaryRead8TransferI22OffsetPtrArrayTransferIfEEEvRT_PKc17TransferMetaFlags
1649:__ZN14SafeBinaryRead22TransferWithTypeStringI22OffsetPtrArrayTransferIfEEEvRT_PKcS6_17TransferMetaFlags
1650:__ZN15SerializeTraitsI22OffsetPtrArrayTransferIfEE8TransferI14SafeBinaryReadEEvRS1_RT_
1651:__ZN14SafeBinaryRead21TransferSTLStyleArrayI22OffsetPtrArrayTransferIfEEEvRT_17TransferMetaFlags
1652:__ZN14SafeBinaryRead8TransferI22OffsetPtrArrayTransferIN7mecanim9animation10ValueDeltaEEEEvRT_PKc17TransferMetaFlags
1653:__ZN14SafeBinaryRead22TransferWithTypeStringI22OffsetPtrArrayTransferIN7mecanim9animation10ValueDeltaEEEEvRT_PKcS9_17TransferMetaFlags
1654:__ZN15SerializeTraitsI22OffsetPtrArrayTransferIN7mecanim9animation10ValueDeltaEEE8TransferI14SafeBinaryReadEEvRS4_RT_
1655:__ZN14SafeBinaryRead21TransferSTLStyleArrayI22OffsetPtrArrayTransferIN7mecanim9animation10ValueDeltaEEEEvRT_17TransferMetaFlags
1656:__ZN15SerializeTraitsI22OffsetPtrArrayTransferIN7mecanim9animation10ValueDeltaEEE19ResizeSTLStyleArrayERS4_i
1657:__ZN15SerializeTraitsIN7mecanim9animation10ValueDeltaEE8TransferI14SafeBinaryReadEEvRS2_RT_
1658:__ZN14SafeBinaryRead8TransferIN7mecanim9animation10ValueDeltaEEEvRT_PKc17TransferMetaFlags
1659:__ZN14SafeBinaryRead22TransferWithTypeStringIN7mecanim9animation10ValueDeltaEEEvRT_PKcS7_17TransferMetaFlags
1660:__ZN7mecanim9animation10ValueDelta8TransferI14SafeBinaryReadEEvRT_
1661:__ZN22OffsetPtrArrayTransferIN7mecanim9animation10ValueDeltaEE6resizeEi
1662:__ZN20RuntimeBaseAllocator14ConstructArrayIN7mecanim9animation10ValueDeltaEEEPT_mRKS4_m
1663:__ZNSt3__218uninitialized_fillIPN7mecanim9animation10ValueDeltaES3_EEvT_S5_RKT0_
1664:__ZN14SafeBinaryRead8TransferI19StaticArrayTransferIiLi200EEEEvRT_PKc17TransferMetaFlags
1665:__ZN14SafeBinaryRead22TransferWithTypeStringI19StaticArrayTransferIiLi200EEEEvRT_PKcS6_17TransferMetaFlags
1666:__ZN15SerializeTraitsI19StaticArrayTransferIiLi200EEE8TransferI14SafeBinaryReadEEvRS1_RT_
1667:__ZN14SafeBinaryRead21TransferSTLStyleArrayI19StaticArrayTransferIiLi200EEEEvRT_17TransferMetaFlags
1668:__ZN15SerializeTraitsI19StaticArrayTransferIiLi200EEE19ResizeSTLStyleArrayERS1_i
1669:__ZN31SerializeTraitsBaseForBasicTypeIiE8TransferI14SafeBinaryReadEEvRiRT_
1670:__ZN19StaticArrayTransferIiLi200EE7reserveEm
1671:__ZN14SafeBinaryRead22TransferWithTypeStringI9OffsetPtrIN7mecanim9animation4ClipEEEEvRT_PKcS9_17TransferMetaFlags
1672:__ZN15SerializeTraitsI9OffsetPtrIN7mecanim9animation4ClipEEE8TransferI14SafeBinaryReadEEvRS4_RT_
1673:__ZN14SafeBinaryRead8TransferIN7mecanim9animation4ClipEEEvRT_PKc17TransferMetaFlags
1674:__ZN14SafeBinaryRead22TransferWithTypeStringIN7mecanim9animation4ClipEEEvRT_PKcS7_17TransferMetaFlags
1675:__ZN15SerializeTraitsIN7mecanim9animation4ClipEE8TransferI14SafeBinaryReadEEvRS2_RT_
1676:__ZN7mecanim9animation4Clip8TransferI14SafeBinaryReadEEvRT_
1677:__ZN14SafeBinaryRead8TransferIN7mecanim9animation12StreamedClipEEEvRT_PKc17TransferMetaFlags
1678:__ZN14SafeBinaryRead8TransferIN7mecanim9animation9DenseClipEEEvRT_PKc17TransferMetaFlags
1679:__ZN14SafeBinaryRead8TransferIN7mecanim9animation12ConstantClipEEEvRT_PKc17TransferMetaFlags
1680:__ZN14SafeBinaryRead22TransferWithTypeStringIN7mecanim9animation12ConstantClipEEEvRT_PKcS7_17TransferMetaFlags
1681:__ZN15SerializeTraitsIN7mecanim9animation12ConstantClipEE8TransferI14SafeBinaryReadEEvRS2_RT_
1682:__ZN7mecanim9animation12ConstantClip8TransferI14SafeBinaryReadEEvRT_
1683:__ZN14SafeBinaryRead22TransferWithTypeStringIN7mecanim9animation9DenseClipEEEvRT_PKcS7_17TransferMetaFlags
1684:__ZN15SerializeTraitsIN7mecanim9animation9DenseClipEE8TransferI14SafeBinaryReadEEvRS2_RT_
1685:__ZN7mecanim9animation9DenseClip8TransferI14SafeBinaryReadEEvRT_
1686:__ZN14SafeBinaryRead22TransferWithTypeStringIN7mecanim9animation12StreamedClipEEEvRT_PKcS7_17TransferMetaFlags
1687:__ZN15SerializeTraitsIN7mecanim9animation12StreamedClipEE8TransferI14SafeBinaryReadEEvRS2_RT_
1688:__ZN7mecanim9animation12StreamedClip8TransferI14SafeBinaryReadEEvRT_
1689:__Z17TransferOffsetPtrI9OffsetPtrIjE14SafeBinaryReadEvRT_PKcRjRT0_
1690:__ZN14SafeBinaryRead8TransferI22OffsetPtrArrayTransferIjEEEvRT_PKc17TransferMetaFlags
1691:__ZN14SafeBinaryRead22TransferWithTypeStringI22OffsetPtrArrayTransferIjEEEvRT_PKcS6_17TransferMetaFlags
1692:__ZN15SerializeTraitsI22OffsetPtrArrayTransferIjEE8TransferI14SafeBinaryReadEEvRS1_RT_
1693:__ZN14SafeBinaryRead21TransferSTLStyleArrayI22OffsetPtrArrayTransferIjEEEvRT_17TransferMetaFlags
1694:__ZN14SafeBinaryRead22TransferWithTypeStringIKN4math7_float3EEEvRT_PKcS7_17TransferMetaFlags
1695:__ZN14SafeBinaryRead22TransferWithTypeStringIN4math4trsXEEEvRT_PKcS6_17TransferMetaFlags
1696:__ZN15SerializeTraitsIN4math4trsXEE8TransferI14SafeBinaryReadEEvRS1_RT_
1697:__ZN14SafeBinaryRead22TransferWithTypeStringIN7mecanim5human9HumanPoseEEEvRT_PKcS7_17TransferMetaFlags
1698:__ZN15SerializeTraitsIN7mecanim5human9HumanPoseEE8TransferI14SafeBinaryReadEEvRS2_RT_
1699:__ZN7mecanim5human9HumanPose8TransferI14SafeBinaryReadEEvRT_
1700:__ZN14SafeBinaryRead8TransferIKN4math7_float4EEEvRT_PKc17TransferMetaFlags
1701:__Z13TransferArrayILi4EN7mecanim5human9HumanGoalE14SafeBinaryReadEmRAT__T0_PKcRT1_
1702:__ZN14SafeBinaryRead8TransferIN7mecanim4hand8HandPoseEEEvRT_PKc17TransferMetaFlags
1703:__Z13TransferArrayILi55Ef14SafeBinaryReadEmRAT__T0_PKcRT1_
1704:__Z13TransferArrayILi21EKN4math7_float3E14SafeBinaryReadEmRAT__T0_PKcRT1_
1705:__ZN7mecanim5human9HumanPose30TransferBackwardsCompatibilityI14SafeBinaryReadEEvRT_m
1706:__ZN14SafeBinaryRead8TransferI19StaticArrayTransferIKN4math7_float3ELi21EEEEvRT_PKc17TransferMetaFlags
1707:__ZN14SafeBinaryRead22TransferWithTypeStringI19StaticArrayTransferIKN4math7_float3ELi21EEEEvRT_PKcS9_17TransferMetaFlags
1708:__ZN15SerializeTraitsI19StaticArrayTransferIKN4math7_float3ELi21EEE8TransferI14SafeBinaryReadEEvRS4_RT_
1709:__ZN14SafeBinaryRead21TransferSTLStyleArrayI19StaticArrayTransferIKN4math7_float3ELi21EEEEvRT_17TransferMetaFlags
1710:__ZN15SerializeTraitsI19StaticArrayTransferIKN4math7_float3ELi21EEE19ResizeSTLStyleArrayERS4_i
1711:__ZN19StaticArrayTransferIKN4math7_float3ELi21EE7reserveEm
1712:__ZN14SafeBinaryRead8TransferI19StaticArrayTransferIfLi55EEEEvRT_PKc17TransferMetaFlags
1713:__ZN14SafeBinaryRead22TransferWithTypeStringI19StaticArrayTransferIfLi55EEEEvRT_PKcS6_17TransferMetaFlags
1714:__ZN15SerializeTraitsI19StaticArrayTransferIfLi55EEE8TransferI14SafeBinaryReadEEvRS1_RT_
1715:__ZN14SafeBinaryRead21TransferSTLStyleArrayI19StaticArrayTransferIfLi55EEEEvRT_17TransferMetaFlags
1716:__ZN15SerializeTraitsI19StaticArrayTransferIfLi55EEE19ResizeSTLStyleArrayERS1_i
1717:__ZN31SerializeTraitsBaseForBasicTypeIfE8TransferI14SafeBinaryReadEEvRfRT_
1718:__ZN14SafeBinaryRead17TransferBasicDataIfEEvRT_
1719:__ZN12CachedReader4ReadIfEEvRT_m
1720:__Z15SwapEndianBytesRf
1721:__ZN19StaticArrayTransferIfLi55EE7reserveEm
1722:__ZN14SafeBinaryRead22TransferWithTypeStringIN7mecanim4hand8HandPoseEEEvRT_PKcS7_17TransferMetaFlags
1723:__ZN15SerializeTraitsIN7mecanim4hand8HandPoseEE8TransferI14SafeBinaryReadEEvRS2_RT_
1724:__ZN7mecanim4hand8HandPose8TransferI14SafeBinaryReadEEvRT_
1725:__Z13TransferArrayILi20Ef14SafeBinaryReadEmRAT__T0_PKcRT1_
1726:__ZN14SafeBinaryRead8TransferI19StaticArrayTransferIfLi20EEEEvRT_PKc17TransferMetaFlags
1727:__ZN14SafeBinaryRead22TransferWithTypeStringI19StaticArrayTransferIfLi20EEEEvRT_PKcS6_17TransferMetaFlags
1728:__ZN15SerializeTraitsI19StaticArrayTransferIfLi20EEE8TransferI14SafeBinaryReadEEvRS1_RT_
1729:__ZN14SafeBinaryRead21TransferSTLStyleArrayI19StaticArrayTransferIfLi20EEEEvRT_17TransferMetaFlags
1730:__ZN15SerializeTraitsI19StaticArrayTransferIfLi20EEE19ResizeSTLStyleArrayERS1_i
1731:__ZN19StaticArrayTransferIfLi20EE7reserveEm
1732:__ZN14SafeBinaryRead8TransferI19StaticArrayTransferIN7mecanim5human9HumanGoalELi4EEEEvRT_PKc17TransferMetaFlags
1733:__ZN14SafeBinaryRead22TransferWithTypeStringI19StaticArrayTransferIN7mecanim5human9HumanGoalELi4EEEEvRT_PKcS9_17TransferMetaFlags
1734:__ZN15SerializeTraitsI19StaticArrayTransferIN7mecanim5human9HumanGoalELi4EEE8TransferI14SafeBinaryReadEEvRS4_RT_
1735:__ZN14SafeBinaryRead21TransferSTLStyleArrayI19StaticArrayTransferIN7mecanim5human9HumanGoalELi4EEEEvRT_17TransferMetaFlags
1736:__ZN15SerializeTraitsI19StaticArrayTransferIN7mecanim5human9HumanGoalELi4EEE19ResizeSTLStyleArrayERS4_i
1737:__ZN15SerializeTraitsIN7mecanim5human9HumanGoalEE8TransferI14SafeBinaryReadEEvRS2_RT_
1738:__ZN14SafeBinaryRead8TransferIN7mecanim5human9HumanGoalEEEvRT_PKc17TransferMetaFlags
1739:__ZN14SafeBinaryRead22TransferWithTypeStringIN7mecanim5human9HumanGoalEEEvRT_PKcS7_17TransferMetaFlags
1740:__ZN7mecanim5human9HumanGoal8TransferI14SafeBinaryReadEEvRT_
1741:__ZN19StaticArrayTransferIN7mecanim5human9HumanGoalELi4EE7reserveEm
1742:__ZN14SafeBinaryRead22TransferWithTypeStringIKN4math7_float4EEEvRT_PKcS7_17TransferMetaFlags
1743:__ZN14SafeBinaryRead22TransferWithTypeStringIiEEvRT_PKcS4_17TransferMetaFlags
1744:__ZN4coreeqERKNS_12basic_stringIcNS_20StringStorageDefaultIcEEEES5_
1745:__ZN4core12basic_stringIcNS_20StringStorageDefaultIcEEEaSEPKc
1746:__ZN14SafeBinaryRead22TransferWithTypeStringI4AABBEEvRT_PKcS5_17TransferMetaFlags
1747:__ZN15SerializeTraitsI4AABBE8TransferI14SafeBinaryReadEEvRS0_RT_
1748:__ZN10EnumTraits5ToIntI8WrapModeEEiT_
1749:__ZN14SafeBinaryRead22TransferWithTypeStringIfEEvRT_PKcS4_17TransferMetaFlags
1750:__ZN14SafeBinaryRead22TransferWithTypeStringINSt3__26vectorIN13AnimationClip9PPtrCurveE13stl_allocatorIS4_L18MemLabelIdentifier30ELi16EEEEEEvRT_PKcSC_17TransferMetaFlags
1751:__ZN15SerializeTraitsINSt3__26vectorIN13AnimationClip9PPtrCurveE13stl_allocatorIS3_L18MemLabelIdentifier30ELi16EEEEE8TransferI14SafeBinaryReadEEvRS7_RT_
1752:__ZN14SafeBinaryRead21TransferSTLStyleArrayINSt3__26vectorIN13AnimationClip9PPtrCurveE13stl_allocatorIS4_L18MemLabelIdentifier30ELi16EEEEEEvRT_17TransferMetaFlags
1753:__ZN15SerializeTraitsINSt3__26vectorIN13AnimationClip9PPtrCurveE13stl_allocatorIS3_L18MemLabelIdentifier30ELi16EEEEE19ResizeSTLStyleArrayERS7_i
1754:__ZN15SerializeTraitsIN13AnimationClip9PPtrCurveEE8TransferI14SafeBinaryReadEEvRS1_RT_
1755:__ZN14SafeBinaryRead8TransferIN13AnimationClip9PPtrCurveEEEvRT_PKc17TransferMetaFlags
1756:__ZN14SafeBinaryRead22TransferWithTypeStringIN13AnimationClip9PPtrCurveEEEvRT_PKcS6_17TransferMetaFlags
1757:__ZN13AnimationClip9PPtrCurve8TransferI14SafeBinaryReadEEvRT_
1758:__ZN14SafeBinaryRead8TransferI13dynamic_arrayI12PPtrKeyframeLm0EEEEvRT_PKc17TransferMetaFlags
1759:__ZN14SafeBinaryRead8TransferIN4core12basic_stringIcNS1_20StringStorageDefaultIcEEEEEEvRT_PKc17TransferMetaFlags
1760:__ZN14SafeBinaryRead8TransferI4PPtrI10MonoScriptEEEvRT_PKc17TransferMetaFlags
1761:__ZN14SafeBinaryRead22TransferWithTypeStringIN4core12basic_stringIcNS1_20StringStorageDefaultIcEEEEEEvRT_PKcS9_17TransferMetaFlags
1762:__ZN29SerializeTraitsForStringTypesIN4core12basic_stringIcNS0_20StringStorageDefaultIcEEEEE8TransferI14SafeBinaryReadEEvRS4_RT_
1763:__ZN14SafeBinaryRead22TransferWithTypeStringI13dynamic_arrayI12PPtrKeyframeLm0EEEEvRT_PKcS7_17TransferMetaFlags
1764:__ZN15SerializeTraitsI13dynamic_arrayI12PPtrKeyframeLm0EEE8TransferI14SafeBinaryReadEEvRS2_RT_
1765:__ZN14SafeBinaryRead21TransferSTLStyleArrayI13dynamic_arrayI12PPtrKeyframeLm0EEEEvRT_17TransferMetaFlags
1766:__ZN15SerializeTraitsI13dynamic_arrayI12PPtrKeyframeLm0EEE19ResizeSTLStyleArrayERS2_i
1767:__ZN15SerializeTraitsI12PPtrKeyframeE8TransferI14SafeBinaryReadEEvRS0_RT_
1768:__ZN14SafeBinaryRead8TransferI12PPtrKeyframeEEvRT_PKc17TransferMetaFlags
1769:__ZN14SafeBinaryRead22TransferWithTypeStringI12PPtrKeyframeEEvRT_PKcS5_17TransferMetaFlags
1770:__ZN12PPtrKeyframe8TransferI14SafeBinaryReadEEvRT_
1771:__ZN13dynamic_arrayI12PPtrKeyframeLm0EE18resize_initializedEm12ResizePolicy
1772:__Z29default_construct_n_autolabelI12PPtrKeyframeEvPT_m10MemLabelId
1773:__Z27default_construct_autolabelI12PPtrKeyframeEvPT_10MemLabelId
1774:__ZN15AllocatorTraitsI12PPtrKeyframeLb0EE9ConstructEPS0_10MemLabelId
1775:__ZN12PPtrKeyframeC2Ev
1776:__Z14resize_trimmedINSt3__26vectorIN13AnimationClip9PPtrCurveE13stl_allocatorIS3_L18MemLabelIdentifier30ELi16EEEEEvRT_j
1777:__ZNSt3__26vectorIN13AnimationClip9PPtrCurveE13stl_allocatorIS2_L18MemLabelIdentifier30ELi16EEE7reserveEm
1778:__ZNSt3__26vectorIN13AnimationClip9PPtrCurveE13stl_allocatorIS2_L18MemLabelIdentifier30ELi16EEE6assignINS_11__wrap_iterIPS2_EEEENS_9enable_ifIXaasr21__is_forward_iteratorIT_EE5valuesr16is_constructibleIS2_NS_15iterator_traitsISC_E9referenceEEE5valueEvE4typeESC_SC_
1779:__ZNSt3__26vectorIN13AnimationClip9PPtrCurveE13stl_allocatorIS2_L18MemLabelIdentifier30ELi16EEE6resizeEm
1780:__ZNSt3__26vectorIN13AnimationClip9PPtrCurveE13stl_allocatorIS2_L18MemLabelIdentifier30ELi16EEED2Ev
1781:__ZNSt3__26vectorIN13AnimationClip9PPtrCurveE13stl_allocatorIS2_L18MemLabelIdentifier30ELi16EEEC2INS_11__wrap_iterIPS2_EEEET_SB_RKS5_PNS_9enable_ifIXaasr21__is_forward_iteratorISB_EE5valuesr16is_constructibleIS2_NS_15iterator_traitsISB_E9referenceEEE5valueEvE4typeE
1782:__ZNSt3__26vectorIN13AnimationClip9PPtrCurveE13stl_allocatorIS2_L18MemLabelIdentifier30ELi16EEE8allocateEm
1783:__ZNSt3__26vectorIN13AnimationClip9PPtrCurveE13stl_allocatorIS2_L18MemLabelIdentifier30ELi16EEE18__construct_at_endINS_11__wrap_iterIPS2_EEEENS_9enable_ifIXsr21__is_forward_iteratorIT_EE5valueEvE4typeESC_SC_m
1784:__ZNSt3__213__vector_baseIN13AnimationClip9PPtrCurveE13stl_allocatorIS2_L18MemLabelIdentifier30ELi16EEED2Ev
1785:__ZNSt3__26vectorIN13AnimationClip9PPtrCurveE13stl_allocatorIS2_L18MemLabelIdentifier30ELi16EEE8__appendEm
1786:__ZNSt3__26vectorIN13AnimationClip9PPtrCurveE13stl_allocatorIS2_L18MemLabelIdentifier30ELi16EEE18__construct_at_endEm
1787:__ZNSt3__214__split_bufferIN13AnimationClip9PPtrCurveER13stl_allocatorIS2_L18MemLabelIdentifier30ELi16EEE18__construct_at_endEm
1788:__ZN13AnimationClip9PPtrCurveaSERKS0_
1789:__ZNSt3__26vectorIN13AnimationClip9PPtrCurveE13stl_allocatorIS2_L18MemLabelIdentifier30ELi16EEE10deallocateEv
1790:__ZN14SafeBinaryRead22TransferWithTypeStringINSt3__26vectorIN13AnimationClip10FloatCurveE13stl_allocatorIS4_L18MemLabelIdentifier30ELi16EEEEEEvRT_PKcSC_17TransferMetaFlags
1791:__ZN15SerializeTraitsINSt3__26vectorIN13AnimationClip10FloatCurveE13stl_allocatorIS3_L18MemLabelIdentifier30ELi16EEEEE8TransferI14SafeBinaryReadEEvRS7_RT_
1792:__ZN14SafeBinaryRead21TransferSTLStyleArrayINSt3__26vectorIN13AnimationClip10FloatCurveE13stl_allocatorIS4_L18MemLabelIdentifier30ELi16EEEEEEvRT_17TransferMetaFlags
1793:__ZN15SerializeTraitsINSt3__26vectorIN13AnimationClip10FloatCurveE13stl_allocatorIS3_L18MemLabelIdentifier30ELi16EEEEE19ResizeSTLStyleArrayERS7_i
1794:__ZN15SerializeTraitsIN13AnimationClip10FloatCurveEE8TransferI14SafeBinaryReadEEvRS1_RT_
1795:__ZN14SafeBinaryRead8TransferIN13AnimationClip10FloatCurveEEEvRT_PKc17TransferMetaFlags
1796:__ZN14SafeBinaryRead22TransferWithTypeStringIN13AnimationClip10FloatCurveEEEvRT_PKcS6_17TransferMetaFlags
1797:__ZN13AnimationClip10FloatCurve8TransferI14SafeBinaryReadEEvRT_
1798:__ZN14SafeBinaryRead8TransferI17AnimationCurveTplIfEEEvRT_PKc17TransferMetaFlags
1799:__ZN14SafeBinaryRead22TransferWithTypeStringI17AnimationCurveTplIfEEEvRT_PKcS6_17TransferMetaFlags
1800:__ZN15SerializeTraitsI17AnimationCurveTplIfEE8TransferI14SafeBinaryReadEEvRS1_RT_
1801:__ZN17AnimationCurveTplIfE8TransferI14SafeBinaryReadEEvRT_
1802:__ZN14SafeBinaryRead8TransferI13dynamic_arrayI11KeyframeTplIfELm0EEEEvRT_PKc17TransferMetaFlags
1803:__ZN14SafeBinaryRead22TransferWithTypeStringI13dynamic_arrayI11KeyframeTplIfELm0EEEEvRT_PKcS8_17TransferMetaFlags
1804:__ZN15SerializeTraitsI13dynamic_arrayI11KeyframeTplIfELm0EEE8TransferI14SafeBinaryReadEEvRS3_RT_
1805:__ZN14SafeBinaryRead21TransferSTLStyleArrayI13dynamic_arrayI11KeyframeTplIfELm0EEEEvRT_17TransferMetaFlags
1806:__ZN15SerializeTraitsI13dynamic_arrayI11KeyframeTplIfELm0EEE19ResizeSTLStyleArrayERS3_i
1807:__ZN15SerializeTraitsI11KeyframeTplIfEE8TransferI14SafeBinaryReadEEvRS1_RT_
1808:__ZN14SafeBinaryRead8TransferI11KeyframeTplIfEEEvRT_PKc17TransferMetaFlags
1809:__ZN14SafeBinaryRead22TransferWithTypeStringI11KeyframeTplIfEEEvRT_PKcS6_17TransferMetaFlags
1810:__ZN11KeyframeTplIfE8TransferI14SafeBinaryReadEEvRT_
1811:__ZN13dynamic_arrayI11KeyframeTplIfELm0EE18resize_initializedEm12ResizePolicy
1812:__Z29default_construct_n_autolabelI11KeyframeTplIfEEvPT_m10MemLabelId
1813:__Z27default_construct_autolabelI11KeyframeTplIfEEvPT_10MemLabelId
1814:__ZN15AllocatorTraitsI11KeyframeTplIfELb0EE9ConstructEPS1_10MemLabelId
1815:__ZN11KeyframeTplIfEC2Ev
1816:__Z14resize_trimmedINSt3__26vectorIN13AnimationClip10FloatCurveE13stl_allocatorIS3_L18MemLabelIdentifier30ELi16EEEEEvRT_j
1817:__ZNSt3__26vectorIN13AnimationClip10FloatCurveE13stl_allocatorIS2_L18MemLabelIdentifier30ELi16EEE7reserveEm
1818:__ZNSt3__26vectorIN13AnimationClip10FloatCurveE13stl_allocatorIS2_L18MemLabelIdentifier30ELi16EEE6assignINS_11__wrap_iterIPS2_EEEENS_9enable_ifIXaasr21__is_forward_iteratorIT_EE5valuesr16is_constructibleIS2_NS_15iterator_traitsISC_E9referenceEEE5valueEvE4typeESC_SC_
1819:__ZNSt3__26vectorIN13AnimationClip10FloatCurveE13stl_allocatorIS2_L18MemLabelIdentifier30ELi16EEE6resizeEm
1820:__ZNSt3__26vectorIN13AnimationClip10FloatCurveE13stl_allocatorIS2_L18MemLabelIdentifier30ELi16EEED2Ev
1821:__ZNSt3__26vectorIN13AnimationClip10FloatCurveE13stl_allocatorIS2_L18MemLabelIdentifier30ELi16EEEC2INS_11__wrap_iterIPS2_EEEET_SB_RKS5_PNS_9enable_ifIXaasr21__is_forward_iteratorISB_EE5valuesr16is_constructibleIS2_NS_15iterator_traitsISB_E9referenceEEE5valueEvE4typeE
1822:__ZNSt3__26vectorIN13AnimationClip10FloatCurveE13stl_allocatorIS2_L18MemLabelIdentifier30ELi16EEE8allocateEm
1823:__ZNSt3__26vectorIN13AnimationClip10FloatCurveE13stl_allocatorIS2_L18MemLabelIdentifier30ELi16EEE18__construct_at_endINS_11__wrap_iterIPS2_EEEENS_9enable_ifIXsr21__is_forward_iteratorIT_EE5valueEvE4typeESC_SC_m
1824:__ZNSt3__213__vector_baseIN13AnimationClip10FloatCurveE13stl_allocatorIS2_L18MemLabelIdentifier30ELi16EEED2Ev
1825:__ZNSt3__26vectorIN13AnimationClip10FloatCurveE13stl_allocatorIS2_L18MemLabelIdentifier30ELi16EEE8__appendEm
1826:__ZNSt3__26vectorIN13AnimationClip10FloatCurveE13stl_allocatorIS2_L18MemLabelIdentifier30ELi16EEE18__construct_at_endEm
1827:__ZNSt3__214__split_bufferIN13AnimationClip10FloatCurveER13stl_allocatorIS2_L18MemLabelIdentifier30ELi16EEE18__construct_at_endEm
1828:__ZN13AnimationClip10FloatCurveaSERKS0_
1829:__ZNSt3__26vectorIN13AnimationClip10FloatCurveE13stl_allocatorIS2_L18MemLabelIdentifier30ELi16EEE10deallocateEv
1830:__ZN14SafeBinaryRead22TransferWithTypeStringINSt3__26vectorIN13AnimationClip12Vector3CurveE13stl_allocatorIS4_L18MemLabelIdentifier30ELi16EEEEEEvRT_PKcSC_17TransferMetaFlags
1831:__ZN15SerializeTraitsINSt3__26vectorIN13AnimationClip12Vector3CurveE13stl_allocatorIS3_L18MemLabelIdentifier30ELi16EEEEE8TransferI14SafeBinaryReadEEvRS7_RT_
1832:__ZN14SafeBinaryRead21TransferSTLStyleArrayINSt3__26vectorIN13AnimationClip12Vector3CurveE13stl_allocatorIS4_L18MemLabelIdentifier30ELi16EEEEEEvRT_17TransferMetaFlags
1833:__ZN15SerializeTraitsINSt3__26vectorIN13AnimationClip12Vector3CurveE13stl_allocatorIS3_L18MemLabelIdentifier30ELi16EEEEE19ResizeSTLStyleArrayERS7_i
1834:__ZN15SerializeTraitsIN13AnimationClip12Vector3CurveEE8TransferI14SafeBinaryReadEEvRS1_RT_
1835:__ZN14SafeBinaryRead8TransferIN13AnimationClip12Vector3CurveEEEvRT_PKc17TransferMetaFlags
1836:__ZN14SafeBinaryRead22TransferWithTypeStringIN13AnimationClip12Vector3CurveEEEvRT_PKcS6_17TransferMetaFlags
1837:__ZN13AnimationClip12Vector3Curve8TransferI14SafeBinaryReadEEvRT_
1838:__ZN14SafeBinaryRead8TransferI17AnimationCurveTplI8Vector3fEEEvRT_PKc17TransferMetaFlags
1839:__ZN14SafeBinaryRead22TransferWithTypeStringI17AnimationCurveTplI8Vector3fEEEvRT_PKcS7_17TransferMetaFlags
1840:__ZN15SerializeTraitsI17AnimationCurveTplI8Vector3fEE8TransferI14SafeBinaryReadEEvRS2_RT_
1841:__ZN17AnimationCurveTplI8Vector3fE8TransferI14SafeBinaryReadEEvRT_
1842:__ZN14SafeBinaryRead8TransferI13dynamic_arrayI11KeyframeTplI8Vector3fELm0EEEEvRT_PKc17TransferMetaFlags
1843:__ZN14SafeBinaryRead22TransferWithTypeStringI13dynamic_arrayI11KeyframeTplI8Vector3fELm0EEEEvRT_PKcS9_17TransferMetaFlags
1844:__ZN15SerializeTraitsI13dynamic_arrayI11KeyframeTplI8Vector3fELm0EEE8TransferI14SafeBinaryReadEEvRS4_RT_
1845:__ZN14SafeBinaryRead21TransferSTLStyleArrayI13dynamic_arrayI11KeyframeTplI8Vector3fELm0EEEEvRT_17TransferMetaFlags
1846:__ZN15SerializeTraitsI13dynamic_arrayI11KeyframeTplI8Vector3fELm0EEE19ResizeSTLStyleArrayERS4_i
1847:__ZN15SerializeTraitsI11KeyframeTplI8Vector3fEE8TransferI14SafeBinaryReadEEvRS2_RT_
1848:__ZN14SafeBinaryRead8TransferI11KeyframeTplI8Vector3fEEEvRT_PKc17TransferMetaFlags
1849:__ZN14SafeBinaryRead22TransferWithTypeStringI11KeyframeTplI8Vector3fEEEvRT_PKcS7_17TransferMetaFlags
1850:__ZN11KeyframeTplI8Vector3fE8TransferI14SafeBinaryReadEEvRT_
1851:__ZN14SafeBinaryRead8TransferI8Vector3fEEvRT_PKc17TransferMetaFlags
1852:__ZN14SafeBinaryRead22TransferWithTypeStringI8Vector3fEEvRT_PKcS5_17TransferMetaFlags
1853:__ZN15SerializeTraitsI8Vector3fE8TransferI14SafeBinaryReadEEvRS0_RT_
1854:__ZN13dynamic_arrayI11KeyframeTplI8Vector3fELm0EE18resize_initializedEm12ResizePolicy
1855:__Z29default_construct_n_autolabelI11KeyframeTplI8Vector3fEEvPT_m10MemLabelId
1856:__Z27default_construct_autolabelI11KeyframeTplI8Vector3fEEvPT_10MemLabelId
1857:__ZN15AllocatorTraitsI11KeyframeTplI8Vector3fELb0EE9ConstructEPS2_10MemLabelId
1858:__ZN11KeyframeTplI8Vector3fEC2Ev
1859:__ZL4ZeroI8Vector3fET_v
1860:__ZL13DefaultWeightI8Vector3fET_v
1861:__ZN8Vector3fC2Efff
1862:__Z14resize_trimmedINSt3__26vectorIN13AnimationClip12Vector3CurveE13stl_allocatorIS3_L18MemLabelIdentifier30ELi16EEEEEvRT_j
1863:__ZNSt3__26vectorIN13AnimationClip12Vector3CurveE13stl_allocatorIS2_L18MemLabelIdentifier30ELi16EEE7reserveEm
1864:__ZNSt3__26vectorIN13AnimationClip12Vector3CurveE13stl_allocatorIS2_L18MemLabelIdentifier30ELi16EEE6assignINS_11__wrap_iterIPS2_EEEENS_9enable_ifIXaasr21__is_forward_iteratorIT_EE5valuesr16is_constructibleIS2_NS_15iterator_traitsISC_E9referenceEEE5valueEvE4typeESC_SC_
1865:__ZNSt3__26vectorIN13AnimationClip12Vector3CurveE13stl_allocatorIS2_L18MemLabelIdentifier30ELi16EEE6resizeEm
1866:__ZNSt3__26vectorIN13AnimationClip12Vector3CurveE13stl_allocatorIS2_L18MemLabelIdentifier30ELi16EEED2Ev
1867:__ZNSt3__26vectorIN13AnimationClip12Vector3CurveE13stl_allocatorIS2_L18MemLabelIdentifier30ELi16EEEC2INS_11__wrap_iterIPS2_EEEET_SB_RKS5_PNS_9enable_ifIXaasr21__is_forward_iteratorISB_EE5valuesr16is_constructibleIS2_NS_15iterator_traitsISB_E9referenceEEE5valueEvE4typeE
1868:__ZNSt3__26vectorIN13AnimationClip12Vector3CurveE13stl_allocatorIS2_L18MemLabelIdentifier30ELi16EEE8allocateEm
1869:__ZNSt3__26vectorIN13AnimationClip12Vector3CurveE13stl_allocatorIS2_L18MemLabelIdentifier30ELi16EEE18__construct_at_endINS_11__wrap_iterIPS2_EEEENS_9enable_ifIXsr21__is_forward_iteratorIT_EE5valueEvE4typeESC_SC_m
1870:__ZNSt3__213__vector_baseIN13AnimationClip12Vector3CurveE13stl_allocatorIS2_L18MemLabelIdentifier30ELi16EEED2Ev
1871:__ZNSt3__26vectorIN13AnimationClip12Vector3CurveE13stl_allocatorIS2_L18MemLabelIdentifier30ELi16EEE8__appendEm
1872:__ZNSt3__26vectorIN13AnimationClip12Vector3CurveE13stl_allocatorIS2_L18MemLabelIdentifier30ELi16EEE18__construct_at_endEm
1873:__ZNSt3__214__split_bufferIN13AnimationClip12Vector3CurveER13stl_allocatorIS2_L18MemLabelIdentifier30ELi16EEE18__construct_at_endEm
1874:__ZN13AnimationClip12Vector3CurveaSERKS0_
1875:__ZNSt3__26vectorIN13AnimationClip12Vector3CurveE13stl_allocatorIS2_L18MemLabelIdentifier30ELi16EEE10deallocateEv
1876:__ZNSt3__213__vector_baseIN13AnimationClip15QuaternionCurveE13stl_allocatorIS2_L18MemLabelIdentifier30ELi16EEED2Ev
1877:__ZNSt3__26vectorIN13AnimationClip15QuaternionCurveE13stl_allocatorIS2_L18MemLabelIdentifier30ELi16EEE6resizeEm
1878:__ZNSt3__26vectorIN13AnimationClip15QuaternionCurveE13stl_allocatorIS2_L18MemLabelIdentifier30ELi16EEE8__appendEm
1879:__ZNSt3__26vectorIN13AnimationClip15QuaternionCurveE13stl_allocatorIS2_L18MemLabelIdentifier30ELi16EEE18__construct_at_endEm
1880:__ZNSt3__214__split_bufferIN13AnimationClip15QuaternionCurveER13stl_allocatorIS2_L18MemLabelIdentifier30ELi16EEE18__construct_at_endEm
1881:__ZNSt3__26vectorI24CompressedAnimationCurve13stl_allocatorIS1_L18MemLabelIdentifier30ELi16EEE6resizeEm
1882:__ZNK17AnimationCurveTplI11QuaternionfE11GetKeyCountEv
1883:__ZN17AnimationCurveTplI11QuaternionfE6GetKeyEi
1884:__ZN13dynamic_arrayI11KeyframeTplI11QuaternionfELm0EEixEm
1885:__ZNSt3__26vectorI24CompressedAnimationCurve13stl_allocatorIS1_L18MemLabelIdentifier30ELi16EEE8__appendEm
1886:__ZN13stl_allocatorI24CompressedAnimationCurveL18MemLabelIdentifier30ELi16EE7destroyEPS0_
1887:__ZN24CompressedAnimationCurveD2Ev
1888:__ZN17PackedFloatVectorD2Ev
1889:__ZN16PackedQuatVectorD2Ev
1890:__ZN15PackedIntVectorD2Ev
1891:__ZNSt3__26vectorI24CompressedAnimationCurve13stl_allocatorIS1_L18MemLabelIdentifier30ELi16EEE18__construct_at_endEm
1892:__ZNSt3__214__split_bufferI24CompressedAnimationCurveR13stl_allocatorIS1_L18MemLabelIdentifier30ELi16EEEC2EmmS5_
1893:__ZNSt3__214__split_bufferI24CompressedAnimationCurveR13stl_allocatorIS1_L18MemLabelIdentifier30ELi16EEE18__construct_at_endEm
1894:__ZNSt3__26vectorI24CompressedAnimationCurve13stl_allocatorIS1_L18MemLabelIdentifier30ELi16EEE26__swap_out_circular_bufferERNS_14__split_bufferIS1_RS4_EE
1895:__ZNSt3__214__split_bufferI24CompressedAnimationCurveR13stl_allocatorIS1_L18MemLabelIdentifier30ELi16EEED2Ev
1896:__ZN13stl_allocatorI24CompressedAnimationCurveL18MemLabelIdentifier30ELi16EE9constructEPS0_RKS0_
1897:__ZN24CompressedAnimationCurveC2ERKS_
1898:__ZN15PackedIntVectorC2ERKS_
1899:__ZN16PackedQuatVectorC2ERKS_
1900:__ZN17PackedFloatVectorC2ERKS_
1901:__ZN13dynamic_arrayIhLm0EEC2ERKS0_
1902:__ZNK13dynamic_arrayIhLm0EE3endEv
1903:__ZN13dynamic_arrayIhLm0EE6assignEPKhS2_
1904:__Z30copy_construct_array_autolabelIhEvPT_mPKS0_10MemLabelId
1905:__ZN24CompressedAnimationCurveC2Ev
1906:__ZN15PackedIntVectorC2Ev
1907:__ZN16PackedQuatVectorC2Ev
1908:__ZN17PackedFloatVectorC2Ev
1909:__ZN13stl_allocatorI24CompressedAnimationCurveL18MemLabelIdentifier30ELi16EE8allocateEmPKv
1910:__ZNSt3__213__vector_baseI24CompressedAnimationCurve13stl_allocatorIS1_L18MemLabelIdentifier30ELi16EEED2Ev
1911:__ZN14SafeBinaryRead22TransferWithTypeStringINSt3__26vectorI24CompressedAnimationCurve13stl_allocatorIS3_L18MemLabelIdentifier30ELi16EEEEEEvRT_PKcSB_17TransferMetaFlags
1912:__ZN15SerializeTraitsINSt3__26vectorI24CompressedAnimationCurve13stl_allocatorIS2_L18MemLabelIdentifier30ELi16EEEEE8TransferI14SafeBinaryReadEEvRS6_RT_
1913:__ZN14SafeBinaryRead21TransferSTLStyleArrayINSt3__26vectorI24CompressedAnimationCurve13stl_allocatorIS3_L18MemLabelIdentifier30ELi16EEEEEEvRT_17TransferMetaFlags
1914:__ZN15SerializeTraitsINSt3__26vectorI24CompressedAnimationCurve13stl_allocatorIS2_L18MemLabelIdentifier30ELi16EEEEE19ResizeSTLStyleArrayERS6_i
1915:__ZN15SerializeTraitsI24CompressedAnimationCurveE8TransferI14SafeBinaryReadEEvRS0_RT_
1916:__ZN14SafeBinaryRead8TransferI24CompressedAnimationCurveEEvRT_PKc17TransferMetaFlags
1917:__ZN14SafeBinaryRead22TransferWithTypeStringI24CompressedAnimationCurveEEvRT_PKcS5_17TransferMetaFlags
1918:__ZN24CompressedAnimationCurve8TransferI14SafeBinaryReadEEvRT_
1919:__ZN14SafeBinaryRead8TransferI15PackedIntVectorEEvRT_PKc17TransferMetaFlags
1920:__ZN14SafeBinaryRead8TransferI16PackedQuatVectorEEvRT_PKc17TransferMetaFlags
1921:__ZN14SafeBinaryRead8TransferI17PackedFloatVectorEEvRT_PKc17TransferMetaFlags
1922:__ZN14SafeBinaryRead22TransferWithTypeStringI17PackedFloatVectorEEvRT_PKcS5_17TransferMetaFlags
1923:__ZN15SerializeTraitsI17PackedFloatVectorE8TransferI14SafeBinaryReadEEvRS0_RT_
1924:__ZN17PackedFloatVector8TransferI14SafeBinaryReadEEvRT_
1925:__ZN14SafeBinaryRead8TransferI13dynamic_arrayIhLm0EEEEvRT_PKc17TransferMetaFlags
1926:__ZN14SafeBinaryRead22TransferWithTypeStringI13dynamic_arrayIhLm0EEEEvRT_PKcS6_17TransferMetaFlags
1927:__ZN15SerializeTraitsI13dynamic_arrayIhLm0EEE8TransferI14SafeBinaryReadEEvRS1_RT_
1928:__ZN14SafeBinaryRead22TransferWithTypeStringI16PackedQuatVectorEEvRT_PKcS5_17TransferMetaFlags
1929:__ZN15SerializeTraitsI16PackedQuatVectorE8TransferI14SafeBinaryReadEEvRS0_RT_
1930:__ZN16PackedQuatVector8TransferI14SafeBinaryReadEEvRT_
1931:__ZN14SafeBinaryRead22TransferWithTypeStringI15PackedIntVectorEEvRT_PKcS5_17TransferMetaFlags
1932:__ZN15SerializeTraitsI15PackedIntVectorE8TransferI14SafeBinaryReadEEvRS0_RT_
1933:__ZN15PackedIntVector8TransferI14SafeBinaryReadEEvRT_
1934:__Z14resize_trimmedINSt3__26vectorI24CompressedAnimationCurve13stl_allocatorIS2_L18MemLabelIdentifier30ELi16EEEEEvRT_j
1935:__ZNSt3__26vectorI24CompressedAnimationCurve13stl_allocatorIS1_L18MemLabelIdentifier30ELi16EEE7reserveEm
1936:__ZNSt3__26vectorI24CompressedAnimationCurve13stl_allocatorIS1_L18MemLabelIdentifier30ELi16EEE6assignINS_11__wrap_iterIPS1_EEEENS_9enable_ifIXaasr21__is_forward_iteratorIT_EE5valuesr16is_constructibleIS1_NS_15iterator_traitsISB_E9referenceEEE5valueEvE4typeESB_SB_
1937:__ZNSt3__26vectorI24CompressedAnimationCurve13stl_allocatorIS1_L18MemLabelIdentifier30ELi16EEEC2INS_11__wrap_iterIPS1_EEEET_SA_RKS4_PNS_9enable_ifIXaasr21__is_forward_iteratorISA_EE5valuesr16is_constructibleIS1_NS_15iterator_traitsISA_E9referenceEEE5valueEvE4typeE
1938:__ZNSt3__26vectorI24CompressedAnimationCurve13stl_allocatorIS1_L18MemLabelIdentifier30ELi16EEE8allocateEm
1939:__ZNSt3__26vectorI24CompressedAnimationCurve13stl_allocatorIS1_L18MemLabelIdentifier30ELi16EEE18__construct_at_endINS_11__wrap_iterIPS1_EEEENS_9enable_ifIXsr21__is_forward_iteratorIT_EE5valueEvE4typeESB_SB_m
1940:__ZN24CompressedAnimationCurveaSERKS_
1941:__ZNSt3__26vectorI24CompressedAnimationCurve13stl_allocatorIS1_L18MemLabelIdentifier30ELi16EEE10deallocateEv
1942:__ZN15PackedIntVectoraSERKS_
1943:__ZN16PackedQuatVectoraSERKS_
1944:__ZN17PackedFloatVectoraSERKS_
1945:__ZN13dynamic_arrayIhLm0EEaSERKS0_
1946:__ZN14SafeBinaryRead22TransferWithTypeStringINSt3__26vectorIN13AnimationClip15QuaternionCurveE13stl_allocatorIS4_L18MemLabelIdentifier30ELi16EEEEEEvRT_PKcSC_17TransferMetaFlags
1947:__ZN15SerializeTraitsINSt3__26vectorIN13AnimationClip15QuaternionCurveE13stl_allocatorIS3_L18MemLabelIdentifier30ELi16EEEEE8TransferI14SafeBinaryReadEEvRS7_RT_
1948:__ZN14SafeBinaryRead21TransferSTLStyleArrayINSt3__26vectorIN13AnimationClip15QuaternionCurveE13stl_allocatorIS4_L18MemLabelIdentifier30ELi16EEEEEEvRT_17TransferMetaFlags
1949:__ZN15SerializeTraitsINSt3__26vectorIN13AnimationClip15QuaternionCurveE13stl_allocatorIS3_L18MemLabelIdentifier30ELi16EEEEE19ResizeSTLStyleArrayERS7_i
1950:__ZN15SerializeTraitsIN13AnimationClip15QuaternionCurveEE8TransferI14SafeBinaryReadEEvRS1_RT_
1951:__ZN14SafeBinaryRead8TransferIN13AnimationClip15QuaternionCurveEEEvRT_PKc17TransferMetaFlags
1952:__ZN14SafeBinaryRead22TransferWithTypeStringIN13AnimationClip15QuaternionCurveEEEvRT_PKcS6_17TransferMetaFlags
1953:__ZN13AnimationClip15QuaternionCurve8TransferI14SafeBinaryReadEEvRT_
1954:__ZN14SafeBinaryRead8TransferI17AnimationCurveTplI11QuaternionfEEEvRT_PKc17TransferMetaFlags
1955:__ZN14SafeBinaryRead22TransferWithTypeStringI17AnimationCurveTplI11QuaternionfEEEvRT_PKcS7_17TransferMetaFlags
1956:__ZN15SerializeTraitsI17AnimationCurveTplI11QuaternionfEE8TransferI14SafeBinaryReadEEvRS2_RT_
1957:__ZN17AnimationCurveTplI11QuaternionfE8TransferI14SafeBinaryReadEEvRT_
1958:__ZN14SafeBinaryRead8TransferI13dynamic_arrayI11KeyframeTplI11QuaternionfELm0EEEEvRT_PKc17TransferMetaFlags
1959:__ZN14SafeBinaryRead22TransferWithTypeStringI13dynamic_arrayI11KeyframeTplI11QuaternionfELm0EEEEvRT_PKcS9_17TransferMetaFlags
1960:__ZN15SerializeTraitsI13dynamic_arrayI11KeyframeTplI11QuaternionfELm0EEE8TransferI14SafeBinaryReadEEvRS4_RT_
1961:__ZN14SafeBinaryRead21TransferSTLStyleArrayI13dynamic_arrayI11KeyframeTplI11QuaternionfELm0EEEEvRT_17TransferMetaFlags
1962:__ZN15SerializeTraitsI13dynamic_arrayI11KeyframeTplI11QuaternionfELm0EEE19ResizeSTLStyleArrayERS4_i
1963:__ZN15SerializeTraitsI11KeyframeTplI11QuaternionfEE8TransferI14SafeBinaryReadEEvRS2_RT_
1964:__ZN14SafeBinaryRead8TransferI11KeyframeTplI11QuaternionfEEEvRT_PKc17TransferMetaFlags
1965:__ZN14SafeBinaryRead22TransferWithTypeStringI11KeyframeTplI11QuaternionfEEEvRT_PKcS7_17TransferMetaFlags
1966:__ZN11KeyframeTplI11QuaternionfE8TransferI14SafeBinaryReadEEvRT_
1967:__ZN14SafeBinaryRead8TransferI11QuaternionfEEvRT_PKc17TransferMetaFlags
1968:__ZN14SafeBinaryRead22TransferWithTypeStringI11QuaternionfEEvRT_PKcS5_17TransferMetaFlags
1969:__ZN15SerializeTraitsI11QuaternionfE8TransferI14SafeBinaryReadEEvRS0_RT_
1970:__ZN13dynamic_arrayI11KeyframeTplI11QuaternionfELm0EE18resize_initializedEm12ResizePolicy
1971:__Z29default_construct_n_autolabelI11KeyframeTplI11QuaternionfEEvPT_m10MemLabelId
1972:__Z27default_construct_autolabelI11KeyframeTplI11QuaternionfEEvPT_10MemLabelId
1973:__ZN15AllocatorTraitsI11KeyframeTplI11QuaternionfELb0EE9ConstructEPS2_10MemLabelId
1974:__ZN11KeyframeTplI11QuaternionfEC2Ev
1975:__ZL4ZeroI11QuaternionfET_v
1976:__ZL13DefaultWeightI11QuaternionfET_v
1977:__ZN11QuaternionfC2Effff
1978:__Z14resize_trimmedINSt3__26vectorIN13AnimationClip15QuaternionCurveE13stl_allocatorIS3_L18MemLabelIdentifier30ELi16EEEEEvRT_j
1979:__ZNSt3__26vectorIN13AnimationClip15QuaternionCurveE13stl_allocatorIS2_L18MemLabelIdentifier30ELi16EEE7reserveEm
1980:__ZNSt3__26vectorIN13AnimationClip15QuaternionCurveE13stl_allocatorIS2_L18MemLabelIdentifier30ELi16EEE6assignINS_11__wrap_iterIPS2_EEEENS_9enable_ifIXaasr21__is_forward_iteratorIT_EE5valuesr16is_constructibleIS2_NS_15iterator_traitsISC_E9referenceEEE5valueEvE4typeESC_SC_
1981:__ZNSt3__26vectorIN13AnimationClip15QuaternionCurveE13stl_allocatorIS2_L18MemLabelIdentifier30ELi16EEEC2INS_11__wrap_iterIPS2_EEEET_SB_RKS5_PNS_9enable_ifIXaasr21__is_forward_iteratorISB_EE5valuesr16is_constructibleIS2_NS_15iterator_traitsISB_E9referenceEEE5valueEvE4typeE
1982:__ZNSt3__26vectorIN13AnimationClip15QuaternionCurveE13stl_allocatorIS2_L18MemLabelIdentifier30ELi16EEE8allocateEm
1983:__ZNSt3__26vectorIN13AnimationClip15QuaternionCurveE13stl_allocatorIS2_L18MemLabelIdentifier30ELi16EEE18__construct_at_endINS_11__wrap_iterIPS2_EEEENS_9enable_ifIXsr21__is_forward_iteratorIT_EE5valueEvE4typeESC_SC_m
1984:__ZN13AnimationClip15QuaternionCurveaSERKS0_
1985:__ZNSt3__26vectorIN13AnimationClip15QuaternionCurveE13stl_allocatorIS2_L18MemLabelIdentifier30ELi16EEE10deallocateEv
1986:__ZN14SafeBinaryRead22TransferWithTypeStringIbEEvRT_PKcS4_17TransferMetaFlags
1987:__ZN15SerializeTraitsIbE8TransferI14SafeBinaryReadEEvRbRT_
1988:__ZN24GenerateTypeTreeTransfer12TransferBaseI13AnimationClipEEvRT_17TransferMetaFlags
1989:__ZN24GenerateTypeTreeTransfer8TransferI13AnimationClipEEvRT_PKc17TransferMetaFlags
1990:__ZN15SerializeTraitsI13AnimationClipE8TransferI24GenerateTypeTreeTransferEEvRS0_RT_
1991:__ZN13AnimationClip8TransferI24GenerateTypeTreeTransferEEvRT_
1992:__ZN24GenerateTypeTreeTransfer8TransferIbEEvRT_PKc17TransferMetaFlags
1993:__ZN24GenerateTypeTreeTransfer8TransferINSt3__26vectorIN13AnimationClip15QuaternionCurveE13stl_allocatorIS4_L18MemLabelIdentifier30ELi16EEEEEEvRT_PKc17TransferMetaFlags
1994:__ZN24GenerateTypeTreeTransfer8TransferINSt3__26vectorI24CompressedAnimationCurve13stl_allocatorIS3_L18MemLabelIdentifier30ELi16EEEEEEvRT_PKc17TransferMetaFlags
1995:__ZN24GenerateTypeTreeTransfer8TransferINSt3__26vectorIN13AnimationClip12Vector3CurveE13stl_allocatorIS4_L18MemLabelIdentifier30ELi16EEEEEEvRT_PKc17TransferMetaFlags
1996:__ZN24GenerateTypeTreeTransfer8TransferINSt3__26vectorIN13AnimationClip10FloatCurveE13stl_allocatorIS4_L18MemLabelIdentifier30ELi16EEEEEEvRT_PKc17TransferMetaFlags
1997:__ZN24GenerateTypeTreeTransfer8TransferINSt3__26vectorIN13AnimationClip9PPtrCurveE13stl_allocatorIS4_L18MemLabelIdentifier30ELi16EEEEEEvRT_PKc17TransferMetaFlags
1998:__ZN24GenerateTypeTreeTransfer8TransferIfEEvRT_PKc17TransferMetaFlags
1999:__Z32TransferEnumWithNameForceIntSizeI24GenerateTypeTreeTransfer8WrapModeEvRT_RT0_PKc17TransferMetaFlags
2000:__ZN24GenerateTypeTreeTransfer8TransferI4AABBEEvRT_PKc17TransferMetaFlags
2001:__ZN24GenerateTypeTreeTransfer8TransferIiEEvRT_PKc17TransferMetaFlags
2002:__Z21TransferBlobSerializeIN7mecanim9animation18ClipMuscleConstantE24GenerateTypeTreeTransferEvRPT_PKcRjS8_RT0_
2003:__ZN24GenerateTypeTreeTransfer8TransferIN11UnityEngine9Animation28AnimationClipBindingConstantEEEvRT_PKc17TransferMetaFlags
2004:__ZN24GenerateTypeTreeTransfer8TransferINSt3__26vectorI14AnimationEvent13stl_allocatorIS3_L18MemLabelIdentifier30ELi16EEEEEEvRT_PKc17TransferMetaFlags
2005:__ZN15SerializeTraitsINSt3__26vectorI14AnimationEvent13stl_allocatorIS2_L18MemLabelIdentifier30ELi16EEEEE8TransferI24GenerateTypeTreeTransferEEvRS6_RT_
2006:__ZN24GenerateTypeTreeTransfer21TransferSTLStyleArrayINSt3__26vectorI14AnimationEvent13stl_allocatorIS3_L18MemLabelIdentifier30ELi16EEEEEEvRT_17TransferMetaFlags
2007:__Z27default_construct_autolabelI14AnimationEventEvPT_10MemLabelId
2008:__ZN24GenerateTypeTreeTransfer32TransferSTLStyleArrayWithElementI14AnimationEventEEvRT_17TransferMetaFlags
2009:__ZN24GenerateTypeTreeTransfer8TransferI14AnimationEventEEvRT_PKc17TransferMetaFlags
2010:__ZN15SerializeTraitsI14AnimationEventE8TransferI24GenerateTypeTreeTransferEEvRS0_RT_
2011:__ZN14AnimationEvent8TransferI24GenerateTypeTreeTransferEEvRT_
2012:__ZN15AllocatorTraitsI14AnimationEventLb0EE9ConstructEPS0_10MemLabelId
2013:__ZN14AnimationEventC2Ev
2014:__ZN15SerializeTraitsIN11UnityEngine9Animation28AnimationClipBindingConstantEE8TransferI24GenerateTypeTreeTransferEEvRS2_RT_
2015:__ZN11UnityEngine9Animation28AnimationClipBindingConstant8TransferI24GenerateTypeTreeTransferEEvRT_
2016:__ZN24GenerateTypeTreeTransfer8TransferI13dynamic_arrayIN11UnityEngine9Animation14GenericBindingELm0EEEEvRT_PKc17TransferMetaFlags
2017:__ZN24GenerateTypeTreeTransfer8TransferI13dynamic_arrayI4PPtrI6ObjectELm0EEEEvRT_PKc17TransferMetaFlags
2018:__ZN15SerializeTraitsI13dynamic_arrayI4PPtrI6ObjectELm0EEE8TransferI24GenerateTypeTreeTransferEEvRS4_RT_
2019:__ZN24GenerateTypeTreeTransfer21TransferSTLStyleArrayI13dynamic_arrayI4PPtrI6ObjectELm0EEEEvRT_17TransferMetaFlags
2020:__ZN24GenerateTypeTreeTransfer32TransferSTLStyleArrayWithElementI4PPtrI6ObjectEEEvRT_17TransferMetaFlags
2021:__ZN24GenerateTypeTreeTransfer8TransferI4PPtrI6ObjectEEEvRT_PKc17TransferMetaFlags
2022:__ZN15SerializeTraitsI4PPtrI6ObjectEE8TransferI24GenerateTypeTreeTransferEEvRS2_RT_
2023:__ZN4PPtrI6ObjectE8TransferI24GenerateTypeTreeTransferEEvRT_
2024:__Z12TransferPPtrI24GenerateTypeTreeTransferEvRiRT_
2025:__Zor17TransferMetaFlagsS_
2026:__ZN24GenerateTypeTreeTransfer8TransferIxEEvRT_PKc17TransferMetaFlags
2027:__ZN31SerializeTraitsBaseForBasicTypeIxE8TransferI24GenerateTypeTreeTransferEEvRxRT_
2028:__ZN24GenerateTypeTreeTransfer17TransferBasicDataIxEEvRT_
2029:__ZNK16TypeTreeIterator15GetWritableNodeER8TypeTree
2030:__ZNK21TypeTreeShareableData11GetWritableEm
2031:__ZNK13dynamic_arrayI12TypeTreeNodeLm0EEixEm
2032:__ZN15SerializeTraitsI13dynamic_arrayIN11UnityEngine9Animation14GenericBindingELm0EEE8TransferI24GenerateTypeTreeTransferEEvRS4_RT_
2033:__ZN24GenerateTypeTreeTransfer21TransferSTLStyleArrayI13dynamic_arrayIN11UnityEngine9Animation14GenericBindingELm0EEEEvRT_17TransferMetaFlags
2034:__ZN24GenerateTypeTreeTransfer32TransferSTLStyleArrayWithElementIN11UnityEngine9Animation14GenericBindingEEEvRT_17TransferMetaFlags
2035:__ZN24GenerateTypeTreeTransfer8TransferIN11UnityEngine9Animation14GenericBindingEEEvRT_PKc17TransferMetaFlags
2036:__ZN15SerializeTraitsIN11UnityEngine9Animation14GenericBindingEE8TransferI24GenerateTypeTreeTransferEEvRS2_RT_
2037:__ZN11UnityEngine9Animation14GenericBinding8TransferI24GenerateTypeTreeTransferEEvRT_
2038:__ZN24GenerateTypeTreeTransfer8TransferIjEEvRT_PKc17TransferMetaFlags
2039:__ZN24GenerateTypeTreeTransfer8TransferIPKN5Unity4TypeEEEvRT_PKc17TransferMetaFlags
2040:__ZN24GenerateTypeTreeTransfer8TransferIhEEvRT_PKc17TransferMetaFlags
2041:__ZN31SerializeTraitsBaseForBasicTypeIhE8TransferI24GenerateTypeTreeTransferEEvRhRT_
2042:__ZN24GenerateTypeTreeTransfer17TransferBasicDataIhEEvRT_
2043:__ZN15SerializeTraitsIPKN5Unity4TypeEE8TransferI24GenerateTypeTreeTransferEEvRS3_RT_
2044:__ZN24GenerateTypeTreeTransfer17TransferBasicDataIiEEvRT_
2045:__ZN31SerializeTraitsBaseForBasicTypeIjE8TransferI24GenerateTypeTreeTransferEEvRjRT_
2046:__ZN24GenerateTypeTreeTransfer8TransferIN7mecanim9animation18ClipMuscleConstantEEEvRT_PKc17TransferMetaFlags
2047:__ZN15SerializeTraitsIN7mecanim9animation18ClipMuscleConstantEE8TransferI24GenerateTypeTreeTransferEEvRS2_RT_
2048:__ZN7mecanim9animation18ClipMuscleConstant8TransferI24GenerateTypeTreeTransferEEvRT_
2049:__ZN24GenerateTypeTreeTransfer8TransferIN7mecanim5human9HumanPoseEEEvRT_PKc17TransferMetaFlags
2050:__ZN24GenerateTypeTreeTransfer8TransferIN4math4trsXEEEvRT_PKc17TransferMetaFlags
2051:__ZN24GenerateTypeTreeTransfer8TransferIKN4math7_float3EEEvRT_PKc17TransferMetaFlags
2052:__ZN24GenerateTypeTreeTransfer8TransferI9OffsetPtrIN7mecanim9animation4ClipEEEEvRT_PKc17TransferMetaFlags
2053:__Z13TransferArrayILi200Ei24GenerateTypeTreeTransferEmRAT__T0_PKcRT1_
2054:__Z17TransferOffsetPtrI9OffsetPtrIN7mecanim9animation10ValueDeltaEE24GenerateTypeTreeTransferEvRT_PKcRjRT0_
2055:__Z17TransferOffsetPtrI9OffsetPtrIfE24GenerateTypeTreeTransferEvRT_PKcRjRT0_
2056:__ZN24GenerateTypeTreeTransfer8TransferI22OffsetPtrArrayTransferIfEEEvRT_PKc17TransferMetaFlags
2057:__ZN15SerializeTraitsI22OffsetPtrArrayTransferIfEE8TransferI24GenerateTypeTreeTransferEEvRS1_RT_
2058:__ZN24GenerateTypeTreeTransfer21TransferSTLStyleArrayI22OffsetPtrArrayTransferIfEEEvRT_17TransferMetaFlags
2059:__Z27default_construct_autolabelIfEvPT_10MemLabelId
2060:__ZN24GenerateTypeTreeTransfer32TransferSTLStyleArrayWithElementIfEEvRT_17TransferMetaFlags
2061:__Z8destructIfEvPT_
2062:__ZN15AllocatorTraitsIfLb0EE9ConstructEPf10MemLabelId
2063:__ZN24GenerateTypeTreeTransfer8TransferI22OffsetPtrArrayTransferIN7mecanim9animation10ValueDeltaEEEEvRT_PKc17TransferMetaFlags
2064:__ZN15SerializeTraitsI22OffsetPtrArrayTransferIN7mecanim9animation10ValueDeltaEEE8TransferI24GenerateTypeTreeTransferEEvRS4_RT_
2065:__ZN24GenerateTypeTreeTransfer21TransferSTLStyleArrayI22OffsetPtrArrayTransferIN7mecanim9animation10ValueDeltaEEEEvRT_17TransferMetaFlags
2066:__Z27default_construct_autolabelIN7mecanim9animation10ValueDeltaEEvPT_10MemLabelId
2067:__ZN24GenerateTypeTreeTransfer32TransferSTLStyleArrayWithElementIN7mecanim9animation10ValueDeltaEEEvRT_17TransferMetaFlags
2068:__ZN24GenerateTypeTreeTransfer8TransferIN7mecanim9animation10ValueDeltaEEEvRT_PKc17TransferMetaFlags
2069:__ZN15SerializeTraitsIN7mecanim9animation10ValueDeltaEE8TransferI24GenerateTypeTreeTransferEEvRS2_RT_
2070:__ZN7mecanim9animation10ValueDelta8TransferI24GenerateTypeTreeTransferEEvRT_
2071:__ZN15AllocatorTraitsIN7mecanim9animation10ValueDeltaELb0EE9ConstructEPS2_10MemLabelId
2072:__ZN24GenerateTypeTreeTransfer8TransferI19StaticArrayTransferIiLi200EEEEvRT_PKc17TransferMetaFlags
2073:__ZN15SerializeTraitsI19StaticArrayTransferIiLi200EEE8TransferI24GenerateTypeTreeTransferEEvRS1_RT_
2074:__ZN24GenerateTypeTreeTransfer21TransferSTLStyleArrayI19StaticArrayTransferIiLi200EEEEvRT_17TransferMetaFlags
2075:__Z27default_construct_autolabelIiEvPT_10MemLabelId
2076:__ZN24GenerateTypeTreeTransfer32TransferSTLStyleArrayWithElementIiEEvRT_17TransferMetaFlags
2077:__ZN15AllocatorTraitsIiLb0EE9ConstructEPi10MemLabelId
2078:__ZN15SerializeTraitsI9OffsetPtrIN7mecanim9animation4ClipEEE8TransferI24GenerateTypeTreeTransferEEvRS4_RT_
2079:__ZN24GenerateTypeTreeTransfer8TransferIN7mecanim9animation4ClipEEEvRT_PKc17TransferMetaFlags
2080:__ZN15SerializeTraitsIN7mecanim9animation4ClipEE8TransferI24GenerateTypeTreeTransferEEvRS2_RT_
2081:__ZN7mecanim9animation4Clip8TransferI24GenerateTypeTreeTransferEEvRT_
2082:__ZN24GenerateTypeTreeTransfer8TransferIN7mecanim9animation12StreamedClipEEEvRT_PKc17TransferMetaFlags
2083:__ZN24GenerateTypeTreeTransfer8TransferIN7mecanim9animation9DenseClipEEEvRT_PKc17TransferMetaFlags
2084:__ZN24GenerateTypeTreeTransfer8TransferIN7mecanim9animation12ConstantClipEEEvRT_PKc17TransferMetaFlags
2085:__ZN15SerializeTraitsIN7mecanim9animation12ConstantClipEE8TransferI24GenerateTypeTreeTransferEEvRS2_RT_
2086:__ZN7mecanim9animation12ConstantClip8TransferI24GenerateTypeTreeTransferEEvRT_
2087:__ZN15SerializeTraitsIN7mecanim9animation9DenseClipEE8TransferI24GenerateTypeTreeTransferEEvRS2_RT_
2088:__ZN7mecanim9animation9DenseClip8TransferI24GenerateTypeTreeTransferEEvRT_
2089:__ZN15SerializeTraitsIN7mecanim9animation12StreamedClipEE8TransferI24GenerateTypeTreeTransferEEvRS2_RT_
2090:__ZN7mecanim9animation12StreamedClip8TransferI24GenerateTypeTreeTransferEEvRT_
2091:__Z17TransferOffsetPtrI9OffsetPtrIjE24GenerateTypeTreeTransferEvRT_PKcRjRT0_
2092:__ZN24GenerateTypeTreeTransfer8TransferI22OffsetPtrArrayTransferIjEEEvRT_PKc17TransferMetaFlags
2093:__ZN15SerializeTraitsI22OffsetPtrArrayTransferIjEE8TransferI24GenerateTypeTreeTransferEEvRS1_RT_
2094:__ZN24GenerateTypeTreeTransfer21TransferSTLStyleArrayI22OffsetPtrArrayTransferIjEEEvRT_17TransferMetaFlags
2095:__ZN24GenerateTypeTreeTransfer32TransferSTLStyleArrayWithElementIjEEvRT_17TransferMetaFlags
2096:__ZN15SerializeTraitsIKN4math7_float3EE8TransferI24GenerateTypeTreeTransferEEvRS2_RT_
2097:__ZN24GenerateTypeTreeTransfer11AddMetaFlagE17TransferMetaFlags
2098:__ZN15SerializeTraitsIN7mecanim5human9HumanPoseEE8TransferI24GenerateTypeTreeTransferEEvRS2_RT_
2099:__ZN7mecanim5human9HumanPose8TransferI24GenerateTypeTreeTransferEEvRT_
2100:__ZN24GenerateTypeTreeTransfer8TransferIKN4math7_float4EEEvRT_PKc17TransferMetaFlags
2101:__Z13TransferArrayILi4EN7mecanim5human9HumanGoalE24GenerateTypeTreeTransferEmRAT__T0_PKcRT1_
2102:__ZN24GenerateTypeTreeTransfer8TransferIN7mecanim4hand8HandPoseEEEvRT_PKc17TransferMetaFlags
2103:__Z13TransferArrayILi55Ef24GenerateTypeTreeTransferEmRAT__T0_PKcRT1_
2104:__Z13TransferArrayILi21EKN4math7_float3E24GenerateTypeTreeTransferEmRAT__T0_PKcRT1_
2105:__ZN24GenerateTypeTreeTransfer8TransferI19StaticArrayTransferIKN4math7_float3ELi21EEEEvRT_PKc17TransferMetaFlags
2106:__ZN15SerializeTraitsI19StaticArrayTransferIKN4math7_float3ELi21EEE8TransferI24GenerateTypeTreeTransferEEvRS4_RT_
2107:__ZN24GenerateTypeTreeTransfer21TransferSTLStyleArrayI19StaticArrayTransferIKN4math7_float3ELi21EEEEvRT_17TransferMetaFlags
2108:__Z27default_construct_autolabelIKN4math7_float3EEvPT_10MemLabelId
2109:__ZN24GenerateTypeTreeTransfer32TransferSTLStyleArrayWithElementIKN4math7_float3EEEvRT_17TransferMetaFlags
2110:__ZN15AllocatorTraitsIKN4math7_float3ELb0EE9ConstructEPS2_10MemLabelId
2111:__ZN24GenerateTypeTreeTransfer8TransferI19StaticArrayTransferIfLi55EEEEvRT_PKc17TransferMetaFlags
2112:__ZN15SerializeTraitsI19StaticArrayTransferIfLi55EEE8TransferI24GenerateTypeTreeTransferEEvRS1_RT_
2113:__ZN15SerializeTraitsIN7mecanim4hand8HandPoseEE8TransferI24GenerateTypeTreeTransferEEvRS2_RT_
2114:__ZN7mecanim4hand8HandPose8TransferI24GenerateTypeTreeTransferEEvRT_
2115:__Z13TransferArrayILi20Ef24GenerateTypeTreeTransferEmRAT__T0_PKcRT1_
2116:__ZN24GenerateTypeTreeTransfer8TransferI19StaticArrayTransferIN7mecanim5human9HumanGoalELi4EEEEvRT_PKc17TransferMetaFlags
2117:__ZN15SerializeTraitsI19StaticArrayTransferIN7mecanim5human9HumanGoalELi4EEE8TransferI24GenerateTypeTreeTransferEEvRS4_RT_
2118:__ZN24GenerateTypeTreeTransfer21TransferSTLStyleArrayI19StaticArrayTransferIN7mecanim5human9HumanGoalELi4EEEEvRT_17TransferMetaFlags
2119:__Z27default_construct_autolabelIN7mecanim5human9HumanGoalEEvPT_10MemLabelId
2120:__ZN24GenerateTypeTreeTransfer32TransferSTLStyleArrayWithElementIN7mecanim5human9HumanGoalEEEvRT_17TransferMetaFlags
2121:__ZN24GenerateTypeTreeTransfer8TransferIN7mecanim5human9HumanGoalEEEvRT_PKc17TransferMetaFlags
2122:__ZN15SerializeTraitsIN7mecanim5human9HumanGoalEE8TransferI24GenerateTypeTreeTransferEEvRS2_RT_
2123:__ZN7mecanim5human9HumanGoal8TransferI24GenerateTypeTreeTransferEEvRT_
2124:__ZN15AllocatorTraitsIN7mecanim5human9HumanGoalELb0EE9ConstructEPS2_10MemLabelId
2125:__ZN7mecanim5human9HumanGoalC2Ev
2126:__ZN15SerializeTraitsI4AABBE8TransferI24GenerateTypeTreeTransferEEvRS0_RT_
2127:__ZN4AABB8TransferI24GenerateTypeTreeTransferEEvRT_
2128:__ZN24GenerateTypeTreeTransfer8TransferI8Vector3fEEvRT_PKc17TransferMetaFlags
2129:__ZN15SerializeTraitsI8Vector3fE8TransferI24GenerateTypeTreeTransferEEvRS0_RT_
2130:__ZN8Vector3f8TransferI24GenerateTypeTreeTransferEEvRT_
2131:__ZN15SerializeTraitsINSt3__26vectorIN13AnimationClip9PPtrCurveE13stl_allocatorIS3_L18MemLabelIdentifier30ELi16EEEEE8TransferI24GenerateTypeTreeTransferEEvRS7_RT_
2132:__ZN24GenerateTypeTreeTransfer21TransferSTLStyleArrayINSt3__26vectorIN13AnimationClip9PPtrCurveE13stl_allocatorIS4_L18MemLabelIdentifier30ELi16EEEEEEvRT_17TransferMetaFlags
2133:__Z27default_construct_autolabelIN13AnimationClip9PPtrCurveEEvPT_10MemLabelId
2134:__ZN24GenerateTypeTreeTransfer32TransferSTLStyleArrayWithElementIN13AnimationClip9PPtrCurveEEEvRT_17TransferMetaFlags
2135:__ZN24GenerateTypeTreeTransfer8TransferIN13AnimationClip9PPtrCurveEEEvRT_PKc17TransferMetaFlags
2136:__ZN15SerializeTraitsIN13AnimationClip9PPtrCurveEE8TransferI24GenerateTypeTreeTransferEEvRS1_RT_
2137:__ZN13AnimationClip9PPtrCurve8TransferI24GenerateTypeTreeTransferEEvRT_
2138:__ZN24GenerateTypeTreeTransfer8TransferI13dynamic_arrayI12PPtrKeyframeLm0EEEEvRT_PKc17TransferMetaFlags
2139:__ZN24GenerateTypeTreeTransfer8TransferIN4core12basic_stringIcNS1_20StringStorageDefaultIcEEEEEEvRT_PKc17TransferMetaFlags
2140:__ZN24GenerateTypeTreeTransfer8TransferI4PPtrI10MonoScriptEEEvRT_PKc17TransferMetaFlags
2141:__ZN29SerializeTraitsForStringTypesIN4core12basic_stringIcNS0_20StringStorageDefaultIcEEEEE8TransferI24GenerateTypeTreeTransferEEvRS4_RT_
2142:__ZN24GenerateTypeTreeTransfer21TransferSTLStyleArrayIN4core12basic_stringIcNS1_20StringStorageDefaultIcEEEEEEvRT_17TransferMetaFlags
2143:__Z27default_construct_autolabelIcEvPT_10MemLabelId
2144:__ZN24GenerateTypeTreeTransfer32TransferSTLStyleArrayWithElementIcEEvRT_17TransferMetaFlags
2145:__ZN24GenerateTypeTreeTransfer8TransferIcEEvRT_PKc17TransferMetaFlags
2146:__ZN15AllocatorTraitsIcLb0EE9ConstructEPc10MemLabelId
2147:__ZN15SerializeTraitsI13dynamic_arrayI12PPtrKeyframeLm0EEE8TransferI24GenerateTypeTreeTransferEEvRS2_RT_
2148:__ZN24GenerateTypeTreeTransfer21TransferSTLStyleArrayI13dynamic_arrayI12PPtrKeyframeLm0EEEEvRT_17TransferMetaFlags
2149:__ZN24GenerateTypeTreeTransfer32TransferSTLStyleArrayWithElementI12PPtrKeyframeEEvRT_17TransferMetaFlags
2150:__ZN24GenerateTypeTreeTransfer8TransferI12PPtrKeyframeEEvRT_PKc17TransferMetaFlags
2151:__ZN15SerializeTraitsI12PPtrKeyframeE8TransferI24GenerateTypeTreeTransferEEvRS0_RT_
2152:__ZN12PPtrKeyframe8TransferI24GenerateTypeTreeTransferEEvRT_
2153:__ZN15AllocatorTraitsIN13AnimationClip9PPtrCurveELb0EE9ConstructEPS1_10MemLabelId
2154:__ZN15SerializeTraitsINSt3__26vectorIN13AnimationClip10FloatCurveE13stl_allocatorIS3_L18MemLabelIdentifier30ELi16EEEEE8TransferI24GenerateTypeTreeTransferEEvRS7_RT_
2155:__ZN24GenerateTypeTreeTransfer21TransferSTLStyleArrayINSt3__26vectorIN13AnimationClip10FloatCurveE13stl_allocatorIS4_L18MemLabelIdentifier30ELi16EEEEEEvRT_17TransferMetaFlags
2156:__Z27default_construct_autolabelIN13AnimationClip10FloatCurveEEvPT_10MemLabelId
2157:__ZN24GenerateTypeTreeTransfer32TransferSTLStyleArrayWithElementIN13AnimationClip10FloatCurveEEEvRT_17TransferMetaFlags
2158:__ZN24GenerateTypeTreeTransfer8TransferIN13AnimationClip10FloatCurveEEEvRT_PKc17TransferMetaFlags
2159:__ZN15SerializeTraitsIN13AnimationClip10FloatCurveEE8TransferI24GenerateTypeTreeTransferEEvRS1_RT_
2160:__ZN13AnimationClip10FloatCurve8TransferI24GenerateTypeTreeTransferEEvRT_
2161:__ZN24GenerateTypeTreeTransfer8TransferI17AnimationCurveTplIfEEEvRT_PKc17TransferMetaFlags
2162:__ZN15SerializeTraitsI17AnimationCurveTplIfEE8TransferI24GenerateTypeTreeTransferEEvRS1_RT_
2163:__ZN17AnimationCurveTplIfE8TransferI24GenerateTypeTreeTransferEEvRT_
2164:__ZN24GenerateTypeTreeTransfer8TransferI13dynamic_arrayI11KeyframeTplIfELm0EEEEvRT_PKc17TransferMetaFlags
2165:__ZN15SerializeTraitsI13dynamic_arrayI11KeyframeTplIfELm0EEE8TransferI24GenerateTypeTreeTransferEEvRS3_RT_
2166:__ZN24GenerateTypeTreeTransfer21TransferSTLStyleArrayI13dynamic_arrayI11KeyframeTplIfELm0EEEEvRT_17TransferMetaFlags
2167:__ZN24GenerateTypeTreeTransfer32TransferSTLStyleArrayWithElementI11KeyframeTplIfEEEvRT_17TransferMetaFlags
2168:__ZN24GenerateTypeTreeTransfer8TransferI11KeyframeTplIfEEEvRT_PKc17TransferMetaFlags
2169:__ZN15SerializeTraitsI11KeyframeTplIfEE8TransferI24GenerateTypeTreeTransferEEvRS1_RT_
2170:__ZN11KeyframeTplIfE8TransferI24GenerateTypeTreeTransferEEvRT_
2171:__ZN15AllocatorTraitsIN13AnimationClip10FloatCurveELb0EE9ConstructEPS1_10MemLabelId
2172:__ZN15SerializeTraitsINSt3__26vectorIN13AnimationClip12Vector3CurveE13stl_allocatorIS3_L18MemLabelIdentifier30ELi16EEEEE8TransferI24GenerateTypeTreeTransferEEvRS7_RT_
2173:__ZN24GenerateTypeTreeTransfer21TransferSTLStyleArrayINSt3__26vectorIN13AnimationClip12Vector3CurveE13stl_allocatorIS4_L18MemLabelIdentifier30ELi16EEEEEEvRT_17TransferMetaFlags
2174:__Z27default_construct_autolabelIN13AnimationClip12Vector3CurveEEvPT_10MemLabelId
2175:__ZN24GenerateTypeTreeTransfer32TransferSTLStyleArrayWithElementIN13AnimationClip12Vector3CurveEEEvRT_17TransferMetaFlags
2176:__ZN24GenerateTypeTreeTransfer8TransferIN13AnimationClip12Vector3CurveEEEvRT_PKc17TransferMetaFlags
2177:__ZN15SerializeTraitsIN13AnimationClip12Vector3CurveEE8TransferI24GenerateTypeTreeTransferEEvRS1_RT_
2178:__ZN13AnimationClip12Vector3Curve8TransferI24GenerateTypeTreeTransferEEvRT_
2179:__ZN24GenerateTypeTreeTransfer8TransferI17AnimationCurveTplI8Vector3fEEEvRT_PKc17TransferMetaFlags
2180:__ZN15SerializeTraitsI17AnimationCurveTplI8Vector3fEE8TransferI24GenerateTypeTreeTransferEEvRS2_RT_
2181:__ZN17AnimationCurveTplI8Vector3fE8TransferI24GenerateTypeTreeTransferEEvRT_
2182:__ZN24GenerateTypeTreeTransfer8TransferI13dynamic_arrayI11KeyframeTplI8Vector3fELm0EEEEvRT_PKc17TransferMetaFlags
2183:__ZN15SerializeTraitsI13dynamic_arrayI11KeyframeTplI8Vector3fELm0EEE8TransferI24GenerateTypeTreeTransferEEvRS4_RT_
2184:__ZN24GenerateTypeTreeTransfer21TransferSTLStyleArrayI13dynamic_arrayI11KeyframeTplI8Vector3fELm0EEEEvRT_17TransferMetaFlags
2185:__ZN24GenerateTypeTreeTransfer32TransferSTLStyleArrayWithElementI11KeyframeTplI8Vector3fEEEvRT_17TransferMetaFlags
2186:__ZN24GenerateTypeTreeTransfer8TransferI11KeyframeTplI8Vector3fEEEvRT_PKc17TransferMetaFlags
2187:__ZN15SerializeTraitsI11KeyframeTplI8Vector3fEE8TransferI24GenerateTypeTreeTransferEEvRS2_RT_
2188:__ZN11KeyframeTplI8Vector3fE8TransferI24GenerateTypeTreeTransferEEvRT_
2189:__ZN15AllocatorTraitsIN13AnimationClip12Vector3CurveELb0EE9ConstructEPS1_10MemLabelId
2190:__ZN15SerializeTraitsINSt3__26vectorI24CompressedAnimationCurve13stl_allocatorIS2_L18MemLabelIdentifier30ELi16EEEEE8TransferI24GenerateTypeTreeTransferEEvRS6_RT_
2191:__ZN24GenerateTypeTreeTransfer21TransferSTLStyleArrayINSt3__26vectorI24CompressedAnimationCurve13stl_allocatorIS3_L18MemLabelIdentifier30ELi16EEEEEEvRT_17TransferMetaFlags
2192:__Z27default_construct_autolabelI24CompressedAnimationCurveEvPT_10MemLabelId
2193:__ZN24GenerateTypeTreeTransfer32TransferSTLStyleArrayWithElementI24CompressedAnimationCurveEEvRT_17TransferMetaFlags
2194:__ZN24GenerateTypeTreeTransfer8TransferI24CompressedAnimationCurveEEvRT_PKc17TransferMetaFlags
2195:__ZN15SerializeTraitsI24CompressedAnimationCurveE8TransferI24GenerateTypeTreeTransferEEvRS0_RT_
2196:__ZN24CompressedAnimationCurve8TransferI24GenerateTypeTreeTransferEEvRT_
2197:__ZN24GenerateTypeTreeTransfer8TransferI15PackedIntVectorEEvRT_PKc17TransferMetaFlags
2198:__ZN24GenerateTypeTreeTransfer8TransferI16PackedQuatVectorEEvRT_PKc17TransferMetaFlags
2199:__ZN24GenerateTypeTreeTransfer8TransferI17PackedFloatVectorEEvRT_PKc17TransferMetaFlags
2200:__ZN15SerializeTraitsI17PackedFloatVectorE8TransferI24GenerateTypeTreeTransferEEvRS0_RT_
2201:__ZN17PackedFloatVector8TransferI24GenerateTypeTreeTransferEEvRT_
2202:__ZN24GenerateTypeTreeTransfer8TransferI13dynamic_arrayIhLm0EEEEvRT_PKc17TransferMetaFlags
2203:__ZN15SerializeTraitsI13dynamic_arrayIhLm0EEE8TransferI24GenerateTypeTreeTransferEEvRS1_RT_
2204:__ZN24GenerateTypeTreeTransfer21TransferSTLStyleArrayI13dynamic_arrayIhLm0EEEEvRT_17TransferMetaFlags
2205:__ZN24GenerateTypeTreeTransfer32TransferSTLStyleArrayWithElementIhEEvRT_17TransferMetaFlags
2206:__ZN15SerializeTraitsI16PackedQuatVectorE8TransferI24GenerateTypeTreeTransferEEvRS0_RT_
2207:__ZN16PackedQuatVector8TransferI24GenerateTypeTreeTransferEEvRT_
2208:__ZN15SerializeTraitsI15PackedIntVectorE8TransferI24GenerateTypeTreeTransferEEvRS0_RT_
2209:__ZN15PackedIntVector8TransferI24GenerateTypeTreeTransferEEvRT_
2210:__ZN15AllocatorTraitsI24CompressedAnimationCurveLb0EE9ConstructEPS0_10MemLabelId
2211:__ZN15SerializeTraitsINSt3__26vectorIN13AnimationClip15QuaternionCurveE13stl_allocatorIS3_L18MemLabelIdentifier30ELi16EEEEE8TransferI24GenerateTypeTreeTransferEEvRS7_RT_
2212:__ZN24GenerateTypeTreeTransfer21TransferSTLStyleArrayINSt3__26vectorIN13AnimationClip15QuaternionCurveE13stl_allocatorIS4_L18MemLabelIdentifier30ELi16EEEEEEvRT_17TransferMetaFlags
2213:__Z27default_construct_autolabelIN13AnimationClip15QuaternionCurveEEvPT_10MemLabelId
2214:__ZN24GenerateTypeTreeTransfer32TransferSTLStyleArrayWithElementIN13AnimationClip15QuaternionCurveEEEvRT_17TransferMetaFlags
2215:__ZN24GenerateTypeTreeTransfer8TransferIN13AnimationClip15QuaternionCurveEEEvRT_PKc17TransferMetaFlags
2216:__ZN15SerializeTraitsIN13AnimationClip15QuaternionCurveEE8TransferI24GenerateTypeTreeTransferEEvRS1_RT_
2217:__ZN13AnimationClip15QuaternionCurve8TransferI24GenerateTypeTreeTransferEEvRT_
2218:__ZN24GenerateTypeTreeTransfer8TransferI17AnimationCurveTplI11QuaternionfEEEvRT_PKc17TransferMetaFlags
2219:__ZN15SerializeTraitsI17AnimationCurveTplI11QuaternionfEE8TransferI24GenerateTypeTreeTransferEEvRS2_RT_
2220:__ZN17AnimationCurveTplI11QuaternionfE8TransferI24GenerateTypeTreeTransferEEvRT_
2221:__ZN24GenerateTypeTreeTransfer8TransferI13dynamic_arrayI11KeyframeTplI11QuaternionfELm0EEEEvRT_PKc17TransferMetaFlags
2222:__ZN15SerializeTraitsI13dynamic_arrayI11KeyframeTplI11QuaternionfELm0EEE8TransferI24GenerateTypeTreeTransferEEvRS4_RT_
2223:__ZN24GenerateTypeTreeTransfer21TransferSTLStyleArrayI13dynamic_arrayI11KeyframeTplI11QuaternionfELm0EEEEvRT_17TransferMetaFlags
2224:__ZN24GenerateTypeTreeTransfer32TransferSTLStyleArrayWithElementI11KeyframeTplI11QuaternionfEEEvRT_17TransferMetaFlags
2225:__ZN24GenerateTypeTreeTransfer8TransferI11KeyframeTplI11QuaternionfEEEvRT_PKc17TransferMetaFlags
2226:__ZN15SerializeTraitsI11KeyframeTplI11QuaternionfEE8TransferI24GenerateTypeTreeTransferEEvRS2_RT_
2227:__ZN11KeyframeTplI11QuaternionfE8TransferI24GenerateTypeTreeTransferEEvRT_
2228:__ZN24GenerateTypeTreeTransfer8TransferI11QuaternionfEEvRT_PKc17TransferMetaFlags
2229:__ZN15SerializeTraitsI11QuaternionfE8TransferI24GenerateTypeTreeTransferEEvRS0_RT_
2230:__ZN15AllocatorTraitsIN13AnimationClip15QuaternionCurveELb0EE9ConstructEPS1_10MemLabelId
2231:__ZN15SerializeTraitsIbE8TransferI24GenerateTypeTreeTransferEEvRbRT_
2232:__ZN17RemapPPtrTransfer12TransferBaseI13AnimationClipEEvRT_17TransferMetaFlags
2233:__ZN17RemapPPtrTransfer8TransferI13AnimationClipEEvRT_PKc17TransferMetaFlags
2234:__ZN17RemapPPtrTransfer32GetNewInstanceIDforOldInstanceIDEi
2235:__ZN15SerializeTraitsI13AnimationClipE8TransferI17RemapPPtrTransferEEvRS0_RT_
2236:__ZN13AnimationClip8TransferI17RemapPPtrTransferEEvRT_
2237:__ZN17RemapPPtrTransfer8TransferIbEEvRT_PKc17TransferMetaFlags
2238:__ZN17RemapPPtrTransfer8TransferINSt3__26vectorIN13AnimationClip15QuaternionCurveE13stl_allocatorIS4_L18MemLabelIdentifier30ELi16EEEEEEvRT_PKc17TransferMetaFlags
2239:__ZN17RemapPPtrTransfer8TransferINSt3__26vectorI24CompressedAnimationCurve13stl_allocatorIS3_L18MemLabelIdentifier30ELi16EEEEEEvRT_PKc17TransferMetaFlags
2240:__ZN17RemapPPtrTransfer8TransferINSt3__26vectorIN13AnimationClip12Vector3CurveE13stl_allocatorIS4_L18MemLabelIdentifier30ELi16EEEEEEvRT_PKc17TransferMetaFlags
2241:__ZN17RemapPPtrTransfer8TransferINSt3__26vectorIN13AnimationClip10FloatCurveE13stl_allocatorIS4_L18MemLabelIdentifier30ELi16EEEEEEvRT_PKc17TransferMetaFlags
2242:__ZN17RemapPPtrTransfer8TransferINSt3__26vectorIN13AnimationClip9PPtrCurveE13stl_allocatorIS4_L18MemLabelIdentifier30ELi16EEEEEEvRT_PKc17TransferMetaFlags
2243:__Z32TransferEnumWithNameForceIntSizeI17RemapPPtrTransfer8WrapModeEvRT_RT0_PKc17TransferMetaFlags
2244:__Z21TransferBlobSerializeIN7mecanim9animation18ClipMuscleConstantE17RemapPPtrTransferEvRPT_PKcRjS8_RT0_
2245:__ZN17RemapPPtrTransfer8TransferIN11UnityEngine9Animation28AnimationClipBindingConstantEEEvRT_PKc17TransferMetaFlags
2246:__ZN17RemapPPtrTransfer8TransferINSt3__26vectorI14AnimationEvent13stl_allocatorIS3_L18MemLabelIdentifier30ELi16EEEEEEvRT_PKc17TransferMetaFlags
2247:__ZN15SerializeTraitsINSt3__26vectorI14AnimationEvent13stl_allocatorIS2_L18MemLabelIdentifier30ELi16EEEEE8TransferI17RemapPPtrTransferEEvRS6_RT_
2248:__ZN17RemapPPtrTransfer21TransferSTLStyleArrayINSt3__26vectorI14AnimationEvent13stl_allocatorIS3_L18MemLabelIdentifier30ELi16EEEEEEvRT_17TransferMetaFlags
2249:__ZN17RemapPPtrTransfer8TransferI14AnimationEventEEvRT_PKc17TransferMetaFlags
2250:__ZN15SerializeTraitsI14AnimationEventE8TransferI17RemapPPtrTransferEEvRS0_RT_
2251:__ZN14AnimationEvent8TransferI17RemapPPtrTransferEEvRT_
2252:__ZN15SerializeTraitsIN11UnityEngine9Animation28AnimationClipBindingConstantEE8TransferI17RemapPPtrTransferEEvRS2_RT_
2253:__ZN11UnityEngine9Animation28AnimationClipBindingConstant8TransferI17RemapPPtrTransferEEvRT_
2254:__ZN17RemapPPtrTransfer8TransferI13dynamic_arrayIN11UnityEngine9Animation14GenericBindingELm0EEEEvRT_PKc17TransferMetaFlags
2255:__ZN17RemapPPtrTransfer8TransferI13dynamic_arrayI4PPtrI6ObjectELm0EEEEvRT_PKc17TransferMetaFlags
2256:__ZN15SerializeTraitsI13dynamic_arrayI4PPtrI6ObjectELm0EEE8TransferI17RemapPPtrTransferEEvRS4_RT_
2257:__ZN17RemapPPtrTransfer21TransferSTLStyleArrayI13dynamic_arrayI4PPtrI6ObjectELm0EEEEvRT_17TransferMetaFlags
2258:__ZN17RemapPPtrTransfer8TransferI4PPtrI6ObjectEEEvRT_PKc17TransferMetaFlags
2259:__ZN15RemapPPtrTraitsI4PPtrI6ObjectEE19SetInstanceIDOfPPtrERS2_i
2260:__ZN4PPtrI6ObjectE13SetInstanceIDEi
2261:__ZN15SerializeTraitsI13dynamic_arrayIN11UnityEngine9Animation14GenericBindingELm0EEE8TransferI17RemapPPtrTransferEEvRS4_RT_
2262:__ZN17RemapPPtrTransfer21TransferSTLStyleArrayI13dynamic_arrayIN11UnityEngine9Animation14GenericBindingELm0EEEEvRT_17TransferMetaFlags
2263:__ZN17RemapPPtrTransfer8TransferIN11UnityEngine9Animation14GenericBindingEEEvRT_PKc17TransferMetaFlags
2264:__ZN15SerializeTraitsIN11UnityEngine9Animation14GenericBindingEE8TransferI17RemapPPtrTransferEEvRS2_RT_
2265:__ZN11UnityEngine9Animation14GenericBinding8TransferI17RemapPPtrTransferEEvRT_
2266:__ZN17RemapPPtrTransfer8TransferIN7mecanim9animation18ClipMuscleConstantEEEvRT_PKc17TransferMetaFlags
2267:__ZN15SerializeTraitsIN7mecanim9animation18ClipMuscleConstantEE8TransferI17RemapPPtrTransferEEvRS2_RT_
2268:__ZN7mecanim9animation18ClipMuscleConstant8TransferI17RemapPPtrTransferEEvRT_
2269:__ZN17RemapPPtrTransfer8TransferIN7mecanim5human9HumanPoseEEEvRT_PKc17TransferMetaFlags
2270:__ZN17RemapPPtrTransfer8TransferI9OffsetPtrIN7mecanim9animation4ClipEEEEvRT_PKc17TransferMetaFlags
2271:__Z13TransferArrayILi200Ei17RemapPPtrTransferEmRAT__T0_PKcRT1_
2272:__Z17TransferOffsetPtrI9OffsetPtrIN7mecanim9animation10ValueDeltaEE17RemapPPtrTransferEvRT_PKcRjRT0_
2273:__Z17TransferOffsetPtrI9OffsetPtrIfE17RemapPPtrTransferEvRT_PKcRjRT0_
2274:__ZN22OffsetPtrArrayTransferIfE3endEv
2275:__ZN17RemapPPtrTransfer8TransferI22OffsetPtrArrayTransferIN7mecanim9animation10ValueDeltaEEEEvRT_PKc17TransferMetaFlags
2276:__ZN15SerializeTraitsI22OffsetPtrArrayTransferIN7mecanim9animation10ValueDeltaEEE8TransferI17RemapPPtrTransferEEvRS4_RT_
2277:__ZN17RemapPPtrTransfer21TransferSTLStyleArrayI22OffsetPtrArrayTransferIN7mecanim9animation10ValueDeltaEEEEvRT_17TransferMetaFlags
2278:__ZN17RemapPPtrTransfer8TransferIN7mecanim9animation10ValueDeltaEEEvRT_PKc17TransferMetaFlags
2279:__ZN15SerializeTraitsIN7mecanim9animation10ValueDeltaEE8TransferI17RemapPPtrTransferEEvRS2_RT_
2280:__ZN7mecanim9animation10ValueDelta8TransferI17RemapPPtrTransferEEvRT_
2281:__ZN15SerializeTraitsI9OffsetPtrIN7mecanim9animation4ClipEEE8TransferI17RemapPPtrTransferEEvRS4_RT_
2282:__ZN17RemapPPtrTransfer8TransferIN7mecanim9animation4ClipEEEvRT_PKc17TransferMetaFlags
2283:__ZN15SerializeTraitsIN7mecanim9animation4ClipEE8TransferI17RemapPPtrTransferEEvRS2_RT_
2284:__ZN7mecanim9animation4Clip8TransferI17RemapPPtrTransferEEvRT_
2285:__ZN17RemapPPtrTransfer8TransferIN7mecanim9animation12StreamedClipEEEvRT_PKc17TransferMetaFlags
2286:__ZN17RemapPPtrTransfer8TransferIN7mecanim9animation9DenseClipEEEvRT_PKc17TransferMetaFlags
2287:__ZN17RemapPPtrTransfer8TransferIN7mecanim9animation12ConstantClipEEEvRT_PKc17TransferMetaFlags
2288:__ZN15SerializeTraitsIN7mecanim9animation12ConstantClipEE8TransferI17RemapPPtrTransferEEvRS2_RT_
2289:__ZN7mecanim9animation12ConstantClip8TransferI17RemapPPtrTransferEEvRT_
2290:__ZN15SerializeTraitsIN7mecanim9animation9DenseClipEE8TransferI17RemapPPtrTransferEEvRS2_RT_
2291:__ZN7mecanim9animation9DenseClip8TransferI17RemapPPtrTransferEEvRT_
2292:__ZN15SerializeTraitsIN7mecanim9animation12StreamedClipEE8TransferI17RemapPPtrTransferEEvRS2_RT_
2293:__ZN7mecanim9animation12StreamedClip8TransferI17RemapPPtrTransferEEvRT_
2294:__ZN15SerializeTraitsIN7mecanim5human9HumanPoseEE8TransferI17RemapPPtrTransferEEvRS2_RT_
2295:__ZN7mecanim5human9HumanPose8TransferI17RemapPPtrTransferEEvRT_
2296:__Z13TransferArrayILi4EN7mecanim5human9HumanGoalE17RemapPPtrTransferEmRAT__T0_PKcRT1_
2297:__ZN17RemapPPtrTransfer8TransferIN7mecanim4hand8HandPoseEEEvRT_PKc17TransferMetaFlags
2298:__Z13TransferArrayILi55Ef17RemapPPtrTransferEmRAT__T0_PKcRT1_
2299:__Z13TransferArrayILi21EKN4math7_float3E17RemapPPtrTransferEmRAT__T0_PKcRT1_
2300:__ZN15SerializeTraitsIN7mecanim4hand8HandPoseEE8TransferI17RemapPPtrTransferEEvRS2_RT_
2301:__ZN7mecanim4hand8HandPose8TransferI17RemapPPtrTransferEEvRT_
2302:__Z13TransferArrayILi20Ef17RemapPPtrTransferEmRAT__T0_PKcRT1_
2303:__ZN17RemapPPtrTransfer8TransferI19StaticArrayTransferIN7mecanim5human9HumanGoalELi4EEEEvRT_PKc17TransferMetaFlags
2304:__ZN15SerializeTraitsI19StaticArrayTransferIN7mecanim5human9HumanGoalELi4EEE8TransferI17RemapPPtrTransferEEvRS4_RT_
2305:__ZN17RemapPPtrTransfer21TransferSTLStyleArrayI19StaticArrayTransferIN7mecanim5human9HumanGoalELi4EEEEvRT_17TransferMetaFlags
2306:__ZN17RemapPPtrTransfer8TransferIN7mecanim5human9HumanGoalEEEvRT_PKc17TransferMetaFlags
2307:__ZN15SerializeTraitsIN7mecanim5human9HumanGoalEE8TransferI17RemapPPtrTransferEEvRS2_RT_
2308:__ZN7mecanim5human9HumanGoal8TransferI17RemapPPtrTransferEEvRT_
2309:__ZN15SerializeTraitsINSt3__26vectorIN13AnimationClip9PPtrCurveE13stl_allocatorIS3_L18MemLabelIdentifier30ELi16EEEEE8TransferI17RemapPPtrTransferEEvRS7_RT_
2310:__ZN17RemapPPtrTransfer21TransferSTLStyleArrayINSt3__26vectorIN13AnimationClip9PPtrCurveE13stl_allocatorIS4_L18MemLabelIdentifier30ELi16EEEEEEvRT_17TransferMetaFlags
2311:__ZN17RemapPPtrTransfer8TransferIN13AnimationClip9PPtrCurveEEEvRT_PKc17TransferMetaFlags
2312:__ZN15SerializeTraitsIN13AnimationClip9PPtrCurveEE8TransferI17RemapPPtrTransferEEvRS1_RT_
2313:__ZN13AnimationClip9PPtrCurve8TransferI17RemapPPtrTransferEEvRT_
2314:__ZN17RemapPPtrTransfer8TransferI13dynamic_arrayI12PPtrKeyframeLm0EEEEvRT_PKc17TransferMetaFlags
2315:__ZN15SerializeTraitsI13dynamic_arrayI12PPtrKeyframeLm0EEE8TransferI17RemapPPtrTransferEEvRS2_RT_
2316:__ZN17RemapPPtrTransfer21TransferSTLStyleArrayI13dynamic_arrayI12PPtrKeyframeLm0EEEEvRT_17TransferMetaFlags
2317:__ZN17RemapPPtrTransfer8TransferI12PPtrKeyframeEEvRT_PKc17TransferMetaFlags
2318:__ZN15SerializeTraitsI12PPtrKeyframeE8TransferI17RemapPPtrTransferEEvRS0_RT_
2319:__ZN12PPtrKeyframe8TransferI17RemapPPtrTransferEEvRT_
2320:__ZN15SerializeTraitsINSt3__26vectorIN13AnimationClip10FloatCurveE13stl_allocatorIS3_L18MemLabelIdentifier30ELi16EEEEE8TransferI17RemapPPtrTransferEEvRS7_RT_
2321:__ZN17RemapPPtrTransfer21TransferSTLStyleArrayINSt3__26vectorIN13AnimationClip10FloatCurveE13stl_allocatorIS4_L18MemLabelIdentifier30ELi16EEEEEEvRT_17TransferMetaFlags
2322:__ZN17RemapPPtrTransfer8TransferIN13AnimationClip10FloatCurveEEEvRT_PKc17TransferMetaFlags
2323:__ZN15SerializeTraitsIN13AnimationClip10FloatCurveEE8TransferI17RemapPPtrTransferEEvRS1_RT_
2324:__ZN13AnimationClip10FloatCurve8TransferI17RemapPPtrTransferEEvRT_
2325:__ZN15SerializeTraitsINSt3__26vectorIN13AnimationClip12Vector3CurveE13stl_allocatorIS3_L18MemLabelIdentifier30ELi16EEEEE8TransferI17RemapPPtrTransferEEvRS7_RT_
2326:__ZN17RemapPPtrTransfer21TransferSTLStyleArrayINSt3__26vectorIN13AnimationClip12Vector3CurveE13stl_allocatorIS4_L18MemLabelIdentifier30ELi16EEEEEEvRT_17TransferMetaFlags
2327:__ZN17RemapPPtrTransfer8TransferIN13AnimationClip12Vector3CurveEEEvRT_PKc17TransferMetaFlags
2328:__ZN15SerializeTraitsIN13AnimationClip12Vector3CurveEE8TransferI17RemapPPtrTransferEEvRS1_RT_
2329:__ZN13AnimationClip12Vector3Curve8TransferI17RemapPPtrTransferEEvRT_
2330:__ZN15SerializeTraitsINSt3__26vectorI24CompressedAnimationCurve13stl_allocatorIS2_L18MemLabelIdentifier30ELi16EEEEE8TransferI17RemapPPtrTransferEEvRS6_RT_
2331:__ZN17RemapPPtrTransfer21TransferSTLStyleArrayINSt3__26vectorI24CompressedAnimationCurve13stl_allocatorIS3_L18MemLabelIdentifier30ELi16EEEEEEvRT_17TransferMetaFlags
2332:__ZN17RemapPPtrTransfer8TransferI24CompressedAnimationCurveEEvRT_PKc17TransferMetaFlags
2333:__ZN15SerializeTraitsI24CompressedAnimationCurveE8TransferI17RemapPPtrTransferEEvRS0_RT_
2334:__ZN24CompressedAnimationCurve8TransferI17RemapPPtrTransferEEvRT_
2335:__ZN17RemapPPtrTransfer8TransferI15PackedIntVectorEEvRT_PKc17TransferMetaFlags
2336:__ZN17RemapPPtrTransfer8TransferI16PackedQuatVectorEEvRT_PKc17TransferMetaFlags
2337:__ZN17RemapPPtrTransfer8TransferI17PackedFloatVectorEEvRT_PKc17TransferMetaFlags
2338:__ZN15SerializeTraitsI17PackedFloatVectorE8TransferI17RemapPPtrTransferEEvRS0_RT_
2339:__ZN17PackedFloatVector8TransferI17RemapPPtrTransferEEvRT_
2340:__ZN15SerializeTraitsI16PackedQuatVectorE8TransferI17RemapPPtrTransferEEvRS0_RT_
2341:__ZN16PackedQuatVector8TransferI17RemapPPtrTransferEEvRT_
2342:__ZN15SerializeTraitsI15PackedIntVectorE8TransferI17RemapPPtrTransferEEvRS0_RT_
2343:__ZN15PackedIntVector8TransferI17RemapPPtrTransferEEvRT_
2344:__ZN15SerializeTraitsINSt3__26vectorIN13AnimationClip15QuaternionCurveE13stl_allocatorIS3_L18MemLabelIdentifier30ELi16EEEEE8TransferI17RemapPPtrTransferEEvRS7_RT_
2345:__ZN17RemapPPtrTransfer21TransferSTLStyleArrayINSt3__26vectorIN13AnimationClip15QuaternionCurveE13stl_allocatorIS4_L18MemLabelIdentifier30ELi16EEEEEEvRT_17TransferMetaFlags
2346:__ZN18StreamedBinaryRead12TransferBaseI13AnimationClipEEvRT_17TransferMetaFlags
2347:__ZN18StreamedBinaryRead8TransferI13AnimationClipEEvRT_PKc17TransferMetaFlags
2348:__ZN15SerializeTraitsI13AnimationClipE8TransferI18StreamedBinaryReadEEvRS0_RT_
2349:__ZN13AnimationClip8TransferI18StreamedBinaryReadEEvRT_
2350:__ZN18StreamedBinaryRead8TransferIbEEvRT_PKc17TransferMetaFlags
2351:__ZN18StreamedBinaryRead8TransferINSt3__26vectorIN13AnimationClip15QuaternionCurveE13stl_allocatorIS4_L18MemLabelIdentifier30ELi16EEEEEEvRT_PKc17TransferMetaFlags
2352:__ZN18StreamedBinaryRead8TransferINSt3__26vectorI24CompressedAnimationCurve13stl_allocatorIS3_L18MemLabelIdentifier30ELi16EEEEEEvRT_PKc17TransferMetaFlags
2353:__ZN18StreamedBinaryRead8TransferINSt3__26vectorIN13AnimationClip12Vector3CurveE13stl_allocatorIS4_L18MemLabelIdentifier30ELi16EEEEEEvRT_PKc17TransferMetaFlags
2354:__ZN18StreamedBinaryRead8TransferINSt3__26vectorIN13AnimationClip10FloatCurveE13stl_allocatorIS4_L18MemLabelIdentifier30ELi16EEEEEEvRT_PKc17TransferMetaFlags
2355:__ZN18StreamedBinaryRead8TransferINSt3__26vectorIN13AnimationClip9PPtrCurveE13stl_allocatorIS4_L18MemLabelIdentifier30ELi16EEEEEEvRT_PKc17TransferMetaFlags
2356:__ZN18StreamedBinaryRead8TransferIfEEvRT_PKc17TransferMetaFlags
2357:__Z32TransferEnumWithNameForceIntSizeI18StreamedBinaryRead8WrapModeEvRT_RT0_PKc17TransferMetaFlags
2358:__ZN18StreamedBinaryRead8TransferI4AABBEEvRT_PKc17TransferMetaFlags
2359:__ZN18StreamedBinaryRead8TransferIiEEvRT_PKc17TransferMetaFlags
2360:__Z21TransferBlobSerializeIN7mecanim9animation18ClipMuscleConstantE18StreamedBinaryReadEvRPT_PKcRjS8_RT0_
2361:__ZN18StreamedBinaryRead8TransferIN11UnityEngine9Animation28AnimationClipBindingConstantEEEvRT_PKc17TransferMetaFlags
2362:__ZN18StreamedBinaryRead8TransferINSt3__26vectorI14AnimationEvent13stl_allocatorIS3_L18MemLabelIdentifier30ELi16EEEEEEvRT_PKc17TransferMetaFlags
2363:__ZN15SerializeTraitsINSt3__26vectorI14AnimationEvent13stl_allocatorIS2_L18MemLabelIdentifier30ELi16EEEEE8TransferI18StreamedBinaryReadEEvRS6_RT_
2364:__ZN18StreamedBinaryRead21TransferSTLStyleArrayINSt3__26vectorI14AnimationEvent13stl_allocatorIS3_L18MemLabelIdentifier30ELi16EEEEEEvRT_17TransferMetaFlags
2365:__ZN18StreamedBinaryRead8TransferI14AnimationEventEEvRT_PKc17TransferMetaFlags
2366:__ZN15SerializeTraitsI14AnimationEventE8TransferI18StreamedBinaryReadEEvRS0_RT_
2367:__ZN14AnimationEvent8TransferI18StreamedBinaryReadEEvRT_
2368:__ZN15SerializeTraitsIN11UnityEngine9Animation28AnimationClipBindingConstantEE8TransferI18StreamedBinaryReadEEvRS2_RT_
2369:__ZN11UnityEngine9Animation28AnimationClipBindingConstant8TransferI18StreamedBinaryReadEEvRT_
2370:__ZN18StreamedBinaryRead8TransferI13dynamic_arrayIN11UnityEngine9Animation14GenericBindingELm0EEEEvRT_PKc17TransferMetaFlags
2371:__ZN18StreamedBinaryRead8TransferI13dynamic_arrayI4PPtrI6ObjectELm0EEEEvRT_PKc17TransferMetaFlags
2372:__ZN15SerializeTraitsI13dynamic_arrayI4PPtrI6ObjectELm0EEE8TransferI18StreamedBinaryReadEEvRS4_RT_
2373:__ZN18StreamedBinaryRead21TransferSTLStyleArrayI13dynamic_arrayI4PPtrI6ObjectELm0EEEEvRT_17TransferMetaFlags
2374:__ZN18StreamedBinaryRead8TransferI4PPtrI6ObjectEEEvRT_PKc17TransferMetaFlags
2375:__ZN15SerializeTraitsI4PPtrI6ObjectEE8TransferI18StreamedBinaryReadEEvRS2_RT_
2376:__ZN4PPtrI6ObjectE8TransferI18StreamedBinaryReadEEvRT_
2377:__ZN15SerializeTraitsI13dynamic_arrayIN11UnityEngine9Animation14GenericBindingELm0EEE8TransferI18StreamedBinaryReadEEvRS4_RT_
2378:__ZN18StreamedBinaryRead21TransferSTLStyleArrayI13dynamic_arrayIN11UnityEngine9Animation14GenericBindingELm0EEEEvRT_17TransferMetaFlags
2379:__ZN18StreamedBinaryRead8TransferIN11UnityEngine9Animation14GenericBindingEEEvRT_PKc17TransferMetaFlags
2380:__ZN15SerializeTraitsIN11UnityEngine9Animation14GenericBindingEE8TransferI18StreamedBinaryReadEEvRS2_RT_
2381:__ZN11UnityEngine9Animation14GenericBinding8TransferI18StreamedBinaryReadEEvRT_
2382:__ZN18StreamedBinaryRead8TransferIPKN5Unity4TypeEEEvRT_PKc17TransferMetaFlags
2383:__ZN18StreamedBinaryRead8TransferIhEEvRT_PKc17TransferMetaFlags
2384:__ZN31SerializeTraitsBaseForBasicTypeIhE8TransferI18StreamedBinaryReadEEvRhRT_
2385:__ZN18StreamedBinaryRead17TransferBasicDataIhEEvRT_
2386:__ZN12CachedReader4ReadIhEEvRT_
2387:__ZN15SerializeTraitsIPKN5Unity4TypeEE8TransferI18StreamedBinaryReadEEvRS3_RT_
2388:__ZN18StreamedBinaryRead17TransferBasicDataIiEEvRT_
2389:__ZN12CachedReader4ReadIiEEvRT_
2390:__ZN31SerializeTraitsBaseForBasicTypeIjE8TransferI18StreamedBinaryReadEEvRjRT_
2391:__ZN18StreamedBinaryRead8TransferIN7mecanim9animation18ClipMuscleConstantEEEvRT_PKc17TransferMetaFlags
2392:__ZN15SerializeTraitsIN7mecanim9animation18ClipMuscleConstantEE8TransferI18StreamedBinaryReadEEvRS2_RT_
2393:__ZN7mecanim9animation18ClipMuscleConstant8TransferI18StreamedBinaryReadEEvRT_
2394:__ZN18StreamedBinaryRead8TransferIN7mecanim5human9HumanPoseEEEvRT_PKc17TransferMetaFlags
2395:__ZN18StreamedBinaryRead8TransferIN4math4trsXEEEvRT_PKc17TransferMetaFlags
2396:__ZN18StreamedBinaryRead8TransferIKN4math7_float3EEEvRT_PKc17TransferMetaFlags
2397:__ZN18StreamedBinaryRead8TransferI9OffsetPtrIN7mecanim9animation4ClipEEEEvRT_PKc17TransferMetaFlags
2398:__Z13TransferArrayILi200Ei18StreamedBinaryReadEmRAT__T0_PKcRT1_
2399:__Z17TransferOffsetPtrI9OffsetPtrIN7mecanim9animation10ValueDeltaEE18StreamedBinaryReadEvRT_PKcRjRT0_
2400:__Z17TransferOffsetPtrI9OffsetPtrIfE18StreamedBinaryReadEvRT_PKcRjRT0_
2401:__ZN7mecanim9animation18ClipMuscleConstant30TransferBackwardsCompatibilityI18StreamedBinaryReadEEvRT_
2402:__ZN18StreamedBinaryRead8TransferI22OffsetPtrArrayTransferIfEEEvRT_PKc17TransferMetaFlags
2403:__ZN15SerializeTraitsI22OffsetPtrArrayTransferIfEE8TransferI18StreamedBinaryReadEEvRS1_RT_
2404:__ZN18StreamedBinaryRead21TransferSTLStyleArrayI22OffsetPtrArrayTransferIfEEEvRT_17TransferMetaFlags
2405:__ZN15SerializeTraitsI22OffsetPtrArrayTransferIfEE19ResizeSTLStyleArrayERS1_i
2406:__ZN22OffsetPtrArrayTransferIfE6resizeEi
2407:__ZN18StreamedBinaryRead8TransferI22OffsetPtrArrayTransferIN7mecanim9animation10ValueDeltaEEEEvRT_PKc17TransferMetaFlags
2408:__ZN15SerializeTraitsI22OffsetPtrArrayTransferIN7mecanim9animation10ValueDeltaEEE8TransferI18StreamedBinaryReadEEvRS4_RT_
2409:__ZN18StreamedBinaryRead21TransferSTLStyleArrayI22OffsetPtrArrayTransferIN7mecanim9animation10ValueDeltaEEEEvRT_17TransferMetaFlags
2410:__ZN18StreamedBinaryRead8TransferIN7mecanim9animation10ValueDeltaEEEvRT_PKc17TransferMetaFlags
2411:__ZN15SerializeTraitsIN7mecanim9animation10ValueDeltaEE8TransferI18StreamedBinaryReadEEvRS2_RT_
2412:__ZN7mecanim9animation10ValueDelta8TransferI18StreamedBinaryReadEEvRT_
2413:__ZN18StreamedBinaryRead8TransferI19StaticArrayTransferIiLi200EEEEvRT_PKc17TransferMetaFlags
2414:__ZN15SerializeTraitsI19StaticArrayTransferIiLi200EEE8TransferI18StreamedBinaryReadEEvRS1_RT_
2415:__ZN18StreamedBinaryRead21TransferSTLStyleArrayI19StaticArrayTransferIiLi200EEEEvRT_17TransferMetaFlags
2416:__ZN15SerializeTraitsI9OffsetPtrIN7mecanim9animation4ClipEEE8TransferI18StreamedBinaryReadEEvRS4_RT_
2417:__ZN18StreamedBinaryRead8TransferIN7mecanim9animation4ClipEEEvRT_PKc17TransferMetaFlags
2418:__ZN15SerializeTraitsIN7mecanim9animation4ClipEE8TransferI18StreamedBinaryReadEEvRS2_RT_
2419:__ZN7mecanim9animation4Clip8TransferI18StreamedBinaryReadEEvRT_
2420:__ZN18StreamedBinaryRead8TransferIN7mecanim9animation12StreamedClipEEEvRT_PKc17TransferMetaFlags
2421:__ZN18StreamedBinaryRead8TransferIN7mecanim9animation9DenseClipEEEvRT_PKc17TransferMetaFlags
2422:__ZN18StreamedBinaryRead8TransferIN7mecanim9animation12ConstantClipEEEvRT_PKc17TransferMetaFlags
2423:__ZN15SerializeTraitsIN7mecanim9animation12ConstantClipEE8TransferI18StreamedBinaryReadEEvRS2_RT_
2424:__ZN7mecanim9animation12ConstantClip8TransferI18StreamedBinaryReadEEvRT_
2425:__ZN15SerializeTraitsIN7mecanim9animation9DenseClipEE8TransferI18StreamedBinaryReadEEvRS2_RT_
2426:__ZN7mecanim9animation9DenseClip8TransferI18StreamedBinaryReadEEvRT_
2427:__ZN15SerializeTraitsIN7mecanim9animation12StreamedClipEE8TransferI18StreamedBinaryReadEEvRS2_RT_
2428:__ZN7mecanim9animation12StreamedClip8TransferI18StreamedBinaryReadEEvRT_
2429:__Z17TransferOffsetPtrI9OffsetPtrIjE18StreamedBinaryReadEvRT_PKcRjRT0_
2430:__ZN18StreamedBinaryRead8TransferI22OffsetPtrArrayTransferIjEEEvRT_PKc17TransferMetaFlags
2431:__ZN15SerializeTraitsI22OffsetPtrArrayTransferIjEE8TransferI18StreamedBinaryReadEEvRS1_RT_
2432:__ZN18StreamedBinaryRead21TransferSTLStyleArrayI22OffsetPtrArrayTransferIjEEEvRT_17TransferMetaFlags
2433:__ZN15SerializeTraitsI22OffsetPtrArrayTransferIjEE19ResizeSTLStyleArrayERS1_i
2434:__ZN22OffsetPtrArrayTransferIjE6resizeEi
2435:__ZN20RuntimeBaseAllocator14ConstructArrayIjEEPT_mRKS1_m
2436:__ZNSt3__218uninitialized_fillIPjjEEvT_S2_RKT0_
2437:__ZN15SerializeTraitsIKN4math7_float3EE8TransferI18StreamedBinaryReadEEvRS2_RT_
2438:__ZN15SerializeTraitsIN4math4trsXEE8TransferI18StreamedBinaryReadEEvRS1_RT_
2439:__ZN15SerializeTraitsIN7mecanim5human9HumanPoseEE8TransferI18StreamedBinaryReadEEvRS2_RT_
2440:__ZN7mecanim5human9HumanPose8TransferI18StreamedBinaryReadEEvRT_
2441:__Z13TransferArrayILi4EN7mecanim5human9HumanGoalE18StreamedBinaryReadEmRAT__T0_PKcRT1_
2442:__ZN18StreamedBinaryRead8TransferIN7mecanim4hand8HandPoseEEEvRT_PKc17TransferMetaFlags
2443:__Z13TransferArrayILi55Ef18StreamedBinaryReadEmRAT__T0_PKcRT1_
2444:__Z13TransferArrayILi21EKN4math7_float3E18StreamedBinaryReadEmRAT__T0_PKcRT1_
2445:__ZN7mecanim5human9HumanPose30TransferBackwardsCompatibilityI18StreamedBinaryReadEEvRT_m
2446:__ZN18StreamedBinaryRead8TransferI19StaticArrayTransferIKN4math7_float3ELi21EEEEvRT_PKc17TransferMetaFlags
2447:__ZN15SerializeTraitsI19StaticArrayTransferIKN4math7_float3ELi21EEE8TransferI18StreamedBinaryReadEEvRS4_RT_
2448:__ZN18StreamedBinaryRead21TransferSTLStyleArrayI19StaticArrayTransferIKN4math7_float3ELi21EEEEvRT_17TransferMetaFlags
2449:__ZN18StreamedBinaryRead8TransferI19StaticArrayTransferIfLi55EEEEvRT_PKc17TransferMetaFlags
2450:__ZN15SerializeTraitsI19StaticArrayTransferIfLi55EEE8TransferI18StreamedBinaryReadEEvRS1_RT_
2451:__ZN18StreamedBinaryRead21TransferSTLStyleArrayI19StaticArrayTransferIfLi55EEEEvRT_17TransferMetaFlags
2452:__ZN15SerializeTraitsIN7mecanim4hand8HandPoseEE8TransferI18StreamedBinaryReadEEvRS2_RT_
2453:__ZN7mecanim4hand8HandPose8TransferI18StreamedBinaryReadEEvRT_
2454:__Z13TransferArrayILi20Ef18StreamedBinaryReadEmRAT__T0_PKcRT1_
2455:__ZN18StreamedBinaryRead8TransferI19StaticArrayTransferIfLi20EEEEvRT_PKc17TransferMetaFlags
2456:__ZN15SerializeTraitsI19StaticArrayTransferIfLi20EEE8TransferI18StreamedBinaryReadEEvRS1_RT_
2457:__ZN18StreamedBinaryRead21TransferSTLStyleArrayI19StaticArrayTransferIfLi20EEEEvRT_17TransferMetaFlags
2458:__ZN18StreamedBinaryRead8TransferI19StaticArrayTransferIN7mecanim5human9HumanGoalELi4EEEEvRT_PKc17TransferMetaFlags
2459:__ZN15SerializeTraitsI19StaticArrayTransferIN7mecanim5human9HumanGoalELi4EEE8TransferI18StreamedBinaryReadEEvRS4_RT_
2460:__ZN18StreamedBinaryRead21TransferSTLStyleArrayI19StaticArrayTransferIN7mecanim5human9HumanGoalELi4EEEEvRT_17TransferMetaFlags
2461:__ZN18StreamedBinaryRead8TransferIN7mecanim5human9HumanGoalEEEvRT_PKc17TransferMetaFlags
2462:__ZN15SerializeTraitsIN7mecanim5human9HumanGoalEE8TransferI18StreamedBinaryReadEEvRS2_RT_
2463:__ZN7mecanim5human9HumanGoal8TransferI18StreamedBinaryReadEEvRT_
2464:__ZN15SerializeTraitsI4AABBE8TransferI18StreamedBinaryReadEEvRS0_RT_
2465:__ZN31SerializeTraitsBaseForBasicTypeIfE8TransferI18StreamedBinaryReadEEvRfRT_
2466:__ZN18StreamedBinaryRead17TransferBasicDataIfEEvRT_
2467:__ZN12CachedReader4ReadIfEEvRT_
2468:__ZN15SerializeTraitsINSt3__26vectorIN13AnimationClip9PPtrCurveE13stl_allocatorIS3_L18MemLabelIdentifier30ELi16EEEEE8TransferI18StreamedBinaryReadEEvRS7_RT_
2469:__ZN18StreamedBinaryRead21TransferSTLStyleArrayINSt3__26vectorIN13AnimationClip9PPtrCurveE13stl_allocatorIS4_L18MemLabelIdentifier30ELi16EEEEEEvRT_17TransferMetaFlags
2470:__ZN18StreamedBinaryRead8TransferIN13AnimationClip9PPtrCurveEEEvRT_PKc17TransferMetaFlags
2471:__ZN15SerializeTraitsIN13AnimationClip9PPtrCurveEE8TransferI18StreamedBinaryReadEEvRS1_RT_
2472:__ZN13AnimationClip9PPtrCurve8TransferI18StreamedBinaryReadEEvRT_
2473:__ZN18StreamedBinaryRead8TransferI13dynamic_arrayI12PPtrKeyframeLm0EEEEvRT_PKc17TransferMetaFlags
2474:__ZN18StreamedBinaryRead8TransferIN4core12basic_stringIcNS1_20StringStorageDefaultIcEEEEEEvRT_PKc17TransferMetaFlags
2475:__ZN29SerializeTraitsForStringTypesIN4core12basic_stringIcNS0_20StringStorageDefaultIcEEEEE8TransferI18StreamedBinaryReadEEvRS4_RT_
2476:__ZN15SerializeTraitsI13dynamic_arrayI12PPtrKeyframeLm0EEE8TransferI18StreamedBinaryReadEEvRS2_RT_
2477:__ZN18StreamedBinaryRead21TransferSTLStyleArrayI13dynamic_arrayI12PPtrKeyframeLm0EEEEvRT_17TransferMetaFlags
2478:__ZN18StreamedBinaryRead8TransferI12PPtrKeyframeEEvRT_PKc17TransferMetaFlags
2479:__ZN15SerializeTraitsI12PPtrKeyframeE8TransferI18StreamedBinaryReadEEvRS0_RT_
2480:__ZN12PPtrKeyframe8TransferI18StreamedBinaryReadEEvRT_
2481:__ZN15SerializeTraitsINSt3__26vectorIN13AnimationClip10FloatCurveE13stl_allocatorIS3_L18MemLabelIdentifier30ELi16EEEEE8TransferI18StreamedBinaryReadEEvRS7_RT_
2482:__ZN18StreamedBinaryRead21TransferSTLStyleArrayINSt3__26vectorIN13AnimationClip10FloatCurveE13stl_allocatorIS4_L18MemLabelIdentifier30ELi16EEEEEEvRT_17TransferMetaFlags
2483:__ZN18StreamedBinaryRead8TransferIN13AnimationClip10FloatCurveEEEvRT_PKc17TransferMetaFlags
2484:__ZN15SerializeTraitsIN13AnimationClip10FloatCurveEE8TransferI18StreamedBinaryReadEEvRS1_RT_
2485:__ZN13AnimationClip10FloatCurve8TransferI18StreamedBinaryReadEEvRT_
2486:__ZN18StreamedBinaryRead8TransferI17AnimationCurveTplIfEEEvRT_PKc17TransferMetaFlags
2487:__ZN15SerializeTraitsI17AnimationCurveTplIfEE8TransferI18StreamedBinaryReadEEvRS1_RT_
2488:__ZN17AnimationCurveTplIfE8TransferI18StreamedBinaryReadEEvRT_
2489:__ZN18StreamedBinaryRead8TransferI13dynamic_arrayI11KeyframeTplIfELm0EEEEvRT_PKc17TransferMetaFlags
2490:__ZN15SerializeTraitsI13dynamic_arrayI11KeyframeTplIfELm0EEE8TransferI18StreamedBinaryReadEEvRS3_RT_
2491:__ZN18StreamedBinaryRead21TransferSTLStyleArrayI13dynamic_arrayI11KeyframeTplIfELm0EEEEvRT_17TransferMetaFlags
2492:__ZN15SerializeTraitsINSt3__26vectorIN13AnimationClip12Vector3CurveE13stl_allocatorIS3_L18MemLabelIdentifier30ELi16EEEEE8TransferI18StreamedBinaryReadEEvRS7_RT_
2493:__ZN18StreamedBinaryRead21TransferSTLStyleArrayINSt3__26vectorIN13AnimationClip12Vector3CurveE13stl_allocatorIS4_L18MemLabelIdentifier30ELi16EEEEEEvRT_17TransferMetaFlags
2494:__ZN18StreamedBinaryRead8TransferIN13AnimationClip12Vector3CurveEEEvRT_PKc17TransferMetaFlags
2495:__ZN15SerializeTraitsIN13AnimationClip12Vector3CurveEE8TransferI18StreamedBinaryReadEEvRS1_RT_
2496:__ZN13AnimationClip12Vector3Curve8TransferI18StreamedBinaryReadEEvRT_
2497:__ZN18StreamedBinaryRead8TransferI17AnimationCurveTplI8Vector3fEEEvRT_PKc17TransferMetaFlags
2498:__ZN15SerializeTraitsI17AnimationCurveTplI8Vector3fEE8TransferI18StreamedBinaryReadEEvRS2_RT_
2499:__ZN17AnimationCurveTplI8Vector3fE8TransferI18StreamedBinaryReadEEvRT_
2500:__ZN18StreamedBinaryRead8TransferI13dynamic_arrayI11KeyframeTplI8Vector3fELm0EEEEvRT_PKc17TransferMetaFlags
2501:__ZN15SerializeTraitsI13dynamic_arrayI11KeyframeTplI8Vector3fELm0EEE8TransferI18StreamedBinaryReadEEvRS4_RT_
2502:__ZN18StreamedBinaryRead21TransferSTLStyleArrayI13dynamic_arrayI11KeyframeTplI8Vector3fELm0EEEEvRT_17TransferMetaFlags
2503:__ZN15SerializeTraitsINSt3__26vectorI24CompressedAnimationCurve13stl_allocatorIS2_L18MemLabelIdentifier30ELi16EEEEE8TransferI18StreamedBinaryReadEEvRS6_RT_
2504:__ZN18StreamedBinaryRead21TransferSTLStyleArrayINSt3__26vectorI24CompressedAnimationCurve13stl_allocatorIS3_L18MemLabelIdentifier30ELi16EEEEEEvRT_17TransferMetaFlags
2505:__ZN18StreamedBinaryRead8TransferI24CompressedAnimationCurveEEvRT_PKc17TransferMetaFlags
2506:__ZN15SerializeTraitsI24CompressedAnimationCurveE8TransferI18StreamedBinaryReadEEvRS0_RT_
2507:__ZN24CompressedAnimationCurve8TransferI18StreamedBinaryReadEEvRT_
2508:__ZN18StreamedBinaryRead8TransferI15PackedIntVectorEEvRT_PKc17TransferMetaFlags
2509:__ZN18StreamedBinaryRead8TransferI16PackedQuatVectorEEvRT_PKc17TransferMetaFlags
2510:__ZN18StreamedBinaryRead8TransferI17PackedFloatVectorEEvRT_PKc17TransferMetaFlags
2511:__ZN15SerializeTraitsI17PackedFloatVectorE8TransferI18StreamedBinaryReadEEvRS0_RT_
2512:__ZN17PackedFloatVector8TransferI18StreamedBinaryReadEEvRT_
2513:__ZN15SerializeTraitsI16PackedQuatVectorE8TransferI18StreamedBinaryReadEEvRS0_RT_
2514:__ZN16PackedQuatVector8TransferI18StreamedBinaryReadEEvRT_
2515:__ZN15SerializeTraitsI15PackedIntVectorE8TransferI18StreamedBinaryReadEEvRS0_RT_
2516:__ZN15PackedIntVector8TransferI18StreamedBinaryReadEEvRT_
2517:__ZN15SerializeTraitsINSt3__26vectorIN13AnimationClip15QuaternionCurveE13stl_allocatorIS3_L18MemLabelIdentifier30ELi16EEEEE8TransferI18StreamedBinaryReadEEvRS7_RT_
2518:__ZN18StreamedBinaryRead21TransferSTLStyleArrayINSt3__26vectorIN13AnimationClip15QuaternionCurveE13stl_allocatorIS4_L18MemLabelIdentifier30ELi16EEEEEEvRT_17TransferMetaFlags
2519:__ZN18StreamedBinaryRead8TransferIN13AnimationClip15QuaternionCurveEEEvRT_PKc17TransferMetaFlags
2520:__ZN15SerializeTraitsIN13AnimationClip15QuaternionCurveEE8TransferI18StreamedBinaryReadEEvRS1_RT_
2521:__ZN13AnimationClip15QuaternionCurve8TransferI18StreamedBinaryReadEEvRT_
2522:__ZN18StreamedBinaryRead8TransferI17AnimationCurveTplI11QuaternionfEEEvRT_PKc17TransferMetaFlags
2523:__ZN15SerializeTraitsI17AnimationCurveTplI11QuaternionfEE8TransferI18StreamedBinaryReadEEvRS2_RT_
2524:__ZN17AnimationCurveTplI11QuaternionfE8TransferI18StreamedBinaryReadEEvRT_
2525:__ZN18StreamedBinaryRead8TransferI13dynamic_arrayI11KeyframeTplI11QuaternionfELm0EEEEvRT_PKc17TransferMetaFlags
2526:__ZN15SerializeTraitsI13dynamic_arrayI11KeyframeTplI11QuaternionfELm0EEE8TransferI18StreamedBinaryReadEEvRS4_RT_
2527:__ZN18StreamedBinaryRead21TransferSTLStyleArrayI13dynamic_arrayI11KeyframeTplI11QuaternionfELm0EEEEvRT_17TransferMetaFlags
2528:__ZN15SerializeTraitsIbE8TransferI18StreamedBinaryReadEEvRbRT_
2529:__ZN19StreamedBinaryWrite12TransferBaseI13AnimationClipEEvRT_17TransferMetaFlags
2530:__ZN19StreamedBinaryWrite8TransferI13AnimationClipEEvRT_PKc17TransferMetaFlags
2531:__ZN15SerializeTraitsI13AnimationClipE8TransferI19StreamedBinaryWriteEEvRS0_RT_
2532:__ZN13AnimationClip8TransferI19StreamedBinaryWriteEEvRT_
2533:__ZN19StreamedBinaryWrite8TransferIbEEvRT_PKc17TransferMetaFlags
2534:__ZN19StreamedBinaryWrite8TransferINSt3__26vectorIN13AnimationClip15QuaternionCurveE13stl_allocatorIS4_L18MemLabelIdentifier30ELi16EEEEEEvRT_PKc17TransferMetaFlags
2535:__ZN19StreamedBinaryWrite8TransferINSt3__26vectorI24CompressedAnimationCurve13stl_allocatorIS3_L18MemLabelIdentifier30ELi16EEEEEEvRT_PKc17TransferMetaFlags
2536:__ZN19StreamedBinaryWrite8TransferINSt3__26vectorIN13AnimationClip12Vector3CurveE13stl_allocatorIS4_L18MemLabelIdentifier30ELi16EEEEEEvRT_PKc17TransferMetaFlags
2537:__ZN19StreamedBinaryWrite8TransferINSt3__26vectorIN13AnimationClip10FloatCurveE13stl_allocatorIS4_L18MemLabelIdentifier30ELi16EEEEEEvRT_PKc17TransferMetaFlags
2538:__ZN19StreamedBinaryWrite8TransferINSt3__26vectorIN13AnimationClip9PPtrCurveE13stl_allocatorIS4_L18MemLabelIdentifier30ELi16EEEEEEvRT_PKc17TransferMetaFlags
2539:__ZN19StreamedBinaryWrite8TransferIfEEvRT_PKc17TransferMetaFlags
2540:__Z32TransferEnumWithNameForceIntSizeI19StreamedBinaryWrite8WrapModeEvRT_RT0_PKc17TransferMetaFlags
2541:__ZN19StreamedBinaryWrite8TransferI4AABBEEvRT_PKc17TransferMetaFlags
2542:__ZN19StreamedBinaryWrite8TransferIiEEvRT_PKc17TransferMetaFlags
2543:__Z21TransferBlobSerializeIN7mecanim9animation18ClipMuscleConstantE19StreamedBinaryWriteEvRPT_PKcRjS8_RT0_
2544:__ZN19StreamedBinaryWrite8TransferIN11UnityEngine9Animation28AnimationClipBindingConstantEEEvRT_PKc17TransferMetaFlags
2545:__ZN19StreamedBinaryWrite8TransferINSt3__26vectorI14AnimationEvent13stl_allocatorIS3_L18MemLabelIdentifier30ELi16EEEEEEvRT_PKc17TransferMetaFlags
2546:__ZN15SerializeTraitsINSt3__26vectorI14AnimationEvent13stl_allocatorIS2_L18MemLabelIdentifier30ELi16EEEEE8TransferI19StreamedBinaryWriteEEvRS6_RT_
2547:__ZN19StreamedBinaryWrite21TransferSTLStyleArrayINSt3__26vectorI14AnimationEvent13stl_allocatorIS3_L18MemLabelIdentifier30ELi16EEEEEEvRT_17TransferMetaFlags
2548:__ZN19StreamedBinaryWrite8TransferI14AnimationEventEEvRT_PKc17TransferMetaFlags
2549:__ZN15SerializeTraitsI14AnimationEventE8TransferI19StreamedBinaryWriteEEvRS0_RT_
2550:__ZN14AnimationEvent8TransferI19StreamedBinaryWriteEEvRT_
2551:__ZN15SerializeTraitsIN11UnityEngine9Animation28AnimationClipBindingConstantEE8TransferI19StreamedBinaryWriteEEvRS2_RT_
2552:__ZN11UnityEngine9Animation28AnimationClipBindingConstant8TransferI19StreamedBinaryWriteEEvRT_
2553:__ZN19StreamedBinaryWrite8TransferI13dynamic_arrayIN11UnityEngine9Animation14GenericBindingELm0EEEEvRT_PKc17TransferMetaFlags
2554:__ZN19StreamedBinaryWrite8TransferI13dynamic_arrayI4PPtrI6ObjectELm0EEEEvRT_PKc17TransferMetaFlags
2555:__ZN15SerializeTraitsI13dynamic_arrayI4PPtrI6ObjectELm0EEE8TransferI19StreamedBinaryWriteEEvRS4_RT_
2556:__ZN19StreamedBinaryWrite21TransferSTLStyleArrayI13dynamic_arrayI4PPtrI6ObjectELm0EEEEvRT_17TransferMetaFlags
2557:__ZN19StreamedBinaryWrite8TransferI4PPtrI6ObjectEEEvRT_PKc17TransferMetaFlags
2558:__ZN15SerializeTraitsI4PPtrI6ObjectEE8TransferI19StreamedBinaryWriteEEvRS2_RT_
2559:__ZN4PPtrI6ObjectE8TransferI19StreamedBinaryWriteEEvRT_
2560:__ZN15SerializeTraitsI13dynamic_arrayIN11UnityEngine9Animation14GenericBindingELm0EEE8TransferI19StreamedBinaryWriteEEvRS4_RT_
2561:__ZN19StreamedBinaryWrite21TransferSTLStyleArrayI13dynamic_arrayIN11UnityEngine9Animation14GenericBindingELm0EEEEvRT_17TransferMetaFlags
2562:__ZN19StreamedBinaryWrite8TransferIN11UnityEngine9Animation14GenericBindingEEEvRT_PKc17TransferMetaFlags
2563:__ZN15SerializeTraitsIN11UnityEngine9Animation14GenericBindingEE8TransferI19StreamedBinaryWriteEEvRS2_RT_
2564:__ZN11UnityEngine9Animation14GenericBinding8TransferI19StreamedBinaryWriteEEvRT_
2565:__ZN19StreamedBinaryWrite8TransferIPKN5Unity4TypeEEEvRT_PKc17TransferMetaFlags
2566:__ZN19StreamedBinaryWrite8TransferIhEEvRT_PKc17TransferMetaFlags
2567:__ZN31SerializeTraitsBaseForBasicTypeIhE8TransferI19StreamedBinaryWriteEEvRhRT_
2568:__ZN19StreamedBinaryWrite17TransferBasicDataIhEEvRT_
2569:__ZN12CachedWriter5WriteIhEEvRKT_
2570:__ZN15SerializeTraitsIPKN5Unity4TypeEE8TransferI19StreamedBinaryWriteEEvRS3_RT_
2571:__ZN19StreamedBinaryWrite17TransferBasicDataIiEEvRT_
2572:__ZN12CachedWriter5WriteIiEEvRKT_
2573:__ZN31SerializeTraitsBaseForBasicTypeIjE8TransferI19StreamedBinaryWriteEEvRjRT_
2574:__ZN19StreamedBinaryWrite8TransferIN7mecanim9animation18ClipMuscleConstantEEEvRT_PKc17TransferMetaFlags
2575:__ZN15SerializeTraitsIN7mecanim9animation18ClipMuscleConstantEE8TransferI19StreamedBinaryWriteEEvRS2_RT_
2576:__ZN7mecanim9animation18ClipMuscleConstant8TransferI19StreamedBinaryWriteEEvRT_
2577:__ZN19StreamedBinaryWrite8TransferIN7mecanim5human9HumanPoseEEEvRT_PKc17TransferMetaFlags
2578:__ZN19StreamedBinaryWrite8TransferIN4math4trsXEEEvRT_PKc17TransferMetaFlags
2579:__ZN19StreamedBinaryWrite8TransferIKN4math7_float3EEEvRT_PKc17TransferMetaFlags
2580:__ZN19StreamedBinaryWrite8TransferI9OffsetPtrIN7mecanim9animation4ClipEEEEvRT_PKc17TransferMetaFlags
2581:__Z13TransferArrayILi200Ei19StreamedBinaryWriteEmRAT__T0_PKcRT1_
2582:__Z17TransferOffsetPtrI9OffsetPtrIN7mecanim9animation10ValueDeltaEE19StreamedBinaryWriteEvRT_PKcRjRT0_
2583:__Z17TransferOffsetPtrI9OffsetPtrIfE19StreamedBinaryWriteEvRT_PKcRjRT0_
2584:__ZN19StreamedBinaryWrite8TransferI22OffsetPtrArrayTransferIfEEEvRT_PKc17TransferMetaFlags
2585:__ZN15SerializeTraitsI22OffsetPtrArrayTransferIfEE8TransferI19StreamedBinaryWriteEEvRS1_RT_
2586:__ZN19StreamedBinaryWrite21TransferSTLStyleArrayI22OffsetPtrArrayTransferIfEEEvRT_17TransferMetaFlags
2587:__ZN19StreamedBinaryWrite8TransferI22OffsetPtrArrayTransferIN7mecanim9animation10ValueDeltaEEEEvRT_PKc17TransferMetaFlags
2588:__ZN15SerializeTraitsI22OffsetPtrArrayTransferIN7mecanim9animation10ValueDeltaEEE8TransferI19StreamedBinaryWriteEEvRS4_RT_
2589:__ZN19StreamedBinaryWrite21TransferSTLStyleArrayI22OffsetPtrArrayTransferIN7mecanim9animation10ValueDeltaEEEEvRT_17TransferMetaFlags
2590:__ZN19StreamedBinaryWrite8TransferIN7mecanim9animation10ValueDeltaEEEvRT_PKc17TransferMetaFlags
2591:__ZN15SerializeTraitsIN7mecanim9animation10ValueDeltaEE8TransferI19StreamedBinaryWriteEEvRS2_RT_
2592:__ZN7mecanim9animation10ValueDelta8TransferI19StreamedBinaryWriteEEvRT_
2593:__ZN19StreamedBinaryWrite8TransferI19StaticArrayTransferIiLi200EEEEvRT_PKc17TransferMetaFlags
2594:__ZN15SerializeTraitsI19StaticArrayTransferIiLi200EEE8TransferI19StreamedBinaryWriteEEvRS1_RT_
2595:__ZN19StreamedBinaryWrite21TransferSTLStyleArrayI19StaticArrayTransferIiLi200EEEEvRT_17TransferMetaFlags
2596:__ZN15SerializeTraitsI9OffsetPtrIN7mecanim9animation4ClipEEE8TransferI19StreamedBinaryWriteEEvRS4_RT_
2597:__ZN19StreamedBinaryWrite8TransferIN7mecanim9animation4ClipEEEvRT_PKc17TransferMetaFlags
2598:__ZN15SerializeTraitsIN7mecanim9animation4ClipEE8TransferI19StreamedBinaryWriteEEvRS2_RT_
2599:__ZN7mecanim9animation4Clip8TransferI19StreamedBinaryWriteEEvRT_
2600:__ZN19StreamedBinaryWrite8TransferIN7mecanim9animation12StreamedClipEEEvRT_PKc17TransferMetaFlags
2601:__ZN19StreamedBinaryWrite8TransferIN7mecanim9animation9DenseClipEEEvRT_PKc17TransferMetaFlags
2602:__ZN19StreamedBinaryWrite8TransferIN7mecanim9animation12ConstantClipEEEvRT_PKc17TransferMetaFlags
2603:__ZN15SerializeTraitsIN7mecanim9animation12ConstantClipEE8TransferI19StreamedBinaryWriteEEvRS2_RT_
2604:__ZN7mecanim9animation12ConstantClip8TransferI19StreamedBinaryWriteEEvRT_
2605:__ZN15SerializeTraitsIN7mecanim9animation9DenseClipEE8TransferI19StreamedBinaryWriteEEvRS2_RT_
2606:__ZN7mecanim9animation9DenseClip8TransferI19StreamedBinaryWriteEEvRT_
2607:__ZN15SerializeTraitsIN7mecanim9animation12StreamedClipEE8TransferI19StreamedBinaryWriteEEvRS2_RT_
2608:__ZN7mecanim9animation12StreamedClip8TransferI19StreamedBinaryWriteEEvRT_
2609:__Z17TransferOffsetPtrI9OffsetPtrIjE19StreamedBinaryWriteEvRT_PKcRjRT0_
2610:__ZN19StreamedBinaryWrite8TransferI22OffsetPtrArrayTransferIjEEEvRT_PKc17TransferMetaFlags
2611:__ZN15SerializeTraitsI22OffsetPtrArrayTransferIjEE8TransferI19StreamedBinaryWriteEEvRS1_RT_
2612:__ZN19StreamedBinaryWrite21TransferSTLStyleArrayI22OffsetPtrArrayTransferIjEEEvRT_17TransferMetaFlags
2613:__ZN15SerializeTraitsIKN4math7_float3EE8TransferI19StreamedBinaryWriteEEvRS2_RT_
2614:__ZN15SerializeTraitsIN4math4trsXEE8TransferI19StreamedBinaryWriteEEvRS1_RT_
2615:__ZN15SerializeTraitsIN7mecanim5human9HumanPoseEE8TransferI19StreamedBinaryWriteEEvRS2_RT_
2616:__ZN7mecanim5human9HumanPose8TransferI19StreamedBinaryWriteEEvRT_
2617:__ZN19StreamedBinaryWrite8TransferIKN4math7_float4EEEvRT_PKc17TransferMetaFlags
2618:__Z13TransferArrayILi4EN7mecanim5human9HumanGoalE19StreamedBinaryWriteEmRAT__T0_PKcRT1_
2619:__ZN19StreamedBinaryWrite8TransferIN7mecanim4hand8HandPoseEEEvRT_PKc17TransferMetaFlags
2620:__Z13TransferArrayILi55Ef19StreamedBinaryWriteEmRAT__T0_PKcRT1_
2621:__Z13TransferArrayILi21EKN4math7_float3E19StreamedBinaryWriteEmRAT__T0_PKcRT1_
2622:__ZN19StreamedBinaryWrite8TransferI19StaticArrayTransferIKN4math7_float3ELi21EEEEvRT_PKc17TransferMetaFlags
2623:__ZN15SerializeTraitsI19StaticArrayTransferIKN4math7_float3ELi21EEE8TransferI19StreamedBinaryWriteEEvRS4_RT_
2624:__ZN19StreamedBinaryWrite21TransferSTLStyleArrayI19StaticArrayTransferIKN4math7_float3ELi21EEEEvRT_17TransferMetaFlags
2625:__ZN19StreamedBinaryWrite8TransferI19StaticArrayTransferIfLi55EEEEvRT_PKc17TransferMetaFlags
2626:__ZN15SerializeTraitsI19StaticArrayTransferIfLi55EEE8TransferI19StreamedBinaryWriteEEvRS1_RT_
2627:__ZN19StreamedBinaryWrite21TransferSTLStyleArrayI19StaticArrayTransferIfLi55EEEEvRT_17TransferMetaFlags
2628:__ZN15SerializeTraitsIN7mecanim4hand8HandPoseEE8TransferI19StreamedBinaryWriteEEvRS2_RT_
2629:__ZN7mecanim4hand8HandPose8TransferI19StreamedBinaryWriteEEvRT_
2630:__Z13TransferArrayILi20Ef19StreamedBinaryWriteEmRAT__T0_PKcRT1_
2631:__ZN19StreamedBinaryWrite8TransferI19StaticArrayTransferIN7mecanim5human9HumanGoalELi4EEEEvRT_PKc17TransferMetaFlags
2632:__ZN15SerializeTraitsI19StaticArrayTransferIN7mecanim5human9HumanGoalELi4EEE8TransferI19StreamedBinaryWriteEEvRS4_RT_
2633:__ZN19StreamedBinaryWrite21TransferSTLStyleArrayI19StaticArrayTransferIN7mecanim5human9HumanGoalELi4EEEEvRT_17TransferMetaFlags
2634:__ZN19StreamedBinaryWrite8TransferIN7mecanim5human9HumanGoalEEEvRT_PKc17TransferMetaFlags
2635:__ZN15SerializeTraitsIN7mecanim5human9HumanGoalEE8TransferI19StreamedBinaryWriteEEvRS2_RT_
2636:__ZN7mecanim5human9HumanGoal8TransferI19StreamedBinaryWriteEEvRT_
2637:__ZN15SerializeTraitsI4AABBE8TransferI19StreamedBinaryWriteEEvRS0_RT_
2638:__ZN31SerializeTraitsBaseForBasicTypeIfE8TransferI19StreamedBinaryWriteEEvRfRT_
2639:__ZN19StreamedBinaryWrite17TransferBasicDataIfEEvRT_
2640:__ZN12CachedWriter5WriteIfEEvRKT_
2641:__ZN15SerializeTraitsINSt3__26vectorIN13AnimationClip9PPtrCurveE13stl_allocatorIS3_L18MemLabelIdentifier30ELi16EEEEE8TransferI19StreamedBinaryWriteEEvRS7_RT_
2642:__ZN19StreamedBinaryWrite21TransferSTLStyleArrayINSt3__26vectorIN13AnimationClip9PPtrCurveE13stl_allocatorIS4_L18MemLabelIdentifier30ELi16EEEEEEvRT_17TransferMetaFlags
2643:__ZN19StreamedBinaryWrite8TransferIN13AnimationClip9PPtrCurveEEEvRT_PKc17TransferMetaFlags
2644:__ZN15SerializeTraitsIN13AnimationClip9PPtrCurveEE8TransferI19StreamedBinaryWriteEEvRS1_RT_
2645:__ZN13AnimationClip9PPtrCurve8TransferI19StreamedBinaryWriteEEvRT_
2646:__ZN19StreamedBinaryWrite8TransferI13dynamic_arrayI12PPtrKeyframeLm0EEEEvRT_PKc17TransferMetaFlags
2647:__ZN19StreamedBinaryWrite8TransferIN4core12basic_stringIcNS1_20StringStorageDefaultIcEEEEEEvRT_PKc17TransferMetaFlags
2648:__ZN29SerializeTraitsForStringTypesIN4core12basic_stringIcNS0_20StringStorageDefaultIcEEEEE8TransferI19StreamedBinaryWriteEEvRS4_RT_
2649:__ZN15SerializeTraitsI13dynamic_arrayI12PPtrKeyframeLm0EEE8TransferI19StreamedBinaryWriteEEvRS2_RT_
2650:__ZN19StreamedBinaryWrite21TransferSTLStyleArrayI13dynamic_arrayI12PPtrKeyframeLm0EEEEvRT_17TransferMetaFlags
2651:__ZN19StreamedBinaryWrite8TransferI12PPtrKeyframeEEvRT_PKc17TransferMetaFlags
2652:__ZN15SerializeTraitsI12PPtrKeyframeE8TransferI19StreamedBinaryWriteEEvRS0_RT_
2653:__ZN12PPtrKeyframe8TransferI19StreamedBinaryWriteEEvRT_
2654:__ZN15SerializeTraitsINSt3__26vectorIN13AnimationClip10FloatCurveE13stl_allocatorIS3_L18MemLabelIdentifier30ELi16EEEEE8TransferI19StreamedBinaryWriteEEvRS7_RT_
2655:__ZN19StreamedBinaryWrite21TransferSTLStyleArrayINSt3__26vectorIN13AnimationClip10FloatCurveE13stl_allocatorIS4_L18MemLabelIdentifier30ELi16EEEEEEvRT_17TransferMetaFlags
2656:__ZN19StreamedBinaryWrite8TransferIN13AnimationClip10FloatCurveEEEvRT_PKc17TransferMetaFlags
2657:__ZN15SerializeTraitsIN13AnimationClip10FloatCurveEE8TransferI19StreamedBinaryWriteEEvRS1_RT_
2658:__ZN13AnimationClip10FloatCurve8TransferI19StreamedBinaryWriteEEvRT_
2659:__ZN19StreamedBinaryWrite8TransferI17AnimationCurveTplIfEEEvRT_PKc17TransferMetaFlags
2660:__ZN15SerializeTraitsI17AnimationCurveTplIfEE8TransferI19StreamedBinaryWriteEEvRS1_RT_
2661:__ZN17AnimationCurveTplIfE8TransferI19StreamedBinaryWriteEEvRT_
2662:__ZN19StreamedBinaryWrite8TransferI13dynamic_arrayI11KeyframeTplIfELm0EEEEvRT_PKc17TransferMetaFlags
2663:__ZN15SerializeTraitsI13dynamic_arrayI11KeyframeTplIfELm0EEE8TransferI19StreamedBinaryWriteEEvRS3_RT_
2664:__ZN19StreamedBinaryWrite21TransferSTLStyleArrayI13dynamic_arrayI11KeyframeTplIfELm0EEEEvRT_17TransferMetaFlags
2665:__ZN19StreamedBinaryWrite8TransferI11KeyframeTplIfEEEvRT_PKc17TransferMetaFlags
2666:__ZN15SerializeTraitsI11KeyframeTplIfEE8TransferI19StreamedBinaryWriteEEvRS1_RT_
2667:__ZN11KeyframeTplIfE8TransferI19StreamedBinaryWriteEEvRT_
2668:__ZN15SerializeTraitsINSt3__26vectorIN13AnimationClip12Vector3CurveE13stl_allocatorIS3_L18MemLabelIdentifier30ELi16EEEEE8TransferI19StreamedBinaryWriteEEvRS7_RT_
2669:__ZN19StreamedBinaryWrite21TransferSTLStyleArrayINSt3__26vectorIN13AnimationClip12Vector3CurveE13stl_allocatorIS4_L18MemLabelIdentifier30ELi16EEEEEEvRT_17TransferMetaFlags
2670:__ZN19StreamedBinaryWrite8TransferIN13AnimationClip12Vector3CurveEEEvRT_PKc17TransferMetaFlags
2671:__ZN15SerializeTraitsIN13AnimationClip12Vector3CurveEE8TransferI19StreamedBinaryWriteEEvRS1_RT_
2672:__ZN13AnimationClip12Vector3Curve8TransferI19StreamedBinaryWriteEEvRT_
2673:__ZN19StreamedBinaryWrite8TransferI17AnimationCurveTplI8Vector3fEEEvRT_PKc17TransferMetaFlags
2674:__ZN15SerializeTraitsI17AnimationCurveTplI8Vector3fEE8TransferI19StreamedBinaryWriteEEvRS2_RT_
2675:__ZN17AnimationCurveTplI8Vector3fE8TransferI19StreamedBinaryWriteEEvRT_
2676:__ZN19StreamedBinaryWrite8TransferI13dynamic_arrayI11KeyframeTplI8Vector3fELm0EEEEvRT_PKc17TransferMetaFlags
2677:__ZN15SerializeTraitsI13dynamic_arrayI11KeyframeTplI8Vector3fELm0EEE8TransferI19StreamedBinaryWriteEEvRS4_RT_
2678:__ZN19StreamedBinaryWrite21TransferSTLStyleArrayI13dynamic_arrayI11KeyframeTplI8Vector3fELm0EEEEvRT_17TransferMetaFlags
2679:__ZN19StreamedBinaryWrite8TransferI11KeyframeTplI8Vector3fEEEvRT_PKc17TransferMetaFlags
2680:__ZN15SerializeTraitsI11KeyframeTplI8Vector3fEE8TransferI19StreamedBinaryWriteEEvRS2_RT_
2681:__ZN11KeyframeTplI8Vector3fE8TransferI19StreamedBinaryWriteEEvRT_
2682:__ZN19StreamedBinaryWrite8TransferI8Vector3fEEvRT_PKc17TransferMetaFlags
2683:__ZN15SerializeTraitsI8Vector3fE8TransferI19StreamedBinaryWriteEEvRS0_RT_
2684:__ZN8Vector3f8TransferI19StreamedBinaryWriteEEvRT_
2685:__ZN15SerializeTraitsINSt3__26vectorI24CompressedAnimationCurve13stl_allocatorIS2_L18MemLabelIdentifier30ELi16EEEEE8TransferI19StreamedBinaryWriteEEvRS6_RT_
2686:__ZN19StreamedBinaryWrite21TransferSTLStyleArrayINSt3__26vectorI24CompressedAnimationCurve13stl_allocatorIS3_L18MemLabelIdentifier30ELi16EEEEEEvRT_17TransferMetaFlags
2687:__ZN19StreamedBinaryWrite8TransferI24CompressedAnimationCurveEEvRT_PKc17TransferMetaFlags
2688:__ZN15SerializeTraitsI24CompressedAnimationCurveE8TransferI19StreamedBinaryWriteEEvRS0_RT_
2689:__ZN24CompressedAnimationCurve8TransferI19StreamedBinaryWriteEEvRT_
2690:__ZN19StreamedBinaryWrite8TransferI15PackedIntVectorEEvRT_PKc17TransferMetaFlags
2691:__ZN19StreamedBinaryWrite8TransferI16PackedQuatVectorEEvRT_PKc17TransferMetaFlags
2692:__ZN19StreamedBinaryWrite8TransferI17PackedFloatVectorEEvRT_PKc17TransferMetaFlags
2693:__ZN15SerializeTraitsI17PackedFloatVectorE8TransferI19StreamedBinaryWriteEEvRS0_RT_
2694:__ZN17PackedFloatVector8TransferI19StreamedBinaryWriteEEvRT_
2695:__ZN19StreamedBinaryWrite8TransferI13dynamic_arrayIhLm0EEEEvRT_PKc17TransferMetaFlags
2696:__ZN15SerializeTraitsI13dynamic_arrayIhLm0EEE8TransferI19StreamedBinaryWriteEEvRS1_RT_
2697:__ZN19StreamedBinaryWrite21TransferSTLStyleArrayI13dynamic_arrayIhLm0EEEEvRT_17TransferMetaFlags
2698:__ZN15SerializeTraitsI16PackedQuatVectorE8TransferI19StreamedBinaryWriteEEvRS0_RT_
2699:__ZN16PackedQuatVector8TransferI19StreamedBinaryWriteEEvRT_
2700:__ZN15SerializeTraitsI15PackedIntVectorE8TransferI19StreamedBinaryWriteEEvRS0_RT_
2701:__ZN15PackedIntVector8TransferI19StreamedBinaryWriteEEvRT_
2702:__ZN15SerializeTraitsINSt3__26vectorIN13AnimationClip15QuaternionCurveE13stl_allocatorIS3_L18MemLabelIdentifier30ELi16EEEEE8TransferI19StreamedBinaryWriteEEvRS7_RT_
2703:__ZN19StreamedBinaryWrite21TransferSTLStyleArrayINSt3__26vectorIN13AnimationClip15QuaternionCurveE13stl_allocatorIS4_L18MemLabelIdentifier30ELi16EEEEEEvRT_17TransferMetaFlags
2704:__ZN19StreamedBinaryWrite8TransferIN13AnimationClip15QuaternionCurveEEEvRT_PKc17TransferMetaFlags
2705:__ZN15SerializeTraitsIN13AnimationClip15QuaternionCurveEE8TransferI19StreamedBinaryWriteEEvRS1_RT_
2706:__ZN13AnimationClip15QuaternionCurve8TransferI19StreamedBinaryWriteEEvRT_
2707:__ZN19StreamedBinaryWrite8TransferI17AnimationCurveTplI11QuaternionfEEEvRT_PKc17TransferMetaFlags
2708:__ZN15SerializeTraitsI17AnimationCurveTplI11QuaternionfEE8TransferI19StreamedBinaryWriteEEvRS2_RT_
2709:__ZN17AnimationCurveTplI11QuaternionfE8TransferI19StreamedBinaryWriteEEvRT_
2710:__ZN19StreamedBinaryWrite8TransferI13dynamic_arrayI11KeyframeTplI11QuaternionfELm0EEEEvRT_PKc17TransferMetaFlags
2711:__ZN15SerializeTraitsI13dynamic_arrayI11KeyframeTplI11QuaternionfELm0EEE8TransferI19StreamedBinaryWriteEEvRS4_RT_
2712:__ZN19StreamedBinaryWrite21TransferSTLStyleArrayI13dynamic_arrayI11KeyframeTplI11QuaternionfELm0EEEEvRT_17TransferMetaFlags
2713:__ZN19StreamedBinaryWrite8TransferI11KeyframeTplI11QuaternionfEEEvRT_PKc17TransferMetaFlags
2714:__ZN15SerializeTraitsI11KeyframeTplI11QuaternionfEE8TransferI19StreamedBinaryWriteEEvRS2_RT_
2715:__ZN11KeyframeTplI11QuaternionfE8TransferI19StreamedBinaryWriteEEvRT_
2716:__ZN19StreamedBinaryWrite8TransferI11QuaternionfEEvRT_PKc17TransferMetaFlags
2717:__ZN15SerializeTraitsI11QuaternionfE8TransferI19StreamedBinaryWriteEEvRS0_RT_
2718:__ZN11Quaternionf8TransferI19StreamedBinaryWriteEEvRT_
2719:__ZN15SerializeTraitsIbE8TransferI19StreamedBinaryWriteEEvRbRT_
2720:__ZN4coreneERKNS_12basic_stringIcNS_20StringStorageDefaultIcEEEEPKc
2721:__ZN21AnimationClipSettings5ResetEv
2722:__ZN4ListI8ListNodeI14AnimationStateEE5clearEv
2723:__ZN11MessageDataC2IP13AnimationClipEET_
2724:__ZN6Motion17MainThreadCleanupEv
2725:__ZN14AnimationAsset7ReleaseEv
2726:__ZN22AnimationAssetObserveraSERKS_
2727:__ZN14AnimationAsset11AddObserverEP22AnimationAssetObserver
2728:__ZN18ScriptingObjectPtrC2ERK19ScriptingObjectNull
2729:__ZN11UnityEngine9Animation28AnimationClipBindingConstantD2Ev
2730:__ZN7mecanim6memory16ChainedAllocatorD2Ev
2731:__ZN6MotionD2Ev
2732:__ZN6MotionD0Ev
2733:__ZNK6Motion22GetTypeVirtualInternalEv
2734:__ZN7mecanim6memory16ChainedAllocator5ClearEv
2735:__ZN11UnityEngine9Animation29SetGenericFloatPropertyValuesERKNS0_30AnimatorGenericBindingConstantERKN7mecanim10ValueArrayE
2736:__ZN11UnityEngine9Animation28SetGenericPPtrPropertyValuesERKNS0_30AnimatorGenericBindingConstantERKN7mecanim10ValueArrayE
2737:__ZN11UnityEngine9Animation27SetGenericIntPropertyValuesERKNS0_30AnimatorGenericBindingConstantERKN7mecanim10ValueArrayE
2738:__ZN11UnityEngine9Animation31SetHumanTransformPropertyValuesERKNS0_21AvatarBindingConstantERKN7mecanim8skeleton13SkeletonPoseTIN4math4trsXEEEby
2739:__ZN11UnityEngine9Animation33SetGenericTransformPropertyValuesERKNS0_30AnimatorGenericBindingConstantERKN7mecanim10ValueArrayEP9Transformy
2740:__ZN11UnityEngine9Animation39SetGenericTransformPropertyValuesNoSyncERKNS0_30AnimatorGenericBindingConstantERKN7mecanim10ValueArrayEP9Transformy
2741:__Z10SetLocalTR15TransformAccessRKN4math7_float3ERKNS0_7_float4Ey
2742:__ZN8Animator13BatchedFKPassERK13dynamic_arrayIP14PlayableOutputLm0EE
2743:__ZN8Animator13BatchedIKPassERK13dynamic_arrayIP14PlayableOutputLm0EE
2744:__ZN8Animator13UpdateAvatarsERK13dynamic_arrayIP14PlayableOutputLm0EEbbb
2745:__ZN8Animator9BuildJobsERK13dynamic_arrayIP14PlayableOutputLm0EERS0_INS_11AnimatorJobELm0EEPS7_PS0_IbLm0EESB_PS0_I8JobFenceLm0EEbb
2746:__ZN8Animator12CreateObjectEv
2747:__ZN8Animator23SetPlaybackTimeInternalEf
2748:__ZN21AnimationHandleBinder24ReadPropertySceneHandlesEv
2749:__ZN8Animator20ProcessRootMotionJobEPNS_11AnimatorJobEj
2750:__ZN8Animator19FireAnimationEventsERNS_11AnimatorJobE
2751:__ZN8Animator14FireBehavioursEN7mecanim12statemachine19StateMachineMessageERNS_11AnimatorJobEi
2752:__ZN13dynamic_arrayIN8Animator11AnimatorJobELm0EED2Ev
2753:__ZN26AnimatorControllerPlayable24ClearFirstEvaluationFlagEv
2754:__ZN8Animator19ApplyOnAnimatorMoveERNS_11AnimatorJobE
2755:__ZN8Animator24SortJobsBasedOnHierarchyERK13dynamic_arrayINS_11AnimatorJobELm0EERS0_IS2_Lm0EE
2756:__ZL12GlobalXToTRS23TransformAccessReadOnlyRN4math4trsXE
2757:__ZN8Animator21ProcessAnimationsStepERNS_11AnimatorJobE
2758:__ZN7mecanim9animation22EvaluateAvatarRetargetEPKNS0_14AvatarConstantEPKNS0_11AvatarInputEPNS0_12AvatarOutputEPNS0_12AvatarMemoryEPNS0_15AvatarWorkspaceEb
2759:__ZN8Animator9WriteStepERNS_11AnimatorJobE
2760:__ZN8Animator5IKJobEPNS_11AnimatorJobEj
2761:__ZN8Animator17ApplyOnAnimatorIKEiRNS_11AnimatorJobE
2762:__ZN13dynamic_arrayIS_IN8Animator11AnimatorJobELm0EELm0EED2Ev
2763:__ZN8Animator15WritePropertiesEff
2764:__ZN14AvatarPlayback11RecordFrameEfPKN7mecanim9animation12AvatarMemoryEPNS1_16ControllerMemoryE
2765:__ZN9BlobWrite8TransferIN7mecanim9animation12AvatarMemoryEEEvRT_PKc17TransferMetaFlags
2766:__ZN9BlobWrite8TransferIN7mecanim9animation16ControllerMemoryEEEvRT_PKc17TransferMetaFlags
2767:__ZNSt3__26vectorI11AvatarFrameNS_9allocatorIS1_EEE21__push_back_slow_pathIRKS1_EEvOT_
2768:__ZN7mecanim9animation16ControllerMemory8TransferI8BlobSizeEEvRT_
2769:__ZN7mecanim9animation16ControllerMemory8TransferI9BlobWriteEEvRT_
2770:__ZN9BlobWrite8TransferI22OffsetPtrArrayTransferI9OffsetPtrIN7mecanim12statemachine18StateMachineMemoryEEEEEvRT_PKc17TransferMetaFlags
2771:__ZN9BlobWrite8TransferI9OffsetPtrIN7mecanim10ValueArrayEEEEvRT_PKc17TransferMetaFlags
2772:__ZN7mecanim10ValueArray8TransferI8BlobSizeEEvRT_
2773:__ZN7mecanim10ValueArray8TransferI9BlobWriteEEvRT_
2774:__ZN9BlobWrite8TransferI22OffsetPtrArrayTransferIKN4math7_float3EEEEvRT_PKc17TransferMetaFlags
2775:__ZN9BlobWrite8TransferI22OffsetPtrArrayTransferIKN4math7_float4EEEEvRT_PKc17TransferMetaFlags
2776:__ZN9BlobWrite8TransferI22OffsetPtrArrayTransferIbEEEvRT_PKc17TransferMetaFlags
2777:__ZN34BlobWriteTransferSTLStyleArrayImplI22OffsetPtrArrayTransferIbEEclERS1_17TransferMetaFlagsR9BlobWrite
2778:__ZN34BlobWriteTransferSTLStyleArrayImplI22OffsetPtrArrayTransferIKN4math7_float4EEEclERS4_17TransferMetaFlagsR9BlobWrite
2779:__ZN34BlobWriteTransferSTLStyleArrayImplI22OffsetPtrArrayTransferIKN4math7_float3EEEclERS4_17TransferMetaFlagsR9BlobWrite
2780:__ZN9BlobWrite8TransferI9OffsetPtrIN7mecanim12statemachine18StateMachineMemoryEEEEvRT_PKc17TransferMetaFlags
2781:__ZN7mecanim12statemachine18StateMachineMemory8TransferI8BlobSizeEEvRT_
2782:__ZN7mecanim12statemachine18StateMachineMemory8TransferI9BlobWriteEEvRT_
2783:__ZN7mecanim9animation12AvatarMemory8TransferI8BlobSizeEEvRT_
2784:__ZN7mecanim9animation12AvatarMemory8TransferI9BlobWriteEEvRT_
2785:__ZN7mecanim9animation16EvaluateAvatarIKEPKNS0_14AvatarConstantEPKNS0_11AvatarInputEPNS0_12AvatarOutputEPNS0_12AvatarMemoryEPNS0_15AvatarWorkspaceEb
2786:__ZN7mecanim9animation17EvaluateAvatarEndEPKNS0_14AvatarConstantEPKNS0_11AvatarInputEPNS0_12AvatarOutputEPNS0_12AvatarMemoryEPNS0_15AvatarWorkspaceE
2787:__ZN7mecanim8skeleton16SkeletonPoseCopyIN4math4trsXES3_EEvPKNS0_13SkeletonPoseTIT_EEPNS4_IT0_EE
2788:__ZN7mecanim5human10TwistSolveEPKNS0_5HumanEPNS_8skeleton13SkeletonPoseTIN4math4trsXEEES9_
2789:__ZN7mecanim8skeleton16SkeletonPoseCopyIN4math4trsXES3_EEvPKNS0_13SkeletonPoseTIT_EEPNS4_IT0_EEjPKi
2790:__ZN7mecanim5human13HumanFixTwistEPKNS0_5HumanEPNS_8skeleton13SkeletonPoseTIN4math4trsXEEES9_iiRKf
2791:__ZN7mecanim8skeleton26SkeletonPoseComputeGlobalQEPKNS0_8SkeletonEPKNS0_13SkeletonPoseTIN4math4trsXEEEPS7_ii
2792:__ZN7mecanim8skeleton13SkeletonAlignEPKNS0_8SkeletonERKN4math7_float4ES7_i
2793:__ZN7mecanim8skeleton25SkeletonPoseComputeLocalQEPKNS0_8SkeletonEPKNS0_13SkeletonPoseTIN4math4trsXEEEPS7_ii
2794:__ZN7mecanim5human20HumanGetHintPositionEPKNS0_5HumanEPKNS_8skeleton13SkeletonPoseTIN4math4trsXEEENS0_4GoalE
2795:__ZN7mecanim5human13FullBodySolveEPKNS0_5HumanEPKNS0_9HumanPoseEPNS_8skeleton13SkeletonPoseTIN4math4trsXEEESC_SC_
2796:__ZN7mecanim5human15GetLookAtDeltaQERKN4math7_float3ES4_RKNS1_7_float4ES4_S4_RKf
2797:__ZN7mecanim8skeleton25Skeleton2BoneAdjustLengthEPKNS0_8SkeletonEiiiRKN4math7_float3ERKfPNS0_13SkeletonPoseTINS4_4trsXEEESD_
2798:__ZN7mecanim8skeleton15Skeleton2BoneIKEPKNS0_8SkeletonEiiiRKN4math7_float3EfPNS0_13SkeletonPoseTINS4_4trsXEEESB_
2799:__ZN7mecanim8skeleton23Skeleton2BoneAdjustHintEPKNS0_8SkeletonEiiiRKN4math7_float3EfPNS0_13SkeletonPoseTINS4_4trsXEEESB_f
2800:__ZN7mecanim5human17ReachGoalRotationEPKNS0_5HumanERKN4math7_float4EiPNS_8skeleton13SkeletonPoseTINS4_4trsXEEESC_SC_
2801:__ZN7mecanim5human14HumanFixEndDoFEPKNS0_5HumanEPNS_8skeleton13SkeletonPoseTIN4math4trsXEEES9_iifi
2802:__ZN7mecanim8skeleton14SkeletonGetDoFEPKNS0_8SkeletonEPKNS0_13SkeletonPoseTIN4math4trsXEEEi
2803:__ZN7mecanim8skeleton14SkeletonSetDoFEPKNS0_8SkeletonEPNS0_13SkeletonPoseTIN4math4trsXEEERKNS5_7_float3Ei
2804:__ZN11UnityEngine9Animation37SetHumanTransformPropertyValuesNoSyncERKNS0_21AvatarBindingConstantERKN7mecanim8skeleton13SkeletonPoseTIN4math4trsXEEEby
2805:__ZN7mecanim9animation21SkeletonPoseFromValueIN4math4trsXEEEvRKNS_8skeleton8SkeletonERKNS4_13SkeletonPoseTIS3_EERKNS_10ValueArrayEPKNS0_14SkeletonTQSMapERNS8_IT_EEPKib
2806:__ZN7mecanim8skeleton16SkeletonPoseCopyIN4math4trsXENS2_7affineXEEEvPKNS0_13SkeletonPoseTIT_EEPNS5_IT0_EE
2807:__ZN7mecanim8skeleton25SkeletonPoseComputeGlobalIN4math7affineXEEEvPKNS0_8SkeletonEPKNS0_13SkeletonPoseTIT_EEPS9_
2808:__ZN7mecanim8skeleton25SkeletonGetGlobalRotationEPKNS0_8SkeletonEPKNS0_13SkeletonPoseTIN4math4trsXEEEi
2809:__ZN7mecanim5human10RetargetToEPKNS0_5HumanEPKNS0_9HumanPoseES6_RKN4math4trsXEPS4_PNS_8skeleton13SkeletonPoseTIS8_EESF_
2810:__ZN7mecanim9animation11SetIKOnFeetEbRKNS0_14AvatarConstantERKNS0_11AvatarInputERNS0_12AvatarMemoryERNS0_15AvatarWorkspaceERNS0_12AvatarOutputE
2811:__ZN7mecanim5human30HumanPoseAdjustForMissingBonesEPKNS0_5HumanEPNS0_9HumanPoseE
2812:__ZN7mecanim5human18Human2SkeletonPoseEPKNS0_5HumanEPKNS0_9HumanPoseEPNS_8skeleton13SkeletonPoseTIN4math4trsXEEE
2813:__ZN7mecanim5human14RetargetToTDoFEPKNS0_5HumanEPNS0_9HumanPoseEPKNS_8skeleton13SkeletonPoseTIN4math4trsXEEEPSA_SD_
2814:__ZN7mecanim5human26HumanComputeBoneMassCenterEPKNS0_5HumanEPKNS_8skeleton13SkeletonPoseTIN4math4trsXEEEi
2815:__ZN7mecanim5human23HumanComputeOrientationEPKNS0_5HumanEPKNS_8skeleton13SkeletonPoseTIN4math4trsXEEE
2816:__ZN7mecanim4hand17Hand2SkeletonPoseEPKNS0_4HandEPKNS_8skeleton8SkeletonEPKNS0_8HandPoseEPNS4_13SkeletonPoseTIN4math4trsXEEE
2817:__ZN8Animator22SupportsOnAnimatorMoveEv
2818:__ZN12_GLOBAL__N_121ProcessAnimationBeginER35AnimationPlayableEvaluationConstantR32AnimationPlayableEvaluationInputR33AnimationPlayableEvaluationOutput
2819:__ZN12_GLOBAL__N_119ProcessAnimationMixER33AnimationPlayableEvaluationOutputR35AnimationPlayableEvaluationConstantR32AnimationPlayableEvaluationInputS1_f
2820:__ZN12_GLOBAL__N_119ProcessAnimationEndER35AnimationPlayableEvaluationConstantR32AnimationPlayableEvaluationInputR33AnimationPlayableEvaluationOutput
2821:__ZN12_GLOBAL__N_120ProcessPlayableGraphERN8Animator11AnimatorJobER35AnimationPlayableEvaluationConstantR32AnimationPlayableEvaluationInputR33AnimationPlayableEvaluationOutputPFvS4_R17AnimationPlayableEPFvS4_S6_S8_EPFvS8_S4_S6_S8_fESE_MS9_FvPS3_PS5_PS7_E
2822:__ZN17AnimationPlayable28UpdateInternalStateRecursiveILi3ELb1EEEvPK35AnimationPlayableEvaluationConstant
2823:__ZN12_GLOBAL__N_120PreProcessRootMotionER35AnimationPlayableEvaluationConstantR17AnimationPlayable
2824:__ZN12_GLOBAL__N_122ProcessRootMotionBeginER35AnimationPlayableEvaluationConstantR32AnimationPlayableEvaluationInputR33AnimationPlayableEvaluationOutput
2825:__ZN12_GLOBAL__N_120ProcessRootMotionEndER35AnimationPlayableEvaluationConstantR32AnimationPlayableEvaluationInputR33AnimationPlayableEvaluationOutput
2826:__ZN12_GLOBAL__N_120ProcessRootMotionMixER33AnimationPlayableEvaluationOutputR35AnimationPlayableEvaluationConstantR32AnimationPlayableEvaluationInputS1_f
2827:__ZN27AnimationLayerMixerPlayable13MixRootMotionEP33AnimationPlayableEvaluationOutputP35AnimationPlayableEvaluationConstantP32AnimationPlayableEvaluationInputS1_fb
2828:__ZN27AnimationLayerMixerPlayable22MixRootTransformValuesEP33AnimationPlayableEvaluationOutputP35AnimationPlayableEvaluationConstantP32AnimationPlayableEvaluationInputS1_fb
2829:__ZN27AnimationLayerMixerPlayable9MixValuesILb1EEEvP33AnimationPlayableEvaluationOutputP35AnimationPlayableEvaluationConstantP32AnimationPlayableEvaluationInputS2_f
2830:__ZN7mecanim15InvertValueMaskILb0EEEvPNS_14ValueArrayMaskE
2831:__ZN27AnimationLayerMixerPlayable9MixValuesILb0EEEvP33AnimationPlayableEvaluationOutputP35AnimationPlayableEvaluationConstantP32AnimationPlayableEvaluationInputS2_f
2832:__ZL7JobSortPKN8Animator11AnimatorJobES2_
2833:__ZNSt3__26__sortIRPFbPKN8Animator11AnimatorJobES4_EPS4_EEvT0_S9_T_
2834:__ZN13dynamic_arrayIS_IN8Animator11AnimatorJobELm0EELm0EE4growEv
2835:__ZN13dynamic_arrayIN8Animator11AnimatorJobELm0EE9push_backERKS1_
2836:__ZN13dynamic_arrayIN8Animator11AnimatorJobELm0EE4growEv
2837:__ZN13dynamic_arrayI22AnimationClipEventInfoLm0EE21resize_buffer_nocheckEm12ResizePolicy
2838:__ZNSt3__27__sort4IRPFbPKN8Animator11AnimatorJobES4_EPS4_EEjT0_S9_S9_S9_T_
2839:__ZNSt3__218__insertion_sort_3IRPFbPKN8Animator11AnimatorJobES4_EPS4_EEvT0_S9_T_
2840:__ZNSt3__227__insertion_sort_incompleteIRPFbPKN8Animator11AnimatorJobES4_EPS4_EEbT0_S9_T_
2841:__ZN8Animator22ApplyBuiltinRootMotionERNS_13AvatarDataSetE
2842:__ZN11UnityEngine9Animation37SetGenericRootTransformPropertyValuesERKNS0_30AnimatorGenericBindingConstantERKN7mecanim10ValueArrayER15TransformAccessby
2843:__ZL13TRSToGlobalTR15TransformAccessRKN4math4trsXE
2844:__ZNK26AnimatorControllerPlayable20GetAnimatorStateInfoEi14StateInfoIndexR17AnimatorStateInfo
2845:__ZNK27StateMachineBehaviourPlayer18FireStateBehaviourER17AnimatorStateInfoiN7mecanim12statemachine19StateMachineMessageE
2846:__ZNK26AnimatorControllerPlayable18ValidateLayerIndexEi
2847:__ZN13AnimationClip19FireAnimationEventsEP22AnimationClipEventInfoRN5Unity9ComponentE
2848:__Z9FireEventR14AnimationEventRN5Unity9ComponentEP14AnimationStateP17AnimatorStateInfoP16AnimatorClipInfo
2849:__Z20AnimationEventToMonoRK14AnimationEventR18MonoAnimationEvent
2850:__Z22AnimatorClipInfoToMonoRK16AnimatorClipInfoR20MonoAnimatorClipInfo
2851:__ZN8Animator21ProcessRootMotionStepERNS_11AnimatorJobE
2852:__ZN7mecanim9animation16EvaluateAvatarDXEPKNS0_14AvatarConstantEPKNS0_11AvatarInputEPNS0_12AvatarMemoryEPNS0_15AvatarWorkspaceEPNS0_12AvatarOutputE
2853:__ZN8Animator11TargetMatchEv
2854:__ZN7mecanim9animation23MotionOutputGetVelocityEPKNS0_12MotionOutputE
2855:__ZN7mecanim9animation30MotionOutputGetAngularVelocityEPKNS0_12MotionOutputE
2856:__ZN7mecanim9animation15EvaluateAvatarXEPKNS0_14AvatarConstantEPKNS0_11AvatarInputEPNS0_12AvatarOutputEPNS0_12AvatarMemoryEPNS0_15AvatarWorkspaceE
2857:__ZN7mecanim9animation29MotionOutputGetDeltaTransformEPKNS0_12MotionOutputE
2858:__ZNK26AnimatorControllerPlayable22IsInTransitionInternalEi
2859:__ZNK8Animator20IsInMatchTargetStateEv
2860:__ZN7mecanim5human29HumanGetGoalOrientationOffsetENS0_4GoalE
2861:__ZN7mecanim9animation29MotionOutputSetDeltaTransformEPNS0_12MotionOutputERKN4math4trsXE
2862:__ZNK26AnimatorControllerPlayable21GetStateMachineMemoryEi
2863:__ZN11UnityEngine9Animation28GetBoundCurveInstanceIDValueERKNS0_10BoundCurveE
2864:__ZN11UnityEngine9Animation23GetBoundCurveFloatValueERKNS0_10BoundCurveE
2865:__ZN14AvatarPlayback9PlayFrameEfRPN7mecanim9animation12AvatarMemoryERPNS1_16ControllerMemoryE
2866:__ZN8Animator18PrepareForPlaybackEv
2867:__ZN26AnimatorControllerPlayable15SetRecorderDataEPN7mecanim9animation16ControllerMemoryER20RuntimeBaseAllocator
2868:__ZN34AnimationStateMachineMixerPlayable16ArrangePlayablesEbb
2869:__ZN26AnimatorControllerPlayable18PrepareForPlaybackER20RuntimeBaseAllocator
2870:__ZN8Animator11ClearObjectEv
2871:__ZN8Animator18SetupAvatarDataSetEPKN7mecanim9animation14AvatarConstantERNS_13AvatarDataSetEb
2872:__ZNK21AnimationHandleBinder23HaveUnboundStreamHandleEPKN7mecanim9animation14AvatarConstantE
2873:__ZN13AvatarBuilder41BuildAvatarConstantFromTransformHierarchyEP6AvatarRK10GameObjectR20RuntimeBaseAllocator
2874:__ZN7mecanim9animation20CreateAvatarConstantEPNS_8skeleton8SkeletonEPNS1_13SkeletonPoseTIN4math4trsXEEES8_PNS_5human5HumanES3_iRKS6_R20RuntimeBaseAllocator
2875:__ZN7mecanim9animation18CreateAvatarMemoryEPKNS0_14AvatarConstantER20RuntimeBaseAllocator
2876:__ZN7mecanim9animation17CreateAvatarInputEPKNS0_14AvatarConstantER20RuntimeBaseAllocator
2877:__ZN7mecanim9animation21CreateAvatarWorkspaceEPKNS0_14AvatarConstantER20RuntimeBaseAllocator
2878:__ZN7mecanim9animation18CreateAvatarOutputEPKNS0_14AvatarConstantEbR20RuntimeBaseAllocator
2879:__ZN11UnityEngine9Animation27CreateAvatarBindingConstantER9TransformPKN7mecanim9animation14AvatarConstantER20RuntimeBaseAllocator
2880:__ZN11UnityEngine9Animation30CreateAvatarBindingConstantOptER9TransformPKN7mecanim9animation14AvatarConstantER20RuntimeBaseAllocator
2881:__ZN13dynamic_arrayIN11UnityEngine9Animation16ExposedTransformELm0EEC2Em10MemLabelId
2882:__ZN11UnityEngine9Animation28RegisterAvatarBindingObjectsEPNS0_21AvatarBindingConstantE
2883:__ZN11UnityEngine9Animation21AvatarBindingCallbackEPvS1_i
2884:__ZN7mecanim8skeleton18CreateSkeletonPoseIN4math7affineXEEEPNS0_13SkeletonPoseTIT_EEPKNS0_8SkeletonER20RuntimeBaseAllocator
2885:__ZN7mecanim8skeleton23SkeletonBuildIndexArrayEPiPKNS0_8SkeletonES4_
2886:__ZN7mecanim8skeleton30SkeletonBuildReverseIndexArrayEPiPKiPKNS0_8SkeletonES6_
2887:__ZN16HumanDescription5ResetEv
2888:__Z30copy_construct_array_autolabelI9HumanBoneEvPT_mPKS1_10MemLabelId
2889:__ZNK6Avatar7IsHumanEv
2890:__ZN13AvatarBuilder23IsValidHumanDescriptionERK16HumanDescriptionRN4core12basic_stringIcNS3_20StringStorageDefaultIcEEEEb
2891:__ZN13AvatarBuilder17GenerateAvatarMapERK10GameObjectR13dynamic_arrayINS_14NamedTransformELm0EES6_RK16HumanDescription10AvatarTypebRN4core12basic_stringIcNSB_20StringStorageDefaultIcEEEE
2892:__ZN13dynamic_arrayIN13AvatarBuilder14NamedTransformELm0EED2Ev
2893:__ZN13AvatarBuilder14GetAllChildrenER9TransformRN4core12basic_stringIcNS2_20StringStorageDefaultIcEEEER13dynamic_arrayINS_14NamedTransformELm0EERKS8_IS6_Lm0EERK5crc32
2894:__ZN13AvatarBuilder19BuildAvatarConstantERK13dynamic_arrayINS_14NamedTransformELm0EERK10GameObjectRK16HumanDescriptionbRN4core8hash_mapIjNSB_17string_with_labelILi30EcEENSB_4hashIjEENSt3__28equal_toIjEEEER20RuntimeBaseAllocatorbb
2895:__ZN13dynamic_arrayI12SkeletonBoneLm0EED2Ev
2896:__ZN13dynamic_arrayI9HumanBoneLm0EED2Ev
2897:__ZN7mecanim8skeleton14CreateSkeletonEiiR20RuntimeBaseAllocator
2898:__Z14AddStringToTOSRN4core8hash_mapIjNS_17string_with_labelILi30EcEENS_4hashIjEENSt3__28equal_toIjEEEEjRKNS_12basic_stringIcNS_20StringStorageDefaultIcEEEE
2899:__ZN13AvatarBuilder36ReadFromLocalTransformToSkeletonPoseEPN7mecanim8skeleton13SkeletonPoseTIN4math4trsXEEERK13dynamic_arrayINS_14NamedTransformELm0EE
2900:__ZN10HumanTrait4Body11GetBoneNameEi
2901:__ZN10HumanTrait10LeftFinger11GetBoneNameEi
2902:__ZN10HumanTrait11RightFinger11GetBoneNameEi
2903:__ZN7mecanim5human11CreateHumanEPNS_8skeleton8SkeletonEPNS1_13SkeletonPoseTIN4math4trsXEEER20RuntimeBaseAllocator
2904:__ZN7mecanim4hand10CreateHandER20RuntimeBaseAllocator
2905:__ZN7mecanim8skeleton16SkeletonPoseCopyIN4math4trsXES3_EEvPKNS0_8SkeletonEPKNS0_13SkeletonPoseTIT_EES6_PNS7_IT0_EE
2906:__ZN7mecanim5human15HumanAdjustMassEPNS0_5HumanE
2907:__ZN7mecanim5human14HumanSetupAxesEPNS0_5HumanEPKNS_8skeleton13SkeletonPoseTIN4math4trsXEEE
2908:__ZN7mecanim4hand13HandSetupAxesEPKNS0_4HandEPKNS_8skeleton13SkeletonPoseTIN4math4trsXEEEPNS4_8SkeletonEb
2909:__ZN7mecanim8skeleton9SetupAxesEPNS0_8SkeletonEPKNS0_13SkeletonPoseTIN4math4trsXEEERKNS4_13SetupAxesInfoEiibf
2910:__ZN7mecanim8skeleton24SkeletonPoseComputeLocalIN4math4trsXEEEvPKNS0_8SkeletonEPKNS0_13SkeletonPoseTIT_EEPS9_
2911:__ZN10HumanTrait13GetFingerNameEib
2912:__ZN4core8hash_mapIjNS_17string_with_labelILi30EcEENS_4hashIjEENSt3__28equal_toIjEEE6insertERKjRKS2_
2913:__ZN4core8hash_setINS_4pairIKjNS_17string_with_labelILi30EcEELb1EEENS_9hash_pairINS_4hashIjEES2_S4_EENS_10equal_pairINSt3__28equal_toIjEES2_S4_EEE4growEi
2914:__ZN13AvatarBuilder22RemoveAllNoneHumanLeafER13dynamic_arrayINS_14NamedTransformELm0EERK16HumanDescription
2915:__ZN13AvatarBuilder12IsValidHumanERK16HumanDescriptionRK13dynamic_arrayINS_14NamedTransformELm0EER9TransformRN4core12basic_stringIcNSA_20StringStorageDefaultIcEEEE
2916:__ZN13AvatarBuilder12GetTransformEiRK16HumanDescriptionRK13dynamic_arrayINS_14NamedTransformELm0EERKS3_IN4core12basic_stringIcNS8_20StringStorageDefaultIcEEEELm0EE
2917:__ZN13AvatarBuilder21IsValidHumanHierarchyERK16HumanDescriptionRK13dynamic_arrayINS_14NamedTransformELm0EER9TransformRN4core12basic_stringIcNSA_20StringStorageDefaultIcEEEE
2918:__ZN8Animator13AvatarDataSet5ResetEv
2919:__ZN8Animator31ClearInternalControllerPlayableEv
2920:__ZN7mecanim9animation21DestroyAvatarConstantEPNS0_14AvatarConstantER20RuntimeBaseAllocator
2921:__ZN7mecanim9animation19DestroyAvatarOutputEPNS0_12AvatarOutputER20RuntimeBaseAllocator
2922:__ZN7mecanim9animation22DestroyAvatarWorkspaceEPNS0_15AvatarWorkspaceER20RuntimeBaseAllocator
2923:__ZN11UnityEngine9Animation28DestroyAvatarBindingConstantEPNS0_21AvatarBindingConstantER20RuntimeBaseAllocator
2924:__ZN7mecanim8skeleton15DestroySkeletonEPNS0_8SkeletonER20RuntimeBaseAllocator
2925:__ZN7mecanim5human12DestroyHumanEPNS0_5HumanER20RuntimeBaseAllocator
2926:__ZN8Animator11AnimatorJob11AddPlayableEP17AnimationPlayablefi21AnimationStreamSource
2927:__ZN21AnimationHandleBinder31SyncSceneHandlesTransformAccessEv
2928:__ZN13dynamic_arrayIbLm0EE4growEv
2929:__ZN13dynamic_arrayI25PlayableNotificationEntryLm0EED2Ev
2930:__ZN8Animator26AnimatorVisibilityCallbackEPvS0_i
2931:__ZN8Animator19SetVisibleRenderersEb
2932:__ZN8Animator8TransferI14SafeBinaryReadEEvRT_
2933:__ZN8Animator8TransferI24GenerateTypeTreeTransferEEvRT_
2934:__ZN8Animator8TransferI18StreamedBinaryReadEEvRT_
2935:__ZN8Animator8TransferI19StreamedBinaryWriteEEvRT_
2936:__ZN8Animator27InitializeVisibilityCullingEv
2937:__ZN8Animator34RecomputeContainedRenderersRecurseER9Transform
2938:__ZN21AnimationHandleBinder17MainThreadCleanupEv
2939:__ZL39InvalidateSceneHandleTransformsCallbackPvS_i
2940:__ZN8Animator18AutoMecanimDataSet5ResetEv
2941:__ZN13dynamic_arrayI31AnimationStreamHandleDefinitionLm0EED2Ev
2942:__ZN25RuntimeAnimatorController23DestroyCustomControllerEPN7mecanim9animation18ControllerConstantER20RuntimeBaseAllocator
2943:__ZN7mecanim9animation24DestroyBlendTreeConstantEPNS0_17BlendTreeConstantER20RuntimeBaseAllocator
2944:__ZN7mecanim12statemachine20DestroyStateConstantEPNS0_13StateConstantER20RuntimeBaseAllocator
2945:__ZN7mecanim9animation25DestroyControllerConstantEPNS0_18ControllerConstantER20RuntimeBaseAllocator
2946:__ZN7mecanim9animation28DestroyBlendTreeNodeConstantEPNS0_21BlendTreeNodeConstantER20RuntimeBaseAllocator
2947:__ZN14AvatarPlaybackD2Ev
2948:__ZN14AvatarPlaybackD0Ev
2949:__ZN26AnimatorOverrideControllerD2Ev
2950:__ZN26AnimatorOverrideControllerD0Ev
2951:__ZN26AnimatorOverrideController17MainThreadCleanupEv
2952:__ZN26AnimatorOverrideController13AwakeFromLoadE17AwakeFromLoadMode
2953:__ZNK26AnimatorOverrideController22GetTypeVirtualInternalEv
2954:__ZN26AnimatorOverrideController23VirtualRedirectTransferER19StreamedBinaryWrite
2955:__ZN26AnimatorOverrideController23VirtualRedirectTransferER18StreamedBinaryRead
2956:__ZN26AnimatorOverrideController23VirtualRedirectTransferER17RemapPPtrTransfer
2957:__ZN26AnimatorOverrideController23VirtualRedirectTransferER24GenerateTypeTreeTransfer
2958:__ZN26AnimatorOverrideController23VirtualRedirectTransferER14SafeBinaryRead
2959:__ZN26AnimatorOverrideController8GetAssetEb
2960:__ZN26AnimatorOverrideController23GetAnimationSetBindingsEv
2961:__ZNK26AnimatorOverrideController17GetAnimationClipsEv
2962:__ZNK26AnimatorOverrideController12StringFromIDEj
2963:__ZNK26AnimatorOverrideController13GetBehavioursEv
2964:__ZNK26AnimatorOverrideController41GetStateMachineBehaviourVectorDescriptionEv
2965:__ZNK26AnimatorOverrideController28HasMultiThreadedStateMachineEv
2966:__ZNK26AnimatorOverrideController30GetAnimationClipOverrideVectorEv
2967:__ZN25RuntimeAnimatorController22RegisterAnimationClipsEv
2968:__ZNK26AnimatorOverrideController27GetAnimationClipsToRegisterEv
2969:__ZN26AnimatorOverrideController10BuildAssetEv
2970:__ZN26AnimatorOverrideController10ClearAssetE29AnimationAssetChangeEventType
2971:__ZN11UnityEngine9Animation26CreateAnimationSetBindingsERK13dynamic_arrayI4PPtrI13AnimationClipELm0EER20RuntimeBaseAllocator
2972:__ZNK26AnimatorOverrideController16GetOverrideClipsEv
2973:__ZNK26AnimatorOverrideController16GetOriginalClipsEv
2974:__ZNSt3__26__sortIRNS_6__lessI4PPtrI13AnimationClipES4_EEPS4_EEvT0_S8_T_
2975:__ZNSt3__27__sort5IRNS_6__lessI4PPtrI13AnimationClipES4_EEPS4_EEjT0_S8_S8_S8_S8_T_
2976:__ZNSt3__227__insertion_sort_incompleteIRNS_6__lessI4PPtrI13AnimationClipES4_EEPS4_EEbT0_S8_T_
2977:__ZN26AnimatorOverrideController8TransferI14SafeBinaryReadEEvRT_
2978:__ZN25RuntimeAnimatorController8TransferI14SafeBinaryReadEEvRT_
2979:__ZN14SafeBinaryRead21TransferSTLStyleArrayI13dynamic_arrayI21AnimationClipOverrideLm0EEEEvRT_17TransferMetaFlags
2980:__ZN21AnimationClipOverride8TransferI14SafeBinaryReadEEvRT_
2981:__ZN26AnimatorOverrideController8TransferI24GenerateTypeTreeTransferEEvRT_
2982:__ZN25RuntimeAnimatorController8TransferI24GenerateTypeTreeTransferEEvRT_
2983:__ZN21AnimationClipOverride8TransferI24GenerateTypeTreeTransferEEvRT_
2984:__ZN25RuntimeAnimatorController8TransferI18StreamedBinaryReadEEvRT_
2985:__ZN18StreamedBinaryRead21TransferSTLStyleArrayI13dynamic_arrayI21AnimationClipOverrideLm0EEEEvRT_17TransferMetaFlags
2986:__ZN26AnimatorOverrideController8TransferI19StreamedBinaryWriteEEvRT_
2987:__ZN25RuntimeAnimatorController8TransferI19StreamedBinaryWriteEEvRT_
2988:__ZN25RuntimeAnimatorController17NotifyObjectUsersERK17MessageIdentifier
2989:__ZN25RuntimeAnimatorController17MainThreadCleanupEv
2990:__ZN25RuntimeAnimatorControllerD2Ev
2991:__ZNK25RuntimeAnimatorController22GetTypeVirtualInternalEv
2992:__ZN25RuntimeAnimatorController23VirtualRedirectTransferER24GenerateTypeTreeTransfer
2993:__ZN25RuntimeAnimatorController23VirtualRedirectTransferER14SafeBinaryRead
2994:__ZN14SafeBinaryRead19TransferSTLStyleMapIN4core8hash_mapIjNS1_17string_with_labelILi30EcEENS1_4hashIjEENSt3__28equal_toIjEEEEEEvRT_17TransferMetaFlags
2995:__ZN15SerializeTraitsIN4core4pairIjNS0_17string_with_labelILi30EcEELb1EEEE8TransferI14SafeBinaryReadEEvRS4_RT_
2996:__ZN4core8hash_setINS_4pairIKjNS_17string_with_labelILi30EcEELb1EEENS_9hash_pairINS_4hashIjEES2_S4_EENS_10equal_pairINSt3__28equal_toIjEES2_S4_EEE6insertIRNS1_IjS4_Lb1EEEEENS1_INSF_13node_iteratorIS5_EEbLb0EEEOT_
2997:__ZN14SafeBinaryRead21TransferSTLStyleArrayI22OffsetPtrArrayTransferIiEEEvRT_17TransferMetaFlags
2998:__ZN18StreamedBinaryRead19TransferSTLStyleMapIN4core8hash_mapIjNS1_17string_with_labelILi30EcEENS1_4hashIjEENSt3__28equal_toIjEEEEEEvRT_17TransferMetaFlags
2999:__ZN15SerializeTraitsIN4core8hash_mapIjNS0_17string_with_labelILi30EcEENS0_4hashIjEENSt3__28equal_toIjEEEEE8TransferI19StreamedBinaryWriteEEvRS9_RT_
3000:__ZN14SafeBinaryRead21TransferSTLStyleArrayI13dynamic_arrayIjLm0EEEEvRT_17TransferMetaFlags
3001:__ZN13dynamic_arrayIjLm0EEC2EmRKj10MemLabelId
3002:__ZN25AnimatedPropertyEvaluatorD2Ev
3003:__ZN25AnimatedPropertyEvaluatorD0Ev
3004:__ZN25AnimatedPropertyEvaluator10UpdateSyncEf18ScriptingObjectPtr
3005:__ZN16AnimatedProperty6UpdateEf18ScriptingObjectPtr
3006:__ZN16MecanimAnimation19PathHashesToIndicesERN5Unity9ComponentEPKjmPt
3007:__ZN16MecanimAnimation25RegisterIAnimationBindingEPKN5Unity4TypeEiP17IAnimationBinding
3008:__ZN16MecanimAnimation40GetReadWriteGlobalSpaceSkeletonPoseFenceEPN5Unity9ComponentE
3009:__ZN16MecanimAnimation23BuildAnimatedPropertiesEPK6Object18ScriptingObjectPtr
3010:__ZN16MecanimAnimation24DeleteAnimatedPropertiesERP26IAnimatedPropertyEvaluator
3011:__ZN25AnimatedPropertyEvaluator25BuildFromScriptableObjectEPK13AnimationClip18ScriptingObjectPtr
3012:__ZN25AnimatedPropertyEvaluator29BindCurveToScriptingObjectPtrERKN13AnimationClip10FloatCurveEj18ScriptingObjectPtrb
3013:__ZN16AnimatedPropertyC2ERK16PropertyAccessorRK17AnimationCurveTplIfE
3014:__ZN11UnityEngine9Animation28GenericAnimationBindingCache25RegisterIAnimationBindingEPKN5Unity4TypeEiP17IAnimationBinding
3015:__ZN8Animator17GetAvatarConstantEv
3016:__ZN18AnimatorControllerD2Ev
3017:__ZN18AnimatorControllerD0Ev
3018:__ZN18AnimatorController17MainThreadCleanupEv
3019:__ZN18AnimatorController13AwakeFromLoadE17AwakeFromLoadMode
3020:__ZNK18AnimatorController22GetTypeVirtualInternalEv
3021:__ZN18AnimatorController23VirtualRedirectTransferER19StreamedBinaryWrite
3022:__ZN18AnimatorController23VirtualRedirectTransferER18StreamedBinaryRead
3023:__ZN18AnimatorController23VirtualRedirectTransferER17RemapPPtrTransfer
3024:__ZN18AnimatorController23VirtualRedirectTransferER24GenerateTypeTreeTransfer
3025:__ZN18AnimatorController23VirtualRedirectTransferER14SafeBinaryRead
3026:__ZN18AnimatorController8GetAssetEb
3027:__ZN18AnimatorController23GetAnimationSetBindingsEv
3028:__ZNK18AnimatorController17GetAnimationClipsEv
3029:__ZNK18AnimatorController12StringFromIDEj
3030:__ZNK18AnimatorController13GetBehavioursEv
3031:__ZNK18AnimatorController41GetStateMachineBehaviourVectorDescriptionEv
3032:__ZNK18AnimatorController28HasMultiThreadedStateMachineEv
3033:__ZNK18AnimatorController27GetAnimationClipsToRegisterEv
3034:__ZN18AnimatorController19TransferRuntimeDataI14SafeBinaryReadEEvRT_
3035:__Z21TransferBlobSerializeIN7mecanim9animation18ControllerConstantE14SafeBinaryReadEvRPT_PKcRjS8_RT0_
3036:__ZN14SafeBinaryRead21TransferSTLStyleArrayI13dynamic_arrayI4PPtrI13AnimationClipELm0EEEEvRT_17TransferMetaFlags
3037:__ZN38StateMachineBehaviourVectorDescription8TransferI14SafeBinaryReadEEvRT_
3038:__ZN14SafeBinaryRead21TransferSTLStyleArrayI13dynamic_arrayI4PPtrI13MonoBehaviourELm0EEEEvRT_17TransferMetaFlags
3039:__ZN14SafeBinaryRead21TransferSTLStyleArrayI10vector_mapI8StateKey10StateRangeNSt3__24lessIS2_EENS4_9allocatorINS4_4pairIS2_S3_EEEEEEEvRT_17TransferMetaFlags
3040:__ZNSt3__26vectorINS_4pairI8StateKey10StateRangeEENS_9allocatorIS4_EEE8__appendEm
3041:__ZN15SerializeTraitsINSt3__24pairI8StateKey10StateRangeEEE8TransferI14SafeBinaryReadEEvRS4_RT_
3042:__ZN8StateKey8TransferI14SafeBinaryReadEEvRT_
3043:__ZN10StateRange8TransferI14SafeBinaryReadEEvRT_
3044:__ZN7mecanim9animation18ControllerConstant8TransferI14SafeBinaryReadEEvRT_
3045:__ZN14SafeBinaryRead21TransferSTLStyleArrayI22OffsetPtrArrayTransferI9OffsetPtrIN7mecanim9animation13LayerConstantEEEEEvRT_17TransferMetaFlags
3046:__ZN14SafeBinaryRead21TransferSTLStyleArrayI22OffsetPtrArrayTransferI9OffsetPtrIN7mecanim12statemachine20StateMachineConstantEEEEEvRT_17TransferMetaFlags
3047:__ZN15SerializeTraitsI9OffsetPtrIN7mecanim18ValueArrayConstantEEE8TransferI14SafeBinaryReadEEvRS3_RT_
3048:__ZN7mecanim10ValueArray8TransferI14SafeBinaryReadEEvRT_
3049:__ZN14SafeBinaryRead21TransferSTLStyleArrayI22OffsetPtrArrayTransferIKN4math7_float3EEEEvRT_17TransferMetaFlags
3050:__ZN14SafeBinaryRead21TransferSTLStyleArrayI22OffsetPtrArrayTransferIKN4math7_float4EEEEvRT_17TransferMetaFlags
3051:__ZN14SafeBinaryRead21TransferSTLStyleArrayI22OffsetPtrArrayTransferIbEEEvRT_17TransferMetaFlags
3052:__ZN14SafeBinaryRead21TransferSTLStyleArrayI22OffsetPtrArrayTransferIN7mecanim13ValueConstantEEEEvRT_17TransferMetaFlags
3053:__ZN7mecanim13ValueConstant8TransferI14SafeBinaryReadEEvRT_
3054:__ZN7mecanim12statemachine20StateMachineConstant8TransferI14SafeBinaryReadEEvRT_
3055:__ZN14SafeBinaryRead21TransferSTLStyleArrayI22OffsetPtrArrayTransferI9OffsetPtrIN7mecanim12statemachine13StateConstantEEEEEvRT_17TransferMetaFlags
3056:__ZN14SafeBinaryRead21TransferSTLStyleArrayI22OffsetPtrArrayTransferI9OffsetPtrIN7mecanim12statemachine18TransitionConstantEEEEEvRT_17TransferMetaFlags
3057:__ZN14SafeBinaryRead21TransferSTLStyleArrayI22OffsetPtrArrayTransferI9OffsetPtrIN7mecanim12statemachine21SelectorStateConstantEEEEEvRT_17TransferMetaFlags
3058:__ZN7mecanim12statemachine21SelectorStateConstant8TransferI14SafeBinaryReadEEvRT_
3059:__ZN14SafeBinaryRead21TransferSTLStyleArrayI22OffsetPtrArrayTransferI9OffsetPtrIN7mecanim12statemachine26SelectorTransitionConstantEEEEEvRT_17TransferMetaFlags
3060:__ZN7mecanim12statemachine26SelectorTransitionConstant8TransferI14SafeBinaryReadEEvRT_
3061:__ZN14SafeBinaryRead21TransferSTLStyleArrayI22OffsetPtrArrayTransferI9OffsetPtrIN7mecanim12statemachine17ConditionConstantEEEEEvRT_17TransferMetaFlags
3062:__ZN7mecanim12statemachine17ConditionConstant8TransferI14SafeBinaryReadEEvRT_
3063:__ZN7mecanim12statemachine18TransitionConstant8TransferI14SafeBinaryReadEEvRT_
3064:__ZN7mecanim12statemachine13StateConstant8TransferI14SafeBinaryReadEEvRT_
3065:__ZN14SafeBinaryRead21TransferSTLStyleArrayI22OffsetPtrArrayTransferI9OffsetPtrIN7mecanim9animation17BlendTreeConstantEEEEEvRT_17TransferMetaFlags
3066:__ZN7mecanim12statemachine13StateConstant39Transfer_Pre_5_2_BackwardsCompatibilityI14SafeBinaryReadEEvRT_
3067:__ZN14SafeBinaryRead21TransferSTLStyleArrayI22OffsetPtrArrayTransferIN7mecanim12statemachine16LeafInfoConstantEEEEvRT_17TransferMetaFlags
3068:__ZN15SerializeTraitsI22OffsetPtrArrayTransferIN7mecanim12statemachine16LeafInfoConstantEEE19ResizeSTLStyleArrayERS4_i
3069:__ZN15SerializeTraitsIN7mecanim12statemachine16LeafInfoConstantEE8TransferI14SafeBinaryReadEEvRS2_RT_
3070:__ZN15SerializeTraitsI9OffsetPtrIN7mecanim9animation17BlendTreeConstantEEE8TransferI14SafeBinaryReadEEvRS4_RT_
3071:__ZN14SafeBinaryRead21TransferSTLStyleArrayI22OffsetPtrArrayTransferI9OffsetPtrIN7mecanim9animation21BlendTreeNodeConstantEEEEEvRT_17TransferMetaFlags
3072:__ZN7mecanim9animation21BlendTreeNodeConstant8TransferI14SafeBinaryReadEEvRT_
3073:__ZN15SerializeTraitsI9OffsetPtrIN7mecanim9animation19Blend1dDataConstantEEE8TransferI14SafeBinaryReadEEvRS4_RT_
3074:__ZN7mecanim9animation19Blend2dDataConstant8TransferI14SafeBinaryReadEEvRT_
3075:__ZN7mecanim9animation23BlendDirectDataConstant8TransferI14SafeBinaryReadEEvRT_
3076:__ZN14SafeBinaryRead21TransferSTLStyleArrayI22OffsetPtrArrayTransferI8Vector2fEEEvRT_17TransferMetaFlags
3077:__ZN14SafeBinaryRead21TransferSTLStyleArrayI22OffsetPtrArrayTransferIN7mecanim9animation18MotionNeighborListEEEEvRT_17TransferMetaFlags
3078:__ZN14SafeBinaryRead8TransferIN7mecanim9animation18MotionNeighborListEEEvRT_PKc17TransferMetaFlags
3079:__ZN8Vector2f8TransferI14SafeBinaryReadEEvRT_
3080:__ZN7mecanim9animation13LayerConstant8TransferI14SafeBinaryReadEEvRT_
3081:__ZN15SerializeTraitsIN7mecanim6bitsetILj83EEEE8TransferI14SafeBinaryReadEEvRS2_RT_
3082:__ZN15SerializeTraitsI9OffsetPtrIN7mecanim8skeleton12SkeletonMaskEEE8TransferI14SafeBinaryReadEEvRS4_RT_
3083:__ZN14SafeBinaryRead21TransferSTLStyleArrayI22OffsetPtrArrayTransferIN7mecanim8skeleton19SkeletonMaskElementEEEEvRT_17TransferMetaFlags
3084:__ZN7mecanim8skeleton19SkeletonMaskElement8TransferI14SafeBinaryReadEEvRT_
3085:__ZN18AnimatorController19TransferRuntimeDataI24GenerateTypeTreeTransferEEvRT_
3086:__ZN7mecanim9animation18ControllerConstant8TransferI24GenerateTypeTreeTransferEEvRT_
3087:__ZN38StateMachineBehaviourVectorDescription8TransferI24GenerateTypeTreeTransferEEvRT_
3088:__ZN15SerializeTraitsINSt3__24pairI8StateKey10StateRangeEEE8TransferI24GenerateTypeTreeTransferEEvRS4_RT_
3089:__ZN7mecanim9animation13LayerConstant8TransferI24GenerateTypeTreeTransferEEvRT_
3090:__ZN7mecanim12statemachine20StateMachineConstant8TransferI24GenerateTypeTreeTransferEEvRT_
3091:__Z17TransferOffsetPtrI9OffsetPtrIN7mecanim13ValueConstantEE24GenerateTypeTreeTransferEvRT_PKcRjRT0_
3092:__ZN7mecanim10ValueArray8TransferI24GenerateTypeTreeTransferEEvRT_
3093:__Z17TransferOffsetPtrI9OffsetPtrIKN4math7_float3EE24GenerateTypeTreeTransferEvRT_PKcRjRT0_
3094:__ZN7mecanim12statemachine13StateConstant8TransferI24GenerateTypeTreeTransferEEvRT_
3095:__ZN7mecanim12statemachine18TransitionConstant8TransferI24GenerateTypeTreeTransferEEvRT_
3096:__ZN7mecanim12statemachine21SelectorStateConstant8TransferI24GenerateTypeTreeTransferEEvRT_
3097:__ZN15SerializeTraitsI9OffsetPtrIN7mecanim12statemachine26SelectorTransitionConstantEEE8TransferI24GenerateTypeTreeTransferEEvRS4_RT_
3098:__ZN15SerializeTraitsI9OffsetPtrIN7mecanim12statemachine17ConditionConstantEEE8TransferI24GenerateTypeTreeTransferEEvRS4_RT_
3099:__ZN15SerializeTraitsI9OffsetPtrIN7mecanim9animation17BlendTreeConstantEEE8TransferI24GenerateTypeTreeTransferEEvRS4_RT_
3100:__ZN7mecanim9animation21BlendTreeNodeConstant8TransferI24GenerateTypeTreeTransferEEvRT_
3101:__ZN7mecanim9animation19Blend2dDataConstant8TransferI24GenerateTypeTreeTransferEEvRT_
3102:__ZN15SerializeTraitsI9OffsetPtrIN7mecanim9animation23BlendDirectDataConstantEEE8TransferI24GenerateTypeTreeTransferEEvRS4_RT_
3103:__ZN15SerializeTraitsI9OffsetPtrIN7mecanim8skeleton12SkeletonMaskEEE8TransferI24GenerateTypeTreeTransferEEvRS4_RT_
3104:__ZN18AnimatorController19TransferRuntimeDataI18StreamedBinaryReadEEvRT_
3105:__ZN7mecanim9animation18ControllerConstant8TransferI18StreamedBinaryReadEEvRT_
3106:__ZN18StreamedBinaryRead21TransferSTLStyleArrayI13dynamic_arrayI4PPtrI13AnimationClipELm0EEEEvRT_17TransferMetaFlags
3107:__ZN38StateMachineBehaviourVectorDescription8TransferI18StreamedBinaryReadEEvRT_
3108:__ZN18StreamedBinaryRead21TransferSTLStyleArrayI22OffsetPtrArrayTransferI9OffsetPtrIN7mecanim9animation13LayerConstantEEEEEvRT_17TransferMetaFlags
3109:__ZN18StreamedBinaryRead21TransferSTLStyleArrayI22OffsetPtrArrayTransferI9OffsetPtrIN7mecanim12statemachine20StateMachineConstantEEEEEvRT_17TransferMetaFlags
3110:__ZN18StreamedBinaryRead21TransferSTLStyleArrayI22OffsetPtrArrayTransferIN7mecanim13ValueConstantEEEEvRT_17TransferMetaFlags
3111:__ZN7mecanim10ValueArray8TransferI18StreamedBinaryReadEEvRT_
3112:__ZN18StreamedBinaryRead21TransferSTLStyleArrayI22OffsetPtrArrayTransferIKN4math7_float3EEEEvRT_17TransferMetaFlags
3113:__ZN7mecanim12statemachine20StateMachineConstant8TransferI18StreamedBinaryReadEEvRT_
3114:__ZN18StreamedBinaryRead21TransferSTLStyleArrayI22OffsetPtrArrayTransferI9OffsetPtrIN7mecanim12statemachine13StateConstantEEEEEvRT_17TransferMetaFlags
3115:__ZN18StreamedBinaryRead21TransferSTLStyleArrayI22OffsetPtrArrayTransferI9OffsetPtrIN7mecanim12statemachine18TransitionConstantEEEEEvRT_17TransferMetaFlags
3116:__ZN18StreamedBinaryRead21TransferSTLStyleArrayI22OffsetPtrArrayTransferI9OffsetPtrIN7mecanim12statemachine21SelectorStateConstantEEEEEvRT_17TransferMetaFlags
3117:__ZN18StreamedBinaryRead8TransferI9OffsetPtrIN7mecanim12statemachine21SelectorStateConstantEEEEvRT_PKc17TransferMetaFlags
3118:__ZN18StreamedBinaryRead21TransferSTLStyleArrayI22OffsetPtrArrayTransferI9OffsetPtrIN7mecanim12statemachine26SelectorTransitionConstantEEEEEvRT_17TransferMetaFlags
3119:__ZN18StreamedBinaryRead21TransferSTLStyleArrayI22OffsetPtrArrayTransferI9OffsetPtrIN7mecanim12statemachine17ConditionConstantEEEEEvRT_17TransferMetaFlags
3120:__ZN7mecanim12statemachine18TransitionConstant8TransferI18StreamedBinaryReadEEvRT_
3121:__ZN7mecanim12statemachine13StateConstant8TransferI18StreamedBinaryReadEEvRT_
3122:__ZN18StreamedBinaryRead21TransferSTLStyleArrayI22OffsetPtrArrayTransferI9OffsetPtrIN7mecanim9animation17BlendTreeConstantEEEEEvRT_17TransferMetaFlags
3123:__ZN18StreamedBinaryRead21TransferSTLStyleArrayI22OffsetPtrArrayTransferI9OffsetPtrIN7mecanim9animation21BlendTreeNodeConstantEEEEEvRT_17TransferMetaFlags
3124:__ZN7mecanim9animation21BlendTreeNodeConstant8TransferI18StreamedBinaryReadEEvRT_
3125:__ZN18StreamedBinaryRead8TransferI9OffsetPtrIN7mecanim9animation19Blend1dDataConstantEEEEvRT_PKc17TransferMetaFlags
3126:__ZN7mecanim9animation19Blend2dDataConstant8TransferI18StreamedBinaryReadEEvRT_
3127:__ZN7mecanim9animation23BlendDirectDataConstant8TransferI18StreamedBinaryReadEEvRT_
3128:__ZN18StreamedBinaryRead21TransferSTLStyleArrayI22OffsetPtrArrayTransferIN7mecanim9animation18MotionNeighborListEEEEvRT_17TransferMetaFlags
3129:__ZN7mecanim9animation13LayerConstant8TransferI18StreamedBinaryReadEEvRT_
3130:__ZN18StreamedBinaryRead21TransferSTLStyleArrayI22OffsetPtrArrayTransferIN7mecanim8skeleton19SkeletonMaskElementEEEEvRT_17TransferMetaFlags
3131:__ZN18AnimatorController19TransferRuntimeDataI19StreamedBinaryWriteEEvRT_
3132:__ZN7mecanim9animation18ControllerConstant8TransferI19StreamedBinaryWriteEEvRT_
3133:__ZN38StateMachineBehaviourVectorDescription8TransferI19StreamedBinaryWriteEEvRT_
3134:__ZN7mecanim9animation13LayerConstant8TransferI19StreamedBinaryWriteEEvRT_
3135:__ZN7mecanim12statemachine20StateMachineConstant8TransferI19StreamedBinaryWriteEEvRT_
3136:__ZN15SerializeTraitsI22OffsetPtrArrayTransferIN7mecanim13ValueConstantEEE8TransferI19StreamedBinaryWriteEEvRS3_RT_
3137:__ZN7mecanim10ValueArray8TransferI19StreamedBinaryWriteEEvRT_
3138:__ZN7mecanim12statemachine13StateConstant8TransferI19StreamedBinaryWriteEEvRT_
3139:__ZN7mecanim12statemachine18TransitionConstant8TransferI19StreamedBinaryWriteEEvRT_
3140:__ZN7mecanim12statemachine21SelectorStateConstant8TransferI19StreamedBinaryWriteEEvRT_
3141:__ZN19StreamedBinaryWrite8TransferI9OffsetPtrIN7mecanim12statemachine26SelectorTransitionConstantEEEEvRT_PKc17TransferMetaFlags
3142:__ZN15SerializeTraitsI9OffsetPtrIN7mecanim12statemachine17ConditionConstantEEE8TransferI19StreamedBinaryWriteEEvRS4_RT_
3143:__ZN15SerializeTraitsI9OffsetPtrIN7mecanim9animation17BlendTreeConstantEEE8TransferI19StreamedBinaryWriteEEvRS4_RT_
3144:__ZN7mecanim9animation21BlendTreeNodeConstant8TransferI19StreamedBinaryWriteEEvRT_
3145:__ZN7mecanim9animation19Blend2dDataConstant8TransferI19StreamedBinaryWriteEEvRT_
3146:__ZN15SerializeTraitsI9OffsetPtrIN7mecanim9animation23BlendDirectDataConstantEEE8TransferI19StreamedBinaryWriteEEvRS4_RT_
3147:__Z17TransferOffsetPtrI9OffsetPtrI8Vector2fE19StreamedBinaryWriteEvRT_PKcRjRT0_
3148:__Z17TransferOffsetPtrI9OffsetPtrIN7mecanim9animation18MotionNeighborListEE19StreamedBinaryWriteEvRT_PKcRjRT0_
3149:__ZN18AnimatorController10ClearAssetEv
3150:__Z30RegisterModuleICalls_Animationv
3151:__Z18RegisterUnityClassI8AnimatorEvPKc
3152:__Z18RegisterUnityClassI26AnimatorOverrideControllerEvPKc
3153:__Z18RegisterUnityClassI25RuntimeAnimatorControllerEvPKc
3154:__ZNK17IAnimationBinding38SerializedPropertyPathToCurveAttributeER6ObjectPKc
3155:__ZNK17IAnimationBinding30CurveAttributeToSerializedPathERKN11UnityEngine9Animation10BoundCurveE
3156:__ZN13ProduceHelperI25RuntimeAnimatorControllerLb1EE7ProduceE10MemLabelId18ObjectCreationMode
3157:__ZN13ProduceHelperI26AnimatorOverrideControllerLb0EE7ProduceE10MemLabelId18ObjectCreationMode
3158:__ZN26AnimatorOverrideController15InitializeClassEv
3159:__ZZN26AnimatorOverrideController15InitializeClassEvEN42FunctorImpl_87kDidModifyAnimatorController4CallEPviR11MessageData
3160:__ZN25RuntimeAnimatorControllerC2E10MemLabelId18ObjectCreationMode
3161:__ZN13ProduceHelperI8AnimatorLb0EE7ProduceE10MemLabelId18ObjectCreationMode
3162:__ZN8Animator15InitializeClassEv
3163:__ZN8Animator12CleanupClassEv
3164:__ZN10HumanTrait12CleanupClassEv
3165:__ZN7mecanim9animation23CleanupMuscleClipTablesEv
3166:__ZN8Animator20RebindOnDomainReloadEv
3167:__ZZN8Animator15InitializeClassEvEN43FunctorImpl_540kDidModifyAnimatorController4CallEPviR11MessageData
3168:__ZZN8Animator15InitializeClassEvEN37FunctorImpl_541kDidModifyOverrideClip4CallEPviR11MessageData
3169:__ZZN8Animator15InitializeClassEvEN31FunctorImpl_543kDidModifyMotion4CallEPviR11MessageData
3170:__ZZN8Animator15InitializeClassEvEN31FunctorImpl_544kDidDeleteMotion4CallEPviR11MessageData
3171:__ZZN8Animator15InitializeClassEvEN44FunctorImpl_545kDidChangeMotionRuntimeEvents4CallEPviR11MessageData
3172:__ZZN8Animator15InitializeClassEvEN31FunctorImpl_546kDidModifyAvatar4CallEPviR11MessageData
3173:__ZZN8Animator15InitializeClassEvEN31FunctorImpl_551kDidAddComponent4CallEPviR11MessageData
3174:__ZN7mecanim9animation26InitializeMuscleClipTablesEv
3175:__ZN10HumanTrait15InitializeClassEv
3176:__ZL27StateChangeValidateCallback18ScriptingMethodPtr17ScriptingClassPtrP6Object
3177:__ZL28StateMachineValidateCallback18ScriptingMethodPtr17ScriptingClassPtrP6Object
3178:__ZN10HumanTrait21InitializeMuscleNamesEv
3179:__ZN10HumanTrait19InitializeBoneNamesEv
3180:__ZN10HumanTrait21InitializeMonoIndicesEv
3181:__ZN7mecanim5human21ComputeHierarchicMassEiPf
3182:__ZN10HumanTrait19GetFingerMuscleNameEib
3183:__ZN7mecanim9animationL25MuscleIndexIdSortFunctionENS0_13MuscleIndexIdES1_
3184:__ZNSt3__26__sortIRPFbN7mecanim9animation13MuscleIndexIdES3_EPS3_EEvT0_S8_T_
3185:__ZNSt3__27__sort3IRPFbN7mecanim9animation13MuscleIndexIdES3_EPS3_EEjT0_S8_S8_T_
3186:__ZNSt3__27__sort5IRPFbN7mecanim9animation13MuscleIndexIdES3_EPS3_EEjT0_S8_S8_S8_S8_T_
3187:__ZNSt3__227__insertion_sort_incompleteIRPFbN7mecanim9animation13MuscleIndexIdES3_EPS3_EEbT0_S8_T_
3188:__ZN26AnimatorControllerPlayable21OverrideClipPlayablesEv
3189:__ZN8AnimatorC2E10MemLabelId18ObjectCreationMode
3190:__ZN14AvatarPlaybackC2E10MemLabelId
3191:__ZN21AnimationHandleBinderC2Ev
3192:__ZN8Animator22ScriptingStringToCRC32ERK11ICallString
3193:__ZN8Animator12ResetTriggerEi
3194:__ZN8Animator10SetTriggerEi
3195:__ZN8Animator23ValidateParameterStringE17GetSetValueResultRKN4core12basic_stringIcNS1_20StringStorageDefaultIcEEEE
3196:__Z18RegisterUnityClassI18AnimatorControllerEvPKc
3197:__ZN13ProduceHelperI18AnimatorControllerLb0EE7ProduceE10MemLabelId18ObjectCreationMode
3198:__ZN18AnimatorController15InitializeClassEv
3199:__ZZN18AnimatorController15InitializeClassEvEN30FunctorImpl_93kDidModifyMotion4CallEPviR11MessageData
3200:__ZZN18AnimatorController15InitializeClassEvEN30FunctorImpl_94kDidDeleteMotion4CallEPviR11MessageData
3201:_RegisterModule_Animation
3202:__Z26InitializeModule_Animationv
3203:__ZL23CleanupModule_Animationv
3204:__Z31InternalCleanupModule_Animationv
3205:__Z32SetupMonoScriptCacheForAnimationP15MonoScriptCache
3206:__Z34InternalInitializeModule_Animationv
3207:__ZN4coreplERKNS_12basic_stringIcNS_20StringStorageDefaultIcEEEERKNS_16basic_string_refIcEE
3208:__Z20SetGlobalMatrixLossy15TransformAccessRKN4math7_float3ERKNS0_7_float4ERKNS0_8float3x3E
3209:__Z35InverseTransformPositionAndRotationRK23TransformAccessReadOnlyRKN4math7_float3ERKNS2_7_float4E
3210:__ZNSt3__26vectorIN4core12basic_stringIcNS1_20StringStorageDefaultIcEEEE13stl_allocatorIS5_L18MemLabelIdentifier1ELi16EEE21__push_back_slow_pathIS5_EEvOT_
3211:__ZN4core20StringStorageDefaultIcEaSEOS1_
3212:__ZN11Marshalling16StringMarshallerD2Ev
3213:__ZN11Marshalling16StringMarshaller16EnsureMarshalledEv
3214:__ZNSt3__26vectorIiNS_9allocatorIiEEE6insertENS_11__wrap_iterIPKiEERS5_
3215:__Z41Animator_Get_Custom_PropHasBoundPlayablesP12Il2CppObject
3216:__Z32Animator_CUSTOM_SetTriggerStringP12Il2CppObjectP12Il2CppString
3217:__Z34Animator_CUSTOM_ResetTriggerStringP12Il2CppObjectP12Il2CppString
3218:__GLOBAL__sub_I_AssetBundleScriptingClasses_cpp
3219:__GLOBAL__sub_I_Modules_AssetBundle_Public_0_cpp
3220:__ZN13RuntimeStaticI18AssetBundleManagerLb1EE16StaticInitializeEPv
3221:__ZN13RuntimeStaticI18AssetBundleManagerLb1EE13StaticDestroyEPv
3222:__ZN18AssetBundleManagerD2Ev
3223:__ZN24StaticInitializeInternal13ConstructTypeI18AssetBundleManagerLb1EEEPvS2_10MemLabelId
3224:__ZN9Scripting11UnityEngineL65__ManagedRegistrationHelperFunction_AssetBundleCreateRequestProxyEPv
3225:__ZN9Scripting11UnityEngineL71__ManagedRegistrationHelperFunction_AssetBundleRecompressOperationProxyEPv
3226:__ZN9Scripting11UnityEngineL59__ManagedRegistrationHelperFunction_AssetBundleRequestProxyEPv
3227:__ZN9Scripting11UnityEngineL57__ManagedRegistrationHelperFunction_BuildCompressionProxyEPv
3228:__ZN9Scripting11UnityEngine21BuildCompressionProxy9InitProxyEv
3229:__ZN9Scripting11UnityEngine21BuildCompressionProxy12CleanupProxyEv
3230:__ZN9Scripting11UnityEngine23AssetBundleRequestProxy9InitProxyEv
3231:__ZN9Scripting11UnityEngine23AssetBundleRequestProxy12CleanupProxyEv
3232:__ZN9Scripting11UnityEngine35AssetBundleRecompressOperationProxy9InitProxyEv
3233:__ZN9Scripting11UnityEngine35AssetBundleRecompressOperationProxy12CleanupProxyEv
3234:__ZN9Scripting11UnityEngine29AssetBundleCreateRequestProxy9InitProxyEv
3235:__ZN9Scripting11UnityEngine29AssetBundleCreateRequestProxy12CleanupProxyEv
3236:__ZN23PreloadManagerOperation11GetPriorityEv
3237:__ZN23PreloadManagerOperation14SetFinalTimingEffff
3238:__ZN23PreloadManagerOperation19IntegrateTimeSlicedEi
3239:__ZN23PreloadManagerOperation12GetDebugNameEv
3240:__Z7ToLowerIN4core12basic_stringIcNS0_20StringStorageDefaultIcEEEEET_RKS5_
3241:__ZN14SafeBinaryRead21TransferSTLStyleArrayINSt3__26vectorI14ConstantStringNS1_9allocatorIS3_EEEEEEvRT_17TransferMetaFlags
3242:__Z14resize_trimmedINSt3__26vectorI14ConstantStringNS0_9allocatorIS2_EEEEEvRT_j
3243:__ZNSt3__26vectorI14ConstantStringNS_9allocatorIS1_EEE6assignINS_11__wrap_iterIPS1_EEEENS_9enable_ifIXaasr21__is_forward_iteratorIT_EE5valuesr16is_constructibleIS1_NS_15iterator_traitsISA_E9referenceEEE5valueEvE4typeESA_SA_
3244:__ZNSt3__26vectorI14ConstantStringNS_9allocatorIS1_EEE8__appendEm
3245:__ZN15SerializeTraitsINSt3__24pairIN4core12basic_stringIcNS2_20StringStorageDefaultIcEEEE4PPtrI6ObjectEEEE8TransferI14SafeBinaryReadEEvRSA_RT_
3246:__ZN18StreamedBinaryRead21TransferSTLStyleArrayINSt3__26vectorI14ConstantStringNS1_9allocatorIS3_EEEEEEvRT_17TransferMetaFlags
3247:__ZN19StreamedBinaryWrite21TransferSTLStyleArrayINSt3__26vectorI14ConstantStringNS1_9allocatorIS3_EEEEEEvRT_17TransferMetaFlags
3248:__ZN18AwakeFromLoadQueueD2Ev
3249:__ZN23PreloadManagerOperation11SetPriorityEi
3250:__ZN27TimeSliceAwakeFromLoadQueueD2Ev
3251:__Z14StartsWithPathIN4core12basic_stringIcNS0_20StringStorageDefaultIcEEEEA8_cEbRKT_RKT0_
3252:__ZN4core8hash_mapIiiNS_4hashIiEENSt3__28equal_toIiEEE6insertERKiS8_
3253:__ZNSt3__26__sortIRNS_6__lessIN4core12basic_stringIcNS2_20StringStorageDefaultIcEEEES6_EEPS6_EEvT0_SA_T_
3254:__ZNSt3__27__sort3IRNS_6__lessIN4core12basic_stringIcNS2_20StringStorageDefaultIcEEEES6_EEPS6_EEjT0_SA_SA_T_
3255:__ZNSt3__27__sort4IRNS_6__lessIN4core12basic_stringIcNS2_20StringStorageDefaultIcEEEES6_EEPS6_EEjT0_SA_SA_SA_T_
3256:__ZNSt3__27__sort5IRNS_6__lessIN4core12basic_stringIcNS2_20StringStorageDefaultIcEEEES6_EEPS6_EEjT0_SA_SA_SA_SA_T_
3257:__ZNSt3__218__insertion_sort_3IRNS_6__lessIN4core12basic_stringIcNS2_20StringStorageDefaultIcEEEES6_EEPS6_EEvT0_SA_T_
3258:__ZNSt3__227__insertion_sort_incompleteIRNS_6__lessIN4core12basic_stringIcNS2_20StringStorageDefaultIcEEEES6_EEPS6_EEbT0_SA_T_
3259:__ZNSt3__26__treeIiNS_4lessIiEENS_9allocatorIiEEE7destroyEPNS_11__tree_nodeIiPvEE
3260:__GLOBAL__sub_I_AudioScriptingClasses_cpp
3261:__GLOBAL__sub_I_Runtime_Video_0_cpp
3262:__GLOBAL__sub_I_Modules_Audio_Public_0_cpp
3263:__GLOBAL__sub_I_Modules_Audio_Public_1_cpp
3264:__GLOBAL__sub_I_Modules_Audio_Public_3_cpp
3265:__GLOBAL__sub_I_Modules_Audio_Public_ScriptBindings_1_cpp
3266:__GLOBAL__sub_I_Modules_Audio_Public_sound_0_cpp
3267:__ZN13RuntimeStaticIN13SoundReleaser17SoundReleaserHookELb0EE16StaticInitializeEPv
3268:__ZN13RuntimeStaticIN13SoundReleaser17SoundReleaserHookELb0EE13StaticDestroyEPv
3269:__ZN13RuntimeStaticINSt3__28multimapIjP12SoundDecoderNS0_4lessIjEE13stl_allocatorINS0_4pairIKjS3_EEL18MemLabelIdentifier31ELi16EEEELb0EE13StaticDestroyEPv
3270:__ZNSt3__26__treeINS_12__value_typeIjP12SoundDecoderEENS_19__map_value_compareIjS4_NS_4lessIjEELb1EEE13stl_allocatorIS4_L18MemLabelIdentifier31ELi16EEE7destroyEPNS_11__tree_nodeIS4_PvEE
3271:__ZN24StaticInitializeInternal13ConstructTypeIN13SoundReleaser17SoundReleaserHookELb0EEEPvS3_10MemLabelId
3272:__ZN13SoundReleaser17SoundReleaserHook11OnCloseFMODEv
3273:__ZN13RuntimeStaticINSt3__23mapIjP26AudioSampleProviderChannelNS0_4lessIjEE13stl_allocatorINS0_4pairIKjS3_EEL18MemLabelIdentifier31ELi16EEEELb0EE13StaticDestroyEPv
3274:__ZNSt3__26__treeINS_12__value_typeIjP26AudioSampleProviderChannelEENS_19__map_value_compareIjS4_NS_4lessIjEELb1EEE13stl_allocatorIS4_L18MemLabelIdentifier31ELi16EEE7destroyEPNS_11__tree_nodeIS4_PvEE
3275:__ZL37StaticInitializeAudioCustomFilterRootPv
3276:__ZL34StaticDestroyAudioCustomFilterRootPv
3277:__ZN13RuntimeStaticI13dynamic_arrayIPN12AudioManager15ManagerListenerELm0EELb0EE16StaticInitializeEPv
3278:__ZN13RuntimeStaticI13dynamic_arrayIPN12AudioManager15ManagerListenerELm0EELb0EE13StaticDestroyEPv
3279:__ZN13RuntimeStaticINSt3__23mapIjP19AudioSampleProviderNS0_4lessIjEE13stl_allocatorINS0_4pairIKjS3_EEL18MemLabelIdentifier31ELi16EEEELb0EE13StaticDestroyEPv
3280:__ZL37StaticInitializeAudioSourceFilterRootPv
3281:__ZL34StaticDestroyAudioSourceFilterRootPv
3282:__ZNSt3__26__treeINS_12__value_typeIjP19AudioSampleProviderEENS_19__map_value_compareIjS4_NS_4lessIjEELb1EEE13stl_allocatorIS4_L18MemLabelIdentifier31ELi16EEE7destroyEPNS_11__tree_nodeIS4_PvEE
3283:__ZN20DiagnosticSwitchEnumI23FMODDebugDisplayOptionsE18SetValueFromStringEPKc
3284:__ZN20DiagnosticSwitchEnumI23FMODDebugDisplayOptionsE20ApplyPersistentValueEv
3285:__ZN20DiagnosticSwitchEnumI23FMODDebugDisplayOptionsE20CollectScriptingInfoERN20DiagnosticSwitchBase13ScriptingInfoE
3286:__ZN20DiagnosticSwitchEnumI23FMODDebugDisplayOptionsE24UpdateFromScriptingValueE18ScriptingObjectPtrbP21ScriptingExceptionPtr
3287:__ZN10EnumTraits8ToStringI23FMODDebugDisplayOptionsEEN4core12basic_stringIcNS2_20StringStorageDefaultIcEEEET_
3288:__ZN4core20StringStorageDefaultIcE7replaceEmmPKcm
3289:__ZN10EnumTraits13TryFromStringI23FMODDebugDisplayOptionsEEbPKcbRT_
3290:__ZN20DiagnosticSwitchEnumI14FMODDebugTypesE18SetValueFromStringEPKc
3291:__ZN20DiagnosticSwitchEnumI14FMODDebugTypesE20ApplyPersistentValueEv
3292:__ZN20DiagnosticSwitchEnumI14FMODDebugTypesE20CollectScriptingInfoERN20DiagnosticSwitchBase13ScriptingInfoE
3293:__ZN20DiagnosticSwitchEnumI14FMODDebugTypesE24UpdateFromScriptingValueE18ScriptingObjectPtrbP21ScriptingExceptionPtr
3294:__ZN10EnumTraits8ToStringI14FMODDebugTypesEEN4core12basic_stringIcNS2_20StringStorageDefaultIcEEEET_
3295:__ZN10EnumTraits13TryFromStringI14FMODDebugTypesEEbPKcbRT_
3296:__ZN24StaticInitializeInternal13ConstructTypeI13dynamic_arrayIPN12AudioManager15ManagerListenerELm0EELb0EEEPvS6_10MemLabelId
3297:__ZN13RuntimeStaticINSt3__23setIP26AudioSampleProviderChannelNS0_4lessIS3_EE13stl_allocatorIS3_L18MemLabelIdentifier31ELi16EEEELb0EE16StaticInitializeEPv
3298:__ZN13RuntimeStaticINSt3__23setIP26AudioSampleProviderChannelNS0_4lessIS3_EE13stl_allocatorIS3_L18MemLabelIdentifier31ELi16EEEELb0EE13StaticDestroyEPv
3299:__ZNSt3__26__treeIP26AudioSampleProviderChannelNS_4lessIS2_EE13stl_allocatorIS2_L18MemLabelIdentifier31ELi16EEE7destroyEPNS_11__tree_nodeIS2_PvEE
3300:__ZN13RuntimeStaticINSt3__26vectorIP16BaseVideoTexture13stl_allocatorIS3_L18MemLabelIdentifier24ELi16EEEELb0EE16StaticInitializeEPv
3301:__ZN13RuntimeStaticINSt3__26vectorIP16BaseVideoTexture13stl_allocatorIS3_L18MemLabelIdentifier24ELi16EEEELb0EE13StaticDestroyEPv
3302:__ZN13RuntimeStaticINSt3__26vectorI12WebCamDeviceNS0_9allocatorIS2_EEEELb0EE16StaticInitializeEPv
3303:__ZN13RuntimeStaticINSt3__26vectorI12WebCamDeviceNS0_9allocatorIS2_EEEELb0EE13StaticDestroyEPv
3304:__ZN24StaticInitializeInternal13ConstructTypeINSt3__26vectorI12WebCamDeviceNS1_9allocatorIS3_EEEELb0EEEPvS7_10MemLabelId
3305:__ZN9Scripting11UnityEngine5AudioL58__ManagedRegistrationHelperFunction_AudioClipPlayableProxyEPv
3306:__ZN9Scripting11UnityEngine5AudioL59__ManagedRegistrationHelperFunction_AudioMixerPlayableProxyEPv
3307:__ZN9Scripting11UnityEngine5AudioL60__ManagedRegistrationHelperFunction_AudioPlayableOutputProxyEPv
3308:__ZN9Scripting11UnityEngineL50__ManagedRegistrationHelperFunction_AudioClipProxyEPv
3309:__ZN9Scripting11UnityEngineL54__ManagedRegistrationHelperFunction_AudioSettingsProxyEPv
3310:__ZN9Scripting11UnityEngine12Experimental5AudioL60__ManagedRegistrationHelperFunction_AudioSampleProviderProxyEPv
3311:__ZN9Scripting11UnityEngineL53__ManagedRegistrationHelperFunction_WebCamDeviceProxyEPv
3312:__ZN9Scripting11UnityEngine17WebCamDeviceProxy9InitProxyEv
3313:__ZN9Scripting11UnityEngine17WebCamDeviceProxy12CleanupProxyEv
3314:__ZN9Scripting11UnityEngine12Experimental5Audio24AudioSampleProviderProxy9InitProxyEv
3315:__ZN9Scripting11UnityEngine12Experimental5Audio24AudioSampleProviderProxy12CleanupProxyEv
3316:__ZN9Scripting11UnityEngine18AudioSettingsProxy9InitProxyEv
3317:__ZN9Scripting11UnityEngine18AudioSettingsProxy12CleanupProxyEv
3318:__ZN9Scripting11UnityEngine14AudioClipProxy9InitProxyEv
3319:__ZN9Scripting11UnityEngine14AudioClipProxy12CleanupProxyEv
3320:__ZN9Scripting11UnityEngine5Audio24AudioPlayableOutputProxy9InitProxyEv
3321:__ZN9Scripting11UnityEngine5Audio24AudioPlayableOutputProxy12CleanupProxyEv
3322:__ZN9Scripting11UnityEngine5Audio23AudioMixerPlayableProxy9InitProxyEv
3323:__ZN9Scripting11UnityEngine5Audio23AudioMixerPlayableProxy12CleanupProxyEv
3324:__ZN9Scripting11UnityEngine5Audio22AudioClipPlayableProxy9InitProxyEv
3325:__ZN9Scripting11UnityEngine5Audio22AudioClipPlayableProxy12CleanupProxyEv
3326:__ZNK7Texture20GetUnscaledTextureIDEv
3327:__ZNK7Texture11GetGPUWidthEv
3328:__ZNK7Texture12GetGPUHeightEv
3329:__ZNK7Texture16GetNpotTexelSizeEv
3330:__ZNK7Texture9HasMipMapEv
3331:__ZNK7Texture14GetMipmapCountEv
3332:__ZNK7Texture21GetShadowSamplingModeEv
3333:__ZN7Texture34UpdateFileTextureUploadInstructionEP24TextureUploadInstructionj
3334:__ZN4FMOD3DSP9setBypassEb
3335:__ZN4FMOD6System15createDSPByTypeE13FMOD_DSP_TYPEPPNS_3DSPE
3336:__ZN10ObjectPoolIN4FMOD3DSPENS0_4DSPIEE7GetFreeEi
3337:__ZN4FMOD3DSP12setParameterEif
3338:__ZN4FMOD3DSP7releaseEv
3339:__ZN15SerializeTraitsI9UnityGUIDE8TransferI14SafeBinaryReadEEvRS0_RT_
3340:__ZN9UnityGUID8TransferI24GenerateTypeTreeTransferEEvRT_
3341:__ZN9UnityGUID8TransferI18StreamedBinaryReadEEvRT_
3342:__ZN9UnityGUID8TransferI19StreamedBinaryWriteEEvRT_
3343:__ZN4FMOD6Reverb9setActiveEb
3344:__ZN15AudioReverbZone4InitEv
3345:__ZN4FMOD6System12createReverbEPPNS_6ReverbE
3346:__ZL16FMOD_ErrorString11FMOD_RESULT
3347:__ZN12AudioManager21FixMasterGroupRoutingEv
3348:__ZN15AudioReverbZone13SetFMODValuesEv
3349:__ZN4FMOD6System6updateEv
3350:__ZN4FMOD6Reverb15set3DAttributesEPK11FMOD_VECTORff
3351:__ZN4FMOD6Reverb13setPropertiesEPK22FMOD_REVERB_PROPERTIES
3352:__ZN4FMOD12ChannelGroup10getDSPHeadEPPNS_3DSPE
3353:__ZN4FMOD3DSP9getOutputEiPPS0_PPNS_13DSPConnectionE
3354:__ZN4FMOD3DSP8getInputEiPPS0_PPNS_13DSPConnectionE
3355:__ZN4FMOD3DSP12getNumInputsEPi
3356:__ZN4FMOD3DSP7getInfoEPcPjPiS3_S3_
3357:__ZN4FMOD3DSP13disconnectAllEbb
3358:__ZN4FMOD3DSP8addInputEPS0_PPNS_13DSPConnectionE
3359:__ZN4FMOD6Reverb7releaseEv
3360:__ZN12AudioManagerD2Ev
3361:__ZN12AudioManagerD0Ev
3362:__ZN12AudioManager17MainThreadCleanupEv
3363:__ZN12AudioManager13AwakeFromLoadE17AwakeFromLoadMode
3364:__ZN12AudioManager16CheckConsistencyEv
3365:__ZN12AudioManager5ResetEv
3366:__ZNK12AudioManager22GetTypeVirtualInternalEv
3367:__ZN12AudioManager23VirtualRedirectTransferER19StreamedBinaryWrite
3368:__ZN12AudioManager23VirtualRedirectTransferER18StreamedBinaryRead
3369:__ZN12AudioManager23VirtualRedirectTransferER24GenerateTypeTreeTransfer
3370:__ZN12AudioManager23VirtualRedirectTransferER14SafeBinaryRead
3371:__ZN12AudioManager8TransferI14SafeBinaryReadEEvRT_
3372:__ZN12AudioManager8TransferI24GenerateTypeTreeTransferEEvRT_
3373:__ZN12AudioManager8TransferI18StreamedBinaryReadEEvRT_
3374:__ZN12AudioManager8TransferI19StreamedBinaryWriteEEvRT_
3375:__ZN12AudioManager8InitFMODE15FMOD_OUTPUTTYPE
3376:__ZN12AudioManager29ShutdownReinitializeAndReloadE15FMOD_OUTPUTTYPEPS0_
3377:__ZN4FMOD12ChannelGroup9setVolumeEf
3378:__ZN4FMOD6System13set3DSettingsEfff
3379:__ZN4FMOD6System9getOutputEP15FMOD_OUTPUTTYPE
3380:__ZN12AudioManager9CloseFMODEv
3381:__ZN9AudioClip6ReloadEv
3382:__ZN13AudioListener12ApplyFiltersEv
3383:__ZN12AudioManager39HandlePendingAudioConfigurationCallbackEv
3384:__ZL31InitializeAudioScriptingClassesv
3385:__ZL28CleanupAudioScriptingClassesv
3386:__ZN11AudioFilter6GetDSPEv
3387:__ZN4FMOD3DSP6removeEv
3388:__Z15_CheckFMODError11FMOD_RESULTPKciS1_
3389:__ZN4FMOD12ChannelGroup6addDSPEPNS_3DSPEPPNS_13DSPConnectionE
3390:__ZN4FMOD3DSP9getBypassEPb
3391:__ZN11AudioSource7CleanupEv
3392:__ZN13AudioListener7CleanupEv
3393:__ZN15AudioReverbZone7CleanupEv
3394:__ZN10AudioMixer33EnsureMixerGroupSinksAreDestroyedEv
3395:__ZN5audio5mixer23DestroyAudioMixerMemoryEPNS0_16AudioMixerMemoryERKNS0_18AudioMixerConstantEPN4FMOD6SystemER20RuntimeBaseAllocator
3396:__ZN19AudioPlayableOutput21KillFMODResourceGraphEv
3397:__ZN26AudioSampleProviderChannel7CleanupEv
3398:__ZN4FMOD12ChannelGroup7releaseEv
3399:__ZN9AudioClip7CleanupEv
3400:__ZN4FMOD6System5closeEv
3401:__ZN12SoundManagerD2Ev
3402:__ZN12SoundManager20OnExitPlayModeStaticEv
3403:__ZN12SoundManager26OnBeforeDomainUnloadStaticEv
3404:__ZN12SoundManager6UpdateEv
3405:__ZN11SoundHandle8InstanceD2Ev
3406:__ZN20SoundChannelInstance4StopEv
3407:__ZN4FMOD5Sound7releaseEv
3408:__ZN4FMOD6SoundI7releaseEv
3409:__ZN4FMOD8ChannelI11EndCallbackEv
3410:__ZN4FMOD7Channel4stopEv
3411:__ZN4FMOD7Channel11setPositionEjj
3412:__ZN11SoundHandle8Instance15UpdateLoadStateEv
3413:__ZN4FMOD6System9playSoundE17FMOD_CHANNELINDEXPNS_5SoundEbPPNS_7ChannelE
3414:__ZN20SoundChannelInstance14SetFMODChannelEPN4FMOD7ChannelE
3415:__ZN20SoundChannelInstance15ParameterBuffer5ApplyEPN4FMOD7ChannelE
3416:__ZN20SoundChannelInstance12UpdateVolumeEv
3417:__ZN20SoundChannelInstance11UpdatePitchEv
3418:__ZN20SoundChannelInstance16UpdatePauseStateEv
3419:__ZN20SoundChannelInstance15UpdateStereoPanEv
3420:__ZN20SoundChannelInstance16Update3DPanLevelEv
3421:__ZN4FMOD7Channel7getModeEPj
3422:__ZN4FMOD7Channel13set3DPanLevelEf
3423:__ZN4FMOD7Channel6setPanEf
3424:__ZN4FMOD7Channel9setPausedEb
3425:__ZN4FMOD7Channel12setFrequencyEf
3426:__ZN4FMOD7Channel9setVolumeEf
3427:__ZN4FMOD8ChannelI9setVolumeEf
3428:__ZN4FMOD7Channel7setMuteEb
3429:__ZN4FMOD7Channel11setCallbackEPF11FMOD_RESULTP12FMOD_CHANNEL25FMOD_CHANNEL_CALLBACKTYPEPvS5_E
3430:__ZN4FMOD7Channel7setModeEj
3431:__ZN4FMOD7Channel15setChannelGroupEPNS_12ChannelGroupE
3432:__ZN4FMOD7Channel11setPriorityEi
3433:__ZN4FMOD7Channel19setReverbPropertiesEPK29FMOD_REVERB_CHANNELPROPERTIES
3434:__ZN4FMOD7Channel8setDelayE14FMOD_DELAYTYPEjj
3435:__ZN4FMOD7Channel15set3DAttributesEPK11FMOD_VECTORS3_
3436:__ZN4FMOD7Channel20set3DConeOrientationEP11FMOD_VECTOR
3437:__ZN4FMOD7Channel17set3DConeSettingsEfff
3438:__ZN4FMOD7Channel19set3DMinMaxDistanceEff
3439:__ZN4FMOD7Channel11set3DSpreadEf
3440:__ZN4FMOD8ChannelI15set3DAttributesEPK11FMOD_VECTORS3_
3441:__ZN4FMOD8ChannelI18UpdateDopplerPitchEv
3442:__ZN4FMOD8ChannelI8setDelayE14FMOD_DELAYTYPEjj
3443:__ZN4FMOD7Channel6addDSPEPNS_3DSPEPPNS_13DSPConnectionE
3444:__ZN4FMOD7Channel11setUserDataEPv
3445:__ZN20SoundChannelInstance19FMODChannelCallbackEP12FMOD_CHANNEL25FMOD_CHANNEL_CALLBACKTYPEPvS3_
3446:__ZN4FMOD7Channel12getFrequencyEPf
3447:__ZN4FMOD7Channel11getUserDataEPPv
3448:__ZN4FMOD7SystemI9playSoundE17FMOD_CHANNELINDEXPNS_5SoundEbPPNS_7ChannelE
3449:__ZN10ObjectPoolIN4FMOD7ChannelENS0_8ChannelIEE7GetFreeEi
3450:__ZN4FMOD22FakeModChannelCallbackEPv
3451:__ZN4FMOD5Sound12getOpenStateEP14FMOD_OPENSTATEPjPbS4_
3452:__ZN4FMOD5Sound15getNumSubSoundsEPi
3453:__ZN4FMOD5Sound11getSubSoundEiPPS0_
3454:__ZN11SoundHandle8Instance15FinalizeLoadingEv
3455:__ZN4FMOD5Sound11setUserDataEPv
3456:__ZN4FMOD8ChannelI11setPositionEjj
3457:__ZN10SampleClip15UnloadAudioDataEv
3458:__ZN12SoundManager10UnloadClipEP10SampleClip
3459:__ZN12SoundManager20RegisterModifiedClipEP10SampleClip
3460:__ZN11SoundHandle8Instance7DisposeEv
3461:__ZN11SoundHandleD2Ev
3462:__ZN11SoundHandle7ReleaseEv
3463:__ZN11SoundHandleaSERKS_
3464:__ZN26AudioSampleProviderChannel11ReleaseFMODEv
3465:__ZN13AudioPlayable26ReleaseFMODResourceVisitorERK16AudioProcessData
3466:__ZN13AudioPlayable27ReleaseChannelGroupsVisitorERK16AudioProcessData
3467:__ZN22AudioPlayableTraverser8TraverseERK16AudioProcessData
3468:__ZN11AudioFilter7CleanupEv
3469:__ZN17AudioCustomFilter7CleanupEv
3470:__ZN11AudioSource4StopEb
3471:__ZN4FMOD3DSP11getUserDataEPPv
3472:__ZN11AudioSource16CleanAudioSourceEb
3473:__ZN11AudioSource20SetEffectActiveStateEb
3474:__ZN4FMOD3DSP9setActiveEb
3475:__ZN13dynamic_arrayI12SoundChannelLm0EE13clear_deallocEv
3476:__ZN11AudioSource26MuteActiveProviderChannelsEv
3477:__ZN20SoundChannelInstance7setMuteEb
3478:_FMOD_Memory_Initialize
3479:_FMOD_System_Create
3480:__ZNK12AudioManager18ValidateFMODResultE11FMOD_RESULTiPKcS2_
3481:__Z14FMOD_FILE_OpenPKciPjPPvS3_
3482:__Z15FMOD_FILE_ClosePvS_
3483:__Z14FMOD_FILE_ReadPvS_jPjS_
3484:__Z14FMOD_FILE_SeekPvjS_
3485:__ZN4FMOD6System13setFileSystemEPF11FMOD_RESULTPKciPjPPvS6_EPFS1_S5_S5_EPFS1_S5_S5_jS4_S5_EPFS1_S5_jS5_EPFS1_P18FMOD_ASYNCREADINFOS5_ESA_i
3486:__ZN4FMOD6System10getVersionEPj
3487:__ZN4FMOD6System19setStreamBufferSizeEjj
3488:__ZN12AudioManager14systemCallbackEP11FMOD_SYSTEM24FMOD_SYSTEM_CALLBACKTYPEPvS3_
3489:__ZN4FMOD6System11setCallbackEPF11FMOD_RESULTP11FMOD_SYSTEM24FMOD_SYSTEM_CALLBACKTYPEPvS5_E
3490:__ZN11AudioSource15rolloffCallbackEP12FMOD_CHANNELf
3491:__ZN4FMOD6System20set3DRolloffCallbackEPFfP12FMOD_CHANNELfE
3492:__ZN12AudioManager10InitNormalEb15FMOD_OUTPUTTYPE
3493:__ZN4FMOD6System7releaseEv
3494:__ZN4FMOD6System21getMasterChannelGroupEPPNS_12ChannelGroupE
3495:__ZN4FMOD6System17getSoftwareFormatEPiP17FMOD_SOUND_FORMATS1_S1_P18FMOD_DSP_RESAMPLERS1_
3496:__ZN4FMOD6System16getDSPBufferSizeEPjPi
3497:__ZN4FMOD6System11getDSPClockEPjS1_
3498:__Z29AudioMasterDSPProcessCallbackP21UnityAudioEffectStatePfS1_jii
3499:__ZN29AudioEffectInternalDefinition9CreateDSPEPN4FMOD6SystemEPvPfP23UnityAudioAmbisonicDataPP25UnityAudioSpatializerData
3500:__ZN4FMOD6System18createChannelGroupEPKcPPNS_12ChannelGroupE
3501:__ZN4FMOD12ChannelGroup8addGroupEPS0_
3502:__ZN29AudioEffectInternalDefinitionD2Ev
3503:__ZN12SoundManagerC2Ev
3504:__ZN10ObjectPoolIN4FMOD12ChannelGroupENS0_13ChannelGroupIEE7GetFreeEi
3505:__ZN4FMOD6System9createDSPEP20FMOD_DSP_DESCRIPTIONPPNS_3DSPE
3506:__ZN29AudioEffectInternalDefinitionC2EP26UnityAudioEffectDefinitionb
3507:__ZN30AudioEffectInternalDescriptionC2EP26UnityAudioEffectDefinition
3508:__ZL39UnityAudioEffect_InternalCreateCallbackP14FMOD_DSP_STATE
3509:__ZL40UnityAudioEffect_InternalReleaseCallbackP14FMOD_DSP_STATE
3510:__ZL38UnityAudioEffect_InternalResetCallbackP14FMOD_DSP_STATE
3511:__ZL37UnityAudioEffect_InternalReadCallbackP14FMOD_DSP_STATEPfS1_jii
3512:__ZL44UnityAudioEffect_InternalSetPositionCallbackP14FMOD_DSP_STATEj
3513:__ZL50UnityAudioEffect_InternalSetFloatParameterCallbackP14FMOD_DSP_STATEif
3514:__ZL50UnityAudioEffect_InternalGetFloatParameterCallbackP14FMOD_DSP_STATEiPfPc
3515:__ZN4FMOD3DSP11setUserDataEPv
3516:__ZN4FMOD6System9setOutputE15FMOD_OUTPUTTYPE
3517:__ZN4FMOD6System13getNumDriversEPi
3518:__ZN4FMOD6System9getDriverEPi
3519:__ZN4FMOD6System13getDriverCapsEiPjPiP16FMOD_SPEAKERMODE
3520:__ZN4FMOD6System14setSpeakerModeE16FMOD_SPEAKERMODE
3521:__ZN4FMOD6System16setDSPBufferSizeEji
3522:__ZN4FMOD6System17setSoftwareFormatEi17FMOD_SOUND_FORMATii18FMOD_DSP_RESAMPLER
3523:__ZN4FMOD6System19setSoftwareChannelsEi
3524:__ZN4FMOD6System19setAdvancedSettingsEP21FMOD_ADVANCEDSETTINGS
3525:__ZN4FMOD6System4initEijPv
3526:__ZN10ObjectPoolIN4FMOD7ChannelENS0_8ChannelIEE7SetSizeEi
3527:__ZN12AudioManager27SetActiveOutputDriverCommonEP9FMOD_GUIDRKN4core12basic_stringIcNS2_20StringStorageDefaultIcEEEEb
3528:__ZN4FMOD6System9setDriverEi
3529:__ZN4FMOD6System13getDriverInfoEiPciP9FMOD_GUID
3530:__ZN4FMOD7SystemIC2Ei
3531:__ZN10ObjectPoolIN4FMOD12ChannelGroupENS0_13ChannelGroupIEE7SetSizeEi
3532:__ZN10ObjectPoolIN4FMOD5SoundENS0_6SoundIEE7SetSizeEi
3533:__ZN10ObjectPoolIN4FMOD3DSPENS0_4DSPIEE7SetSizeEi
3534:__ZN12AudioManager27InitialCompleteDomainReloadEv
3535:__ZN24AudioScriptBufferManager4InitEv
3536:__ZN24AudioScriptBufferManagerC2Ev
3537:__ZN10AudioMixer6UpdateEf
3538:__ZN10AudioMixer18EnsureValidRuntimeEv
3539:__ZN5audio5mixer22UpdateAudioMixerMemoryERKNS0_18AudioMixerConstantERNS0_16AudioMixerMemoryEfPN4FMOD6SystemEf
3540:__ZN4FMOD12ChannelGroup19setAudibilityFactorEf
3541:__ZN4FMOD12ChannelGroup8setPitchEf
3542:__ZN4FMOD13DSPConnection6setMixEf
3543:__ZN5audio5mixerL19IsAnyChannelPlayingEPN4FMOD12ChannelGroupE
3544:__ZN5audio5mixer12SetSuspendedERNS0_16AudioMixerMemoryEb
3545:__ZN4FMOD3DSP9getActiveEPb
3546:__ZN4FMOD3DSP15getSystemObjectEPPNS_6SystemE
3547:__ZN4FMOD12ChannelGroup14getNumChannelsEPi
3548:__ZN4FMOD12ChannelGroup10getChannelEiPPNS_7ChannelE
3549:__ZN4FMOD7Channel9isPlayingEPb
3550:__ZN4FMOD12ChannelGroup12getNumGroupsEPi
3551:__ZN4FMOD12ChannelGroup8getGroupEiPPS0_
3552:__ZN5audio5mixer22CreateAudioMixerMemoryERKNS0_18AudioMixerConstantEPN4FMOD6SystemER20RuntimeBaseAllocatorib
3553:__ZN10AudioMixer31EnsureMixerGroupSinksAreCreatedEv
3554:__ZN10AudioMixer14UpdateMuteSoloEv
3555:__ZN5audio5mixer12UpdateBypassERNS0_18AudioMixerConstantERNS0_16AudioMixerMemoryE
3556:__ZN5audio5mixer21SetResultingMuteStateERKNS0_18AudioMixerConstantERKNS0_16AudioMixerMemoryEib
3557:__ZN10AudioMixer11SetupGroupsEv
3558:__ZN12AudioManager37RebindAudioSourcesAndSubMixersToMixerEP10AudioMixer
3559:__ZN11AudioSource19ConfigureFMODGroupsEv
3560:__ZN10AudioMixer12RebindOutputEv
3561:__ZN5audio5mixer16FindChannelGroupERKNS0_18AudioMixerConstantERKNS0_16AudioMixerMemoryERK9UnityGUID
3562:__ZN5audio5mixer17AssignOutputGroupERKNS0_18AudioMixerConstantERKNS0_16AudioMixerMemoryEPN4FMOD12ChannelGroupE
3563:__ZN4FMOD12ChannelGroup14getParentGroupEPPS0_
3564:__ZN11AudioSource12ApplyFiltersEv
3565:__ZNK11AudioSource19GetFilterComponentsERNSt3__26vectorIPN4FMOD3DSPENS0_9allocatorIS4_EEEEb
3566:__ZNSt3__26vectorIPN4FMOD3DSPENS_9allocatorIS3_EEE21__push_back_slow_pathIRKS3_EEvOT_
3567:__ZN10AudioMixer14MixerGroupSink15ProcessCallbackEP21UnityAudioEffectStatePfS3_jii
3568:__ZN4FMOD12ChannelGroup7setMuteEb
3569:__Z32AudioMeasurement_GetTimeConstantff
3570:__Z25GetAudioEffectDefinitionsPi
3571:__Z29AudioMixerSendProcessCallbackP21UnityAudioEffectStatePfS1_jii
3572:__Z32AudioMixerReceiveProcessCallbackP21UnityAudioEffectStatePfS1_jii
3573:__Z31AudioMixerDuckingCreateCallbackP21UnityAudioEffectState
3574:__Z32AudioMixerDuckingDestroyCallbackP21UnityAudioEffectState
3575:__Z37AudioMixerDuckingSetParameterCallbackP21UnityAudioEffectStateif
3576:__Z39AudioMixerDuckingGetFloatBufferCallbackP21UnityAudioEffectStatePKcPfi
3577:__Z32AudioMixerDuckingProcessCallbackP21UnityAudioEffectStatePfS1_jii
3578:__Z30AudioMixerFaderProcessCallbackP21UnityAudioEffectStatePfS1_jii
3579:__ZN4FMOD3DSP14disconnectFromEPS0_
3580:__ZN12AudioManager33GetAudioEffectInternalDefinitionsEv
3581:__ZN13dynamic_arrayIS_IfLm0EELm0EED2Ev
3582:__ZN10SampleClip13LoadBaseSoundEv
3583:__ZNK10SampleClip17CalculateFMODModeEv
3584:__ZN12SoundManager9GetHandleERK16StreamedResourceijjP10SampleClipb
3585:__Z13LoadFMODSoundPPN11SoundHandle8InstanceEPKcjP10SampleClipjN3VFS8FileSizeEP22FMOD_CREATESOUNDEXINFO
3586:__ZN12SoundManager18IntegrateFMODSoundEPN11SoundHandle8InstanceERK16StreamedResourcejiN17SoundHandleShared9LoadStateE
3587:__ZN4FMOD5Sound13setLoopPointsEjjjj
3588:__ZN11SoundHandle8InstanceC2Ev
3589:__ZN4FMOD6System11createSoundEPKcjP22FMOD_CREATESOUNDEXINFOPPNS_5SoundE
3590:__ZN4FMOD7SystemI11createSoundEPKcjP22FMOD_CREATESOUNDEXINFOPPNS_5SoundE
3591:__ZN10ObjectPoolIN4FMOD5SoundENS0_6SoundIEE7GetFreeEi
3592:__ZNK7WeakPtrIN11SoundHandle8InstanceEE10SharedData9GetRawPtrEv
3593:__ZN11AudioSource16UpdatePauseStateEv
3594:__ZN11SoundHandleC2ERKS_
3595:__ZN20SoundChannelInstance8setDelayE14FMOD_DELAYTYPEjj
3596:__ZN11AudioSource32CorrectScheduledTimeAfterUnpauseEyy
3597:__ZN20SoundChannelInstance8getDelayE14FMOD_DELAYTYPEPjS1_
3598:__ZN10SampleClipD2Ev
3599:__ZN10SampleClipD0Ev
3600:__ZN10SampleClip17MainThreadCleanupEv
3601:__ZNK10SampleClip22GetTypeVirtualInternalEv
3602:__ZN10SampleClip23VirtualRedirectTransferER24GenerateTypeTreeTransfer
3603:__ZN10SampleClip23VirtualRedirectTransferER14SafeBinaryRead
3604:__ZNK10SampleClip12GetLoadStateEv
3605:__ZN9AudioClipD2Ev
3606:__ZN9AudioClipD0Ev
3607:__ZN9AudioClip17MainThreadCleanupEv
3608:__ZN9AudioClip13AwakeFromLoadE17AwakeFromLoadMode
3609:__ZN9AudioClip21AwakeFromLoadThreadedEv
3610:__ZNK9AudioClip22GetTypeVirtualInternalEv
3611:__ZN9AudioClip23VirtualRedirectTransferER19StreamedBinaryWrite
3612:__ZN9AudioClip23VirtualRedirectTransferER18StreamedBinaryRead
3613:__ZN9AudioClip23VirtualRedirectTransferER24GenerateTypeTreeTransfer
3614:__ZN9AudioClip23VirtualRedirectTransferER14SafeBinaryRead
3615:__ZN9AudioClip8TransferI14SafeBinaryReadEEvRT_
3616:__ZN9AudioClip8TransferI24GenerateTypeTreeTransferEEvRT_
3617:__ZN9AudioClip8TransferI18StreamedBinaryReadEEvRT_
3618:__ZN9AudioClip8TransferI19StreamedBinaryWriteEEvRT_
3619:__ZN9AudioClip9LoadSoundEv
3620:__ZN9AudioClip11CreateSoundEv
3621:__ZN12AudioManager22CreateFMODSoundFromWWWEP10IWWWStream15FMOD_SOUND_TYPE17FMOD_SOUND_FORMATjjbbP10SampleClip
3622:__ZN12SoundManager22GetHandleFromFMODSoundEPN11SoundHandle8InstanceEjP10SampleClip
3623:__ZN9AudioClip21ScriptPCMReadCallbackEP10FMOD_SOUNDPvj
3624:__ZN9AudioClip28ScriptPCMSetPositionCallbackEP10FMOD_SOUNDijj
3625:__ZN12SoundManager19CreateSoundInternalEPKcjP22FMOD_CREATESOUNDEXINFOR11SoundHandlejP10SampleClip
3626:__ZN4FMOD5Sound11getUserDataEPPv
3627:__ZN12AudioManager22GetScriptBufferManagerEv
3628:__ZN9AudioClip7WWWOpenEPKciPjPPvS4_
3629:__ZN9AudioClip8WWWCloseEPvS0_
3630:__ZN9AudioClip7WWWReadEPvS0_jPjS0_
3631:__ZN9AudioClip7WWWSeekEPvjS0_
3632:__ZN10IWWWStream25FromTextualRepresentationEPKc
3633:__ZN13AudioListenerD2Ev
3634:__ZN13AudioListenerD0Ev
3635:__ZN13AudioListener13AwakeFromLoadE17AwakeFromLoadMode
3636:__ZNK13AudioListener22GetTypeVirtualInternalEv
3637:__ZN13AudioListener23VirtualRedirectTransferER19StreamedBinaryWrite
3638:__ZN13AudioListener23VirtualRedirectTransferER18StreamedBinaryRead
3639:__ZN13AudioListener23VirtualRedirectTransferER17RemapPPtrTransfer
3640:__ZN13AudioListener23VirtualRedirectTransferER24GenerateTypeTreeTransfer
3641:__ZN13AudioListener23VirtualRedirectTransferER14SafeBinaryRead
3642:__ZN13AudioListener6UpdateEv
3643:__ZN13AudioListener11FixedUpdateEv
3644:__ZN13AudioListener12AddToManagerEv
3645:__ZN13AudioListener17RemoveFromManagerEv
3646:__ZN12AudioManager19RemoveAudioListenerEP13AudioListener
3647:__ZN12AudioManager16AddAudioListenerEP13AudioListener
3648:__ZN13AudioListener8DoUpdateEv
3649:__ZN12AudioManager14UpdateListenerERK8Vector3fS2_S2_S2_
3650:__ZNK18AudioLowPassFilter18GetCutoffFrequencyEv
3651:__ZN4FMOD6System23set3DListenerAttributesEiPK11FMOD_VECTORS3_S3_S3_
3652:__ZN12AudioManager22GetAutomaticUpdateModeEP10GameObject
3653:__ZN14AudioBehaviourD2Ev
3654:__ZNK14AudioBehaviour22GetTypeVirtualInternalEv
3655:__ZN17AudioCustomFilterD2Ev
3656:__ZN17AudioCustomFilterD0Ev
3657:__Z18RegisterUnityClassI9AudioClipEvPKc
3658:__Z18RegisterUnityClassI14AudioBehaviourEvPKc
3659:__Z18RegisterUnityClassI13AudioListenerEvPKc
3660:__ZN13ProduceHelperI13AudioListenerLb0EE7ProduceE10MemLabelId18ObjectCreationMode
3661:__ZN13AudioListener15InitializeClassEv
3662:__ZZN13AudioListener15InitializeClassEvEN31FunctorImpl_197kDidAddComponent4CallEPviR11MessageData
3663:__ZN14AudioBehaviourC2E10MemLabelId18ObjectCreationMode
3664:__ZN13ProduceHelperI9AudioClipLb0EE7ProduceE10MemLabelId18ObjectCreationMode
3665:__ZN10SampleClipC2E10MemLabelId18ObjectCreationMode
3666:__ZN16BaseVideoTexture19UpdateVideoTexturesEv
3667:__ZN16BaseVideoTexture18PauseVideoTexturesEv
3668:__ZN16BaseVideoTexture17StopVideoTexturesEv
3669:__ZN16BaseVideoTexture20SuspendVideoTexturesEv
3670:__ZN16BaseVideoTexture19ResumeVideoTexturesEv
3671:__ZNK17BaseWebCamTexture9GetPixelsE13TextureFormatPvm
3672:__ZZL31InitializeAudioManagerCallbacksvEN38FixedUpdateAudioFixedUpdateRegistrator7ForwardEv
3673:__ZZL31InitializeAudioManagerCallbacksvEN36PostLateUpdateUpdateAudioRegistrator7ForwardEv
3674:__ZZL31InitializeAudioManagerCallbacksvEN44PostLateUpdateUpdateVideoTexturesRegistrator7ForwardEv
3675:__ZN11AudioModule16SetListenerPauseEb
3676:__ZN11AudioModule19SetApplicationPauseEb
3677:__ZN11AudioModule11FixedUpdateEv
3678:__ZN11AudioModule6UpdateEv
3679:__ZN11AudioModule11GetDSPClockEv
3680:__ZN11AudioModule16GetDSPSampleRateEv
3681:__ZN11AudioModule15GetDSPBlockSizeEv
3682:__ZN11AudioModule17StopVideoTexturesEv
3683:__ZN11AudioModule19UpdateVideoTexturesEv
3684:__ZN11AudioModule18PauseVideoTexturesEv
3685:__ZN11AudioModule20SuspendVideoTexturesEv
3686:__ZN11AudioModule19ResumeVideoTexturesEv
3687:__ZN11AudioModule22CreateAudioClipFromWWWEP10IWWWStreamPKcbbi
3688:__ZN11AudioModule27IsFormatSupportedByPlatformEPKc
3689:__ZN11AudioModule30GetOrCreateDSPFromCustomFilterEP17AudioCustomFilter
3690:__ZN11AudioModule23CreateAudioCustomFilterEP13MonoBehaviour
3691:__ZN11AudioModule23DeleteAudioCustomFilterEP17AudioCustomFilter
3692:__ZN11AudioModule27GetDSPFromAudioCustomFilterEP17AudioCustomFilter
3693:__ZN11AudioModule14SetBypassOnDSPEPN4FMOD3DSPEb
3694:__ZN11AudioModule12CaptureFrameER13dynamic_arrayI22AudioProfilerGroupInfoLm0EERS0_I20AudioProfilerDSPInfoLm0EERS0_I21AudioProfilerClipInfoLm0EERS0_IcLm0EE
3695:__ZN11AudioModule25AudioManagerAwakeFromLoadE17AwakeFromLoadMode
3696:__ZN11AudioModule21SetActiveOutputDriverEPv
3697:__ZN11AudioModule26SetDefaultMicrophoneDriverEPv
3698:__ZN11AudioModule26AcquireAudioSampleProviderEiRN19AudioSampleProvider6HandleE
3699:__ZN11AudioModule28DoesAudioSampleProviderExistEi
3700:__ZN11AudioModule11EnableInputEP19AudioSampleProviderb
3701:__ZN11AudioModule19ConsumeSampleFramesEP19AudioSampleProviderR13dynamic_arrayIfLm0EE
3702:__ZN11AudioModule34GetAudioSampleProviderChannelCountEP19AudioSampleProvider
3703:__ZN11AudioModule32GetAudioSampleProviderSampleRateEP19AudioSampleProvider
3704:__ZN11AudioModule13IsMixerThreadEv
3705:__ZN11AudioModule13GetNumDevicesEv
3706:__ZN11AudioModule15IsAudioDisabledEv
3707:__ZNK12AudioManager13GetNumDevicesEv
3708:__ZN19AudioSampleProvider19ConsumeSampleFramesER13dynamic_arrayIfLm0EE
3709:__ZN19AudioSampleProvider23ExecuteSkipSampleFramesER13dynamic_arrayIfLm0EEm
3710:__ZN19AudioSampleProvider33ConsumeSampleFramesFromRingbufferEPfm
3711:__ZN20DiscontinuityHandler11ApplyFadeInER13dynamic_arrayIfLm0EE
3712:__ZN19AudioSampleProvider12ApplyFadeOutER13dynamic_arrayIfLm0EEmb
3713:__ZN20DiscontinuityHandler12ApplyFadeOutERK13dynamic_arrayIfLm0EEPf
3714:__ZL14GetFadeInCurvev
3715:__ZN13StreamHistory5ResetEv
3716:__ZZN19AudioSampleProvider33ConsumeSampleFramesFromRingbufferEPfmEN5Local12AddToHistoryER13StreamHistoryR22tuple_fixed_ringbufferIfEmZNS_33ConsumeSampleFramesFromRingbufferES0_mENS1_19HistoryAddBehaviourE
3717:__ZN13StreamHistory4CopyEPfmmm
3718:__ZNK13StreamHistory21OldestSampleChunkSizeEv
3719:__ZN13StreamHistory20PopOldestSampleChunkEv
3720:__ZN13StreamHistory18AcquireSampleChunkER13dynamic_arrayIfLm0EE
3721:__ZN13dynamic_arrayIS_IfLm0EELm0EE21resize_buffer_nocheckEm12ResizePolicy
3722:__ZN19AudioSampleProvider6ExistsEj
3723:__ZN19AudioSampleProvider7AcquireEjRNS_6HandleE
3724:__ZN12AudioManager26SetDefaultMicrophoneDriverEP9FMOD_GUID
3725:__ZN12AudioManager21SetActiveOutputDriverEP9FMOD_GUID
3726:__ZN17AudioCustomFilterC2EP13MonoBehaviour
3727:__ZN17AudioCustomFilter4InitEv
3728:__ZL22FMODDSPReleaseCallbackP14FMOD_DSP_STATE
3729:__ZL20SharedDataDeleterJobP21UnownedResourceHandleI17AudioCustomFilterE
3730:__ZN9AudioClip22GetFormatFromExtensionERKN4core12basic_stringIcNS0_20StringStorageDefaultIcEEEE
3731:__ZN9AudioClip16EnableLegacyModeEv
3732:__ZN9AudioClip10InitStreamEP10IWWWStreamPKcPvbb15FMOD_SOUND_TYPE
3733:__ZN9AudioClipC2E10MemLabelId18ObjectCreationMode
3734:__ZNK12AudioManager15GetDSPBlockSizeEv
3735:__ZNK12AudioManager16GetDSPSampleRateEv
3736:__ZNK12AudioManager11GetDSPClockEv
3737:__ZN12AudioManager6UpdateEv
3738:__ZN12AudioManager23ProcessScheduledSourcesEv
3739:__ZN12AudioManager11FixedUpdateEv
3740:__ZN12AudioManager19SetApplicationPauseEb
3741:__ZN12AudioManager16SetListenerPauseEb
3742:__Z18RegisterUnityClassI12AudioManagerEvPKc
3743:__Z18RegisterUnityClassI10SampleClipEvPKc
3744:__ZN13ProduceHelperI10SampleClipLb0EE7ProduceE10MemLabelId18ObjectCreationMode
3745:__ZN13ProduceHelperI12AudioManagerLb0EE7ProduceE10MemLabelId18ObjectCreationMode
3746:__ZN12AudioManagerC2E10MemLabelId18ObjectCreationMode
3747:_RegisterModule_Audio
3748:__Z22InitializeModule_Audiov
3749:__ZL19CleanupModule_Audiov
3750:__ZN13dynamic_arrayIfLm0EEC2Em10MemLabelId
3751:__ZN19AudioSampleProvider6RemoveEj
3752:__GLOBAL__sub_I_ClothScriptingClasses_cpp
3753:__GLOBAL__sub_I_Modules_Cloth_0_cpp
3754:___cxx_global_var_init_18
3755:__GLOBAL__sub_I_nvcloth_src_0_cpp
3756:__GLOBAL__sub_I_nvcloth_src_1_cpp
3757:__GLOBAL__sub_I_SwInterCollision_cpp
3758:__GLOBAL__sub_I_SwSolverKernel_cpp
3759:__ZN13RuntimeStaticI12ClothStaticsLb0EE16StaticInitializeEPv
3760:__ZN13RuntimeStaticI12ClothStaticsLb0EE13StaticDestroyEPv
3761:__ZN24StaticInitializeInternal13ConstructTypeI12ClothStaticsLb0EEEPvS2_10MemLabelId
3762:__ZN18ClothAssertHandlerclEPKcS1_iRb
3763:__ZN16ClothErrorStream11reportErrorEN5physx11PxErrorCode4EnumEPKcS4_i
3764:__ZN14ClothAllocator8allocateEmPKcS1_i
3765:__ZN14ClothAllocator10deallocateEPv
3766:__ZN9Scripting11UnityEngineL65__ManagedRegistrationHelperFunction_ClothSkinningCoefficientProxyEPv
3767:__ZN9Scripting11UnityEngineL64__ManagedRegistrationHelperFunction_ClothSphereColliderPairProxyEPv
3768:__ZN9Scripting11UnityEngine28ClothSphereColliderPairProxy9InitProxyEv
3769:__ZN9Scripting11UnityEngine28ClothSphereColliderPairProxy12CleanupProxyEv
3770:__ZN9Scripting11UnityEngine29ClothSkinningCoefficientProxy9InitProxyEv
3771:__ZN9Scripting11UnityEngine29ClothSkinningCoefficientProxy12CleanupProxyEv
3772:__GLOBAL__sub_I_artifacts_WebGL_codegenerator_0_cpp
3773:__GLOBAL__sub_I_Runtime_GfxDevice_opengles_0_cpp
3774:__GLOBAL__sub_I_Runtime_VirtualFileSystem_0_cpp
3775:__GLOBAL__sub_I_Runtime_Input_0_cpp
3776:__GLOBAL__sub_I_GfxDeviceNull_cpp
3777:__GLOBAL__sub_I_External_ProphecySDK_BlitOperations_1_cpp
3778:__GLOBAL__sub_I_Runtime_2D_Renderer_0_cpp
3779:__GLOBAL__sub_I_Runtime_2D_Sorting_0_cpp
3780:__GLOBAL__sub_I_Runtime_2D_SpriteAtlas_0_cpp
3781:__GLOBAL__sub_I_Runtime_Allocator_0_cpp
3782:__GLOBAL__sub_I_Runtime_Allocator_2_cpp
3783:__GLOBAL__sub_I_Runtime_Application_0_cpp
3784:__GLOBAL__sub_I_Runtime_BaseClasses_0_cpp
3785:__GLOBAL__sub_I_Runtime_BaseClasses_1_cpp
3786:__GLOBAL__sub_I_Runtime_BaseClasses_2_cpp
3787:__GLOBAL__sub_I_Runtime_BaseClasses_3_cpp
3788:__GLOBAL__sub_I_Runtime_Burst_0_cpp
3789:__GLOBAL__sub_I_Runtime_Camera_0_cpp
3790:__GLOBAL__sub_I_Runtime_Camera_1_cpp
3791:__GLOBAL__sub_I_Runtime_Camera_2_cpp
3792:__GLOBAL__sub_I_Runtime_Camera_6_cpp
3793:__GLOBAL__sub_I_Runtime_Camera_7_cpp
3794:__GLOBAL__sub_I_Runtime_Camera_8_cpp
3795:__GLOBAL__sub_I_Shadows_cpp
3796:__GLOBAL__sub_I_Runtime_Camera_Culling_0_cpp
3797:__GLOBAL__sub_I_GUITexture_cpp
3798:__GLOBAL__sub_I_Runtime_Camera_RenderLoops_0_cpp
3799:__GLOBAL__sub_I_Runtime_Camera_RenderLoops_2_cpp
3800:__GLOBAL__sub_I_Runtime_Containers_0_cpp
3801:__GLOBAL__sub_I_Runtime_Core_Callbacks_0_cpp
3802:__GLOBAL__sub_I_Runtime_File_0_cpp
3803:__GLOBAL__sub_I_Runtime_Geometry_2_cpp
3804:__GLOBAL__sub_I_Runtime_Graphics_0_cpp
3805:___cxx_global_var_init_96
3806:__GLOBAL__sub_I_Runtime_Graphics_1_cpp
3807:__GLOBAL__sub_I_Runtime_Graphics_2_cpp
3808:__GLOBAL__sub_I_Runtime_Graphics_4_cpp
3809:__GLOBAL__sub_I_Runtime_Graphics_5_cpp
3810:__GLOBAL__sub_I_Runtime_Graphics_6_cpp
3811:__GLOBAL__sub_I_Runtime_Graphics_8_cpp
3812:__GLOBAL__sub_I_Runtime_Graphics_10_cpp
3813:__GLOBAL__sub_I_Runtime_Graphics_11_cpp
3814:__GLOBAL__sub_I_Runtime_Graphics_Billboard_0_cpp
3815:__GLOBAL__sub_I_Runtime_Graphics_CommandBuffer_0_cpp
3816:__GLOBAL__sub_I_Runtime_Graphics_LOD_0_cpp
3817:__GLOBAL__sub_I_Runtime_Graphics_Mesh_0_cpp
3818:__GLOBAL__sub_I_Runtime_Graphics_Mesh_1_cpp
3819:__GLOBAL__sub_I_Runtime_Graphics_Mesh_2_cpp
3820:__GLOBAL__sub_I_Runtime_Graphics_Mesh_4_cpp
3821:__GLOBAL__sub_I_Runtime_Graphics_Mesh_5_cpp
3822:__GLOBAL__sub_I_Runtime_Graphics_ScriptableRenderLoop_0_cpp
3823:__GLOBAL__sub_I_Runtime_Interfaces_0_cpp
3824:__GLOBAL__sub_I_Runtime_Interfaces_1_cpp
3825:__GLOBAL__sub_I_Runtime_Interfaces_2_cpp
3826:__GLOBAL__sub_I_Runtime_Jobs_0_cpp
3827:__GLOBAL__sub_I_Runtime_Jobs_1_cpp
3828:__GLOBAL__sub_I_Runtime_Jobs_Internal_1_cpp
3829:__GLOBAL__sub_I_Runtime_Math_2_cpp
3830:__GLOBAL__sub_I_Runtime_Math_Random_0_cpp
3831:___cxx_global_var_init_134
3832:__GLOBAL__sub_I_Runtime_Misc_1_cpp
3833:__GLOBAL__sub_I_Runtime_Misc_3_cpp
3834:__GLOBAL__sub_I_Runtime_PreloadManager_0_cpp
3835:__GLOBAL__sub_I_Runtime_Profiler_0_cpp
3836:__GLOBAL__sub_I_Runtime_Profiler_2_cpp
3837:__GLOBAL__sub_I_Runtime_Profiler_ScriptBindings_0_cpp
3838:__GLOBAL__sub_I_Runtime_SceneManager_0_cpp
3839:___cxx_global_var_init_7551
3840:__GLOBAL__sub_I_Runtime_Shaders_1_cpp
3841:__GLOBAL__sub_I_Runtime_Shaders_3_cpp
3842:__GLOBAL__sub_I_Runtime_Shaders_ShaderImpl_2_cpp
3843:___cxx_global_var_init_8691
3844:__GLOBAL__sub_I_Runtime_Transform_0_cpp
3845:__GLOBAL__sub_I_Runtime_Transform_1_cpp
3846:__GLOBAL__sub_I_Runtime_Utilities_2_cpp
3847:___cxx_global_var_init_9091
3848:__GLOBAL__sub_I_Runtime_Utilities_5_cpp
3849:__GLOBAL__sub_I_Runtime_Utilities_6_cpp
3850:__GLOBAL__sub_I_Runtime_Utilities_7_cpp
3851:__GLOBAL__sub_I_Runtime_Utilities_9_cpp
3852:__GLOBAL__sub_I_AssetBundleFileSystem_cpp
3853:__GLOBAL__sub_I_Runtime_Modules_0_cpp
3854:___cxx_global_var_init_17
3855:___cxx_global_var_init_18_1194
3856:___cxx_global_var_init_19
3857:__GLOBAL__sub_I_Modules_Profiler_Public_0_cpp
3858:__GLOBAL__sub_I_Modules_Profiler_Runtime_1_cpp
3859:__GLOBAL__sub_I_UnsafeUtility_bindings_cpp
3860:__GLOBAL__sub_I_Runtime_GfxDevice_1_cpp
3861:__GLOBAL__sub_I_Runtime_GfxDevice_2_cpp
3862:__GLOBAL__sub_I_Runtime_GfxDevice_3_cpp
3863:__GLOBAL__sub_I_Runtime_GfxDevice_4_cpp
3864:__GLOBAL__sub_I_Runtime_GfxDevice_5_cpp
3865:__GLOBAL__sub_I_Runtime_PluginInterface_0_cpp
3866:__GLOBAL__sub_I_Runtime_Director_Core_1_cpp
3867:__GLOBAL__sub_I_Runtime_ScriptingBackend_Il2Cpp_0_cpp
3868:__GLOBAL__sub_I_Runtime_Scripting_0_cpp
3869:__GLOBAL__sub_I_Runtime_Scripting_2_cpp
3870:__GLOBAL__sub_I_Runtime_Scripting_3_cpp
3871:__GLOBAL__sub_I_Runtime_Mono_SerializationBackend_DirectMemoryAccess_0_cpp
3872:__GLOBAL__sub_I_Runtime_Mono_SerializationBackend_DirectMemoryAccess_1_cpp
3873:__GLOBAL__sub_I_TemplateInstantiations_cpp
3874:__GLOBAL__sub_I_Runtime_Scripting_APIUpdating_0_cpp
3875:__GLOBAL__sub_I_Runtime_Serialize_1_cpp
3876:__GLOBAL__sub_I_Runtime_Serialize_2_cpp
3877:__GLOBAL__sub_I_Runtime_Serialize_TransferFunctions_0_cpp
3878:__GLOBAL__sub_I_Runtime_Serialize_TransferFunctions_1_cpp
3879:__GLOBAL__sub_I_PlatformDependent_WebGL_Source_0_cpp
3880:__GLOBAL__sub_I_PlatformDependent_WebGL_Source_2_cpp
3881:__GLOBAL__sub_I_Mesh_cpp
3882:__GLOBAL__sub_I_LogAssert_cpp
3883:__GLOBAL__sub_I_Shader_cpp
3884:__GLOBAL__sub_I_PlatformDependent_WebGL_External_baselib_builds_Source_0_cpp
3885:__ZN9ShaderLab16FastPropertyName4InitEPKc
3886:__ZL19StaticDestroyShaderPv
3887:__ZN35RegisterRuntimeInitializeAndCleanupC2EPFvPvES2_iS0_
3888:__Z19free_alloc_internalPv10MemLabelIdPKci
3889:__ZN13MemoryManager16InitializeMemoryEv
3890:__ZN13MemoryManager10DeallocateEPv10MemLabelIdPKci
3891:__ZN13MemoryManager25GetAllocatorContainingPtrEPKv
3892:__ZN12TLSAllocator13TryDeallocateEPv
3893:__ZN14StackAllocator13TryDeallocateEPv
3894:__ZN13MemoryManagerC2Ev
3895:__ZN20DynamicHeapAllocatorC2EjbP15BucketAllocatorP24LowLevelVirtualAllocatorPKcb
3896:__ZN13MemoryManager17RegisterAllocatorEP13BaseAllocator
3897:__ZN13MemoryManager16LowLevelAllocateEmm
3898:_tlsf_create
3899:__ZN20DynamicHeapAllocatorD2Ev
3900:__ZN20DynamicHeapAllocatorD0Ev
3901:__ZN20DynamicHeapAllocator8AllocateEmi
3902:__ZN20DynamicHeapAllocator10ReallocateEPvmi
3903:__ZN20DynamicHeapAllocator10DeallocateEPv
3904:__ZN20DynamicHeapAllocator13TryDeallocateEPv
3905:__ZNK20DynamicHeapAllocator8ContainsEPKv
3906:__ZNK20DynamicHeapAllocator10GetPtrSizeEPKv
3907:__ZNK13BaseAllocator22GetAllocatedMemorySizeEv
3908:__ZNK13BaseAllocator21GetReservedMemorySizeEv
3909:__ZNK13BaseAllocator24GetBookKeepingMemorySizeEv
3910:__ZNK13BaseAllocator22GetNumberOfAllocationsEv
3911:__ZNK13BaseAllocator20GetFragmentationInfoEPii
3912:_tlsf_free
3913:__ZN20DynamicHeapAllocator10RemovePoolEPv
3914:_tlsf_remove_pool
3915:_tlsf_realloc_align_inplace
3916:__Z6FormatPKcz
3917:__Z17DebugStringToFileRK21DebugStringToFileData
3918:__Z40DebugStringToFilePostprocessedStacktraceRK21DebugStringToFileData
3919:__Z13GetStacktracei
3920:_printf_console
3921:__Z19WebGLPrintfConsolev7LogTypePKcPi
3922:__ZN14CallbackArray3IRK21DebugStringToFileData7LogTypebE6InvokeES2_S3_b
3923:__ZL20InternalErrorConsolePKcz
3924:__ZL21InternalAssertConsolePKcz
3925:__ZL22InternalWarningConsolePKcz
3926:__ZL18InternalLogConsolePKcz
3927:_tlsf_memalign
3928:_block_trim_used
3929:_block_locate_free
3930:_block_prepare_used
3931:__ZN20DynamicHeapAllocator14CreateTLSFPoolERm
3932:_tlsf_add_pool
3933:__ZdlPv
3934:__ZN13MemoryManager16VirtualAllocator17RegisterAllocatorEP13BaseAllocator
3935:__ZN13BaseAllocatorD2Ev
3936:__ZN13MemoryManager16VirtualAllocator18ReserveMemoryBlockEmN24LowLevelVirtualAllocator9BlockInfoE
3937:__ZN13MemoryManager16VirtualAllocator18ReleaseMemoryBlockEPvm
3938:__ZN13MemoryManager16VirtualAllocator12CommitMemoryEPvm
3939:__ZN13MemoryManager16VirtualAllocator14DecommitMemoryEPvm
3940:__ZN13MemoryManager16VirtualAllocator25GetMemoryBlockFromPointerEPKv
3941:__ZN13MemoryManager16VirtualAllocator23GetBlockInfoFromPointerEPKv
3942:_Baselib_Memory_SetPageState
3943:_Baselib_Memory_ReleasePages
3944:_Baselib_Memory_AllocatePages
3945:__ZL37Baselib_ErrorState_Validate_PageRangeyyyRK27Baselib_Memory_PageSizeInfoP18Baselib_ErrorState
3946:__ZNK4core8hash_setINS_4pairIKPKciLb0EEENS_9hash_pairIN9ShaderLab23ConstCharPtrHashFunctorES4_iEENS_10equal_pairINS7_19ConstCharPtrEqualToES4_iEEE6lookupIS3_SC_EEPNSD_4nodeERKT_RKT0_
3947:__Z20IsVectorBuiltinParamPKcPi
3948:__Z20IsMatrixBuiltinParamPKcPi
3949:__Z20IsTexEnvBuiltinParamPKcPi
3950:__Z15malloc_internalmm10MemLabelId15AllocateOptionsPKci
3951:__ZN4core8hash_mapIPKciN9ShaderLab23ConstCharPtrHashFunctorENS3_19ConstCharPtrEqualToEE6insertERKS2_RKi
3952:__ZN20dynamic_array_detail18dynamic_array_data4growEmm
3953:__Z16realloc_internalPvmm10MemLabelId15AllocateOptionsPKci
3954:__ZN13MemoryManager10ReallocateEPvmm10MemLabelId15AllocateOptionsPKci
3955:__ZN13MemoryManager8AllocateEmm10MemLabelId15AllocateOptionsPKci
3956:__ZN13MemoryManager20WarnAdditionOverflowE15AllocateOptions
3957:__ZN13MemoryManager38ReallocateFallbackToAllocateDeallocateEPvmm10MemLabelId15AllocateOptionsPKci
3958:__ZN12TLSAllocator10ReallocateEPvmi
3959:__ZN14StackAllocator10ReallocateEPvmi
3960:__ZN12TLSAllocator8AllocateEmi
3961:__ZL16OutOfMemoryErrormm10MemLabelIdiPKc
3962:__Z12FormatBufferPciPKcz
3963:__ZN14StackAllocator8AllocateEmi
3964:_Baselib_TLS_Alloc
3965:__ZN19ThreadSpecificValueIiE15ReinitializeTLSEPv
3966:__ZN13RuntimeStaticI17UniqueIDGeneratorLb0EE16StaticInitializeEPv
3967:__ZN17RuntimeStaticBase5SetupEPKcS1_i
3968:__Z15strcpy_truncatePcPKcmm
3969:__ZN24StaticInitializeInternal13ConstructTypeI17UniqueIDGeneratorLb0EEEPvS2_10MemLabelId
3970:__ZN17RuntimeStaticBase14InitializeImplEmPFPvS0_10MemLabelIdE
3971:__ZN17UniqueIDGeneratorC2E10MemLabelId
3972:__ZN17MessageIdentifierC2EPKcNS_7OptionsEPKN5Unity4TypeES1_
3973:__ZL17InitializeMessagePv
3974:__ZN13dynamic_arrayIN5webgl23EmscriptenGamepadDeviceELm0EEC2Em10MemLabelId
3975:__ZN12_GLOBAL__N_116StaticInitializeEPv
3976:__ZN12_GLOBAL__N_113StaticDestroyEPv
3977:__ZN21SystemInfoStringCache16StaticInitializeEPv
3978:__ZN21SystemInfoStringCache13StaticDestroyEPv
3979:__Znwm10MemLabelIdmPKci
3980:__ZNSt3__26__treeINS_12__value_typeIN4core12basic_stringIcNS2_20StringStorageDefaultIcEEEE9PrefValueEENS_19__map_value_compareIS6_S8_NS_4lessIS6_EELb1EEENS_9allocatorIS8_EEE7destroyEPNS_11__tree_nodeIS8_PvEE
3981:__Znwm
3982:__ZL30InitializeGlobalNameConversionPv
3983:__ZL27CleanupGlobalNameConversionPv
3984:__ZNSt3__26__treeINS_12__value_typeINS_4pairIPcS3_EENS_3setIS3_15compare_tstringIPKcENS_9allocatorIS3_EEEEEENS_19__map_value_compareIS4_SD_20smaller_tstring_pairIS8_ELb1EEE13stl_allocatorISD_L18MemLabelIdentifier42ELi16EEE7destroyEPNS_11__tree_nodeISD_PvEE
3985:__ZNSt3__26__treeIPc15compare_tstringIPKcENS_9allocatorIS1_EEE7destroyEPNS_11__tree_nodeIS1_PvEE
3986:__ZN13RuntimeStaticINSt3__23mapINS0_4pairIPcS3_EEPFbPvR14SafeBinaryReadE20smaller_tstring_pairIPKcENS0_9allocatorINS2_IKS4_S9_EEEEEELb0EE16StaticInitializeES5_
3987:__ZN13RuntimeStaticINSt3__23mapINS0_4pairIPcS3_EEPFbPvR14SafeBinaryReadE20smaller_tstring_pairIPKcENS0_9allocatorINS2_IKS4_S9_EEEEEELb0EE13StaticDestroyES5_
3988:__ZNSt3__26__treeINS_12__value_typeINS_4pairIPcS3_EEPFbPvR14SafeBinaryReadEEENS_19__map_value_compareIS4_SA_20smaller_tstring_pairIPKcELb1EEENS_9allocatorISA_EEE7destroyEPNS_11__tree_nodeISA_S5_EE
3989:__ZN13string_traitsIA20_cE8get_sizeERA20_Kc
3990:__ZN13string_traitsIA26_cE8get_sizeERA26_Kc
3991:__ZN13string_traitsIA21_cE8get_sizeERA21_Kc
3992:__ZN13string_traitsIA22_cE8get_sizeERA22_Kc
3993:__ZN13TypeTreeCacheL20OnRuntimeInitializedEPv
3994:__ZN13TypeTreeCacheL22OnRuntimeUninitializedEPv
3995:__ZN15TypeTreeQueriesL20OnRuntimeInitializedEPv
3996:__ZN15TypeTreeQueriesL22OnRuntimeUninitializedEPv
3997:__ZN15TypeTreeQueries5ResetEv
3998:__ZN14GfxDoubleCacheImy14GfxGenericHashImENSt3__28equal_toImEEN31GfxDoubleCacheConcurrencyPolicy11LocklessGetE42GfxDoubleCacheDefaultEmptyDeletedGeneratorImEL18MemLabelIdentifier82EE5ClearEv
3999:__ZN14GfxDoubleCacheImy14GfxGenericHashImENSt3__28equal_toImEEN31GfxDoubleCacheConcurrencyPolicy11LocklessGetE42GfxDoubleCacheDefaultEmptyDeletedGeneratorImEL18MemLabelIdentifier82EE4InitEv
4000:__ZN15dense_hashtableINSt3__24pairIKmyEEm14GfxGenericHashImEN14GfxDoubleCacheImyS5_NS0_8equal_toImEEN31GfxDoubleCacheConcurrencyPolicy11LocklessGetE42GfxDoubleCacheDefaultEmptyDeletedGeneratorImEL18MemLabelIdentifier82EE9SelectKeyES8_13stl_allocatorIS3_LSD_82ELi16EEE14squash_deletedEv
4001:__ZN15dense_hashtableINSt3__24pairIKmyEEm14GfxGenericHashImEN14GfxDoubleCacheImyS5_NS0_8equal_toImEEN31GfxDoubleCacheConcurrencyPolicy11LocklessGetE42GfxDoubleCacheDefaultEmptyDeletedGeneratorImEL18MemLabelIdentifier82EE9SelectKeyES8_13stl_allocatorIS3_LSD_82ELi16EEE9copy_fromERKSI_m
4002:_XXH32
4003:_XXH32_finalize
4004:__ZN13TypeTreeCache5ResetEv
4005:__ZN13TypeTreeCache18CachedTypeTreeData7ReleaseERS0_
4006:__ZN14GfxDoubleCacheIyN13TypeTreeCache18CachedTypeTreeDataENS0_13HashGeneratorENSt3__28equal_toIyEEN31GfxDoubleCacheConcurrencyPolicy11LocklessGetE42GfxDoubleCacheDefaultEmptyDeletedGeneratorIyEL18MemLabelIdentifier82EE7CleanupIPFvRS1_EEEvT_
4007:__ZN14GfxDoubleCacheIyN13TypeTreeCache18CachedTypeTreeDataENS0_13HashGeneratorENSt3__28equal_toIyEEN31GfxDoubleCacheConcurrencyPolicy11LocklessGetE42GfxDoubleCacheDefaultEmptyDeletedGeneratorIyEL18MemLabelIdentifier82EE4InitEv
4008:__ZN15dense_hashtableINSt3__24pairIKyN13TypeTreeCache18CachedTypeTreeDataEEEyNS3_13HashGeneratorEN14GfxDoubleCacheIyS4_S6_NS0_8equal_toIyEEN31GfxDoubleCacheConcurrencyPolicy11LocklessGetE42GfxDoubleCacheDefaultEmptyDeletedGeneratorIyEL18MemLabelIdentifier82EE9SelectKeyES9_13stl_allocatorIS5_LSE_82ELi16EEE14squash_deletedEv
4009:__ZN15dense_hashtableINSt3__24pairIKyN13TypeTreeCache18CachedTypeTreeDataEEEyNS3_13HashGeneratorEN14GfxDoubleCacheIyS4_S6_NS0_8equal_toIyEEN31GfxDoubleCacheConcurrencyPolicy11LocklessGetE42GfxDoubleCacheDefaultEmptyDeletedGeneratorIyEL18MemLabelIdentifier82EE9SelectKeyES9_13stl_allocatorIS5_LSE_82ELi16EEE9copy_fromERKSJ_m
4010:__ZN12UnityVersionC2EPKc
4011:__ZN11APIUpdating7CachingL20OnRuntimeInitializedEPv
4012:__ZN11APIUpdating7CachingL22OnRuntimeUninitializedEPv
4013:__ZN11APIUpdating7Caching5ResetEv
4014:__ZN15dense_hashtableINSt3__24pairIKN11APIUpdating7Caching6FQNKeyE17ScriptingClassPtrEES4_NS4_13HashGeneratorEN14GfxDoubleCacheIS4_S6_S8_NS0_8equal_toIS4_EEN31GfxDoubleCacheConcurrencyPolicy11LocklessGetENS4_12KeyGeneratorEL18MemLabelIdentifier113EE9SelectKeyESB_13stl_allocatorIS7_LSF_113ELi16EEE5clearEv
4015:__ZN15dense_hashtableINSt3__24pairIKN11APIUpdating7Caching6FQNKeyE17ScriptingClassPtrEES4_NS4_13HashGeneratorEN14GfxDoubleCacheIS4_S6_S8_NS0_8equal_toIS4_EEN31GfxDoubleCacheConcurrencyPolicy11LocklessGetENS4_12KeyGeneratorEL18MemLabelIdentifier113EE9SelectKeyESB_13stl_allocatorIS7_LSF_113ELi16EEED2Ev
4016:__ZN14GfxDoubleCacheI17ScriptingClassPtrS0_N11APIUpdating7Caching7TypeKey13HashGeneratorENS3_8EqualityEN31GfxDoubleCacheConcurrencyPolicy11LocklessGetENS3_12KeyGeneratorEL18MemLabelIdentifier113EE5ClearEv
4017:__ZN14GfxDoubleCacheIN11APIUpdating7Caching6FQNKeyE17ScriptingClassPtrNS2_13HashGeneratorENSt3__28equal_toIS2_EEN31GfxDoubleCacheConcurrencyPolicy11LocklessGetENS2_12KeyGeneratorEL18MemLabelIdentifier113EE4InitEv
4018:__ZN14GfxDoubleCacheI17ScriptingClassPtrS0_N11APIUpdating7Caching7TypeKey13HashGeneratorENS3_8EqualityEN31GfxDoubleCacheConcurrencyPolicy11LocklessGetENS3_12KeyGeneratorEL18MemLabelIdentifier113EE4InitEv
4019:__ZN15dense_hashtableINSt3__24pairIK17ScriptingClassPtrS2_EES2_N11APIUpdating7Caching7TypeKey13HashGeneratorEN14GfxDoubleCacheIS2_S2_S8_NS7_8EqualityEN31GfxDoubleCacheConcurrencyPolicy11LocklessGetENS7_12KeyGeneratorEL18MemLabelIdentifier113EE9SelectKeyESA_13stl_allocatorIS4_LSE_113ELi16EEE14squash_deletedEv
4020:__ZN15dense_hashtableINSt3__24pairIK17ScriptingClassPtrS2_EES2_N11APIUpdating7Caching7TypeKey13HashGeneratorEN14GfxDoubleCacheIS2_S2_S8_NS7_8EqualityEN31GfxDoubleCacheConcurrencyPolicy11LocklessGetENS7_12KeyGeneratorEL18MemLabelIdentifier113EE9SelectKeyESA_13stl_allocatorIS4_LSE_113ELi16EEE9copy_fromERKSJ_m
4021:__Z10CityHash64PKcm
4022:__ZL12HashLen0to16PKcm
4023:__ZN11APIUpdating7Caching6FQNKeyC2EPKcS3_S3_
4024:__ZN15dense_hashtableINSt3__24pairIKN11APIUpdating7Caching6FQNKeyE17ScriptingClassPtrEES4_NS4_13HashGeneratorEN14GfxDoubleCacheIS4_S6_S8_NS0_8equal_toIS4_EEN31GfxDoubleCacheConcurrencyPolicy11LocklessGetENS4_12KeyGeneratorEL18MemLabelIdentifier113EE9SelectKeyESB_13stl_allocatorIS7_LSF_113ELi16EEE13set_empty_keyERKS7_
4025:__ZN15dense_hashtableINSt3__24pairIKN11APIUpdating7Caching6FQNKeyE17ScriptingClassPtrEES4_NS4_13HashGeneratorEN14GfxDoubleCacheIS4_S6_S8_NS0_8equal_toIS4_EEN31GfxDoubleCacheConcurrencyPolicy11LocklessGetENS4_12KeyGeneratorEL18MemLabelIdentifier113EE9SelectKeyESB_13stl_allocatorIS7_LSF_113ELi16EEEC2ERKSK_m
4026:__ZN15dense_hashtableINSt3__24pairIKN11APIUpdating7Caching6FQNKeyE17ScriptingClassPtrEES4_NS4_13HashGeneratorEN14GfxDoubleCacheIS4_S6_S8_NS0_8equal_toIS4_EEN31GfxDoubleCacheConcurrencyPolicy11LocklessGetENS4_12KeyGeneratorEL18MemLabelIdentifier113EE9SelectKeyESB_13stl_allocatorIS7_LSF_113ELi16EEE4swapERSK_
4027:__ZN15dense_hashtableINSt3__24pairIKN11APIUpdating7Caching6FQNKeyE17ScriptingClassPtrEES4_NS4_13HashGeneratorEN14GfxDoubleCacheIS4_S6_S8_NS0_8equal_toIS4_EEN31GfxDoubleCacheConcurrencyPolicy11LocklessGetENS4_12KeyGeneratorEL18MemLabelIdentifier113EE9SelectKeyESB_13stl_allocatorIS7_LSF_113ELi16EEE9copy_fromERKSK_m
4028:__ZN15dense_hashtableINSt3__24pairIKN11APIUpdating7Caching6FQNKeyE17ScriptingClassPtrEES4_NS4_13HashGeneratorEN14GfxDoubleCacheIS4_S6_S8_NS0_8equal_toIS4_EEN31GfxDoubleCacheConcurrencyPolicy11LocklessGetENS4_12KeyGeneratorEL18MemLabelIdentifier113EE9SelectKeyESB_13stl_allocatorIS7_LSF_113ELi16EEE12expand_arrayEmN21dense_hash_map_traits17integral_constantIbLb0EEE
4029:__ZNK15dense_hashtableINSt3__24pairIKN11APIUpdating7Caching6FQNKeyE17ScriptingClassPtrEES4_NS4_13HashGeneratorEN14GfxDoubleCacheIS4_S6_S8_NS0_8equal_toIS4_EEN31GfxDoubleCacheConcurrencyPolicy11LocklessGetENS4_12KeyGeneratorEL18MemLabelIdentifier113EE9SelectKeyESB_13stl_allocatorIS7_LSF_113ELi16EEE12test_deletedERK30dense_hashtable_const_iteratorIS7_S4_S8_SH_SB_SJ_E
4030:__Z18CityHash64WithSeedPKcmy
4031:__ZNK15dense_hashtableINSt3__24pairIKN11APIUpdating7Caching6FQNKeyE17ScriptingClassPtrEES4_NS4_13HashGeneratorEN14GfxDoubleCacheIS4_S6_S8_NS0_8equal_toIS4_EEN31GfxDoubleCacheConcurrencyPolicy11LocklessGetENS4_12KeyGeneratorEL18MemLabelIdentifier113EE9SelectKeyESB_13stl_allocatorIS7_LSF_113ELi16EEE10test_emptyEm
4032:__Z50CreateTransferFunctionScriptingTraitsCacheInternalPv
4033:__Z49ClearTransferFunctionScriptingTraitsCacheInternalPv
4034:__Z41ClearTransferFunctionScriptingTraitsCachev
4035:__ZN13RuntimeStaticINSt3__23setIPFv17ScriptingClassPtrRN18SerializationCache4DataERbENS0_4lessIS8_EENS0_9allocatorIS8_EEEELb0EE16StaticInitializeEPv
4036:__ZN13RuntimeStaticINSt3__23setIPFv17ScriptingClassPtrRN18SerializationCache4DataERbENS0_4lessIS8_EENS0_9allocatorIS8_EEEELb0EE13StaticDestroyEPv
4037:__ZN18SerializationCacheL20OnRuntimeInitializedEPv
4038:__ZN18SerializationCacheL22OnRuntimeUninitializedEPv
4039:__ZN18SerializationCache5ResetEv
4040:__ZN18SerializationCache29DeleteCachedSerializationDataERNS_10CacheEntryE
4041:__ZN14GfxDoubleCacheIPvN18SerializationCache10CacheEntryENS1_21CommandsHashMapHasherENSt3__28equal_toIS0_EEN31GfxDoubleCacheConcurrencyPolicy11LocklessGetE42GfxDoubleCacheDefaultEmptyDeletedGeneratorIS0_EL18MemLabelIdentifier112EE7CleanupIPFvRS2_EEEvT_
4042:__ZN14GfxDoubleCacheIPvN18SerializationCache10CacheEntryENS1_21CommandsHashMapHasherENSt3__28equal_toIS0_EEN31GfxDoubleCacheConcurrencyPolicy11LocklessGetE42GfxDoubleCacheDefaultEmptyDeletedGeneratorIS0_EL18MemLabelIdentifier112EE4InitEv
4043:__ZN15dense_hashtableINSt3__24pairIKPvN18SerializationCache10CacheEntryEEES2_NS4_21CommandsHashMapHasherEN14GfxDoubleCacheIS2_S5_S7_NS0_8equal_toIS2_EEN31GfxDoubleCacheConcurrencyPolicy11LocklessGetE42GfxDoubleCacheDefaultEmptyDeletedGeneratorIS2_EL18MemLabelIdentifier112EE9SelectKeyESA_13stl_allocatorIS6_LSF_112ELi16EEE14squash_deletedEv
4044:__ZN15dense_hashtableINSt3__24pairIKPvN18SerializationCache10CacheEntryEEES2_NS4_21CommandsHashMapHasherEN14GfxDoubleCacheIS2_S5_S7_NS0_8equal_toIS2_EEN31GfxDoubleCacheConcurrencyPolicy11LocklessGetE42GfxDoubleCacheDefaultEmptyDeletedGeneratorIS2_EL18MemLabelIdentifier112EE9SelectKeyESA_13stl_allocatorIS6_LSF_112ELi16EEE9copy_fromERKSK_m
4045:__ZNSt3__26__treeIPFv17ScriptingClassPtrRN18SerializationCache4DataERbENS_4lessIS7_EENS_9allocatorIS7_EEE7destroyEPNS_11__tree_nodeIS7_PvEE
4046:__ZL45StaticInitScriptingManagedObjectProxyRegistryPv
4047:__ZL48StaticDestroyScriptingManagedObjectProxyRegistryPv
4048:__ZN20dynamic_array_detail18dynamic_array_data7reserveEmmm
4049:__ZL26StaticInitializeGCRecorderPv
4050:__ZL23StaticDestroyGCRecorderPv
4051:__ZN9profiling15ProfilerManager15DisposeRecorderEPNS_8RecorderE
4052:__ZN9profiling15ProfilerManager14CreateRecorderEPNS_6MarkerE
4053:__ZN9profiling8Recorder10SetEnabledEb
4054:__ZN9profiling8Recorder14SampleCallbackEPK23UnityProfilerMarkerDescttPK23UnityProfilerMarkerDataPv
4055:__ZN13RuntimeStaticINSt3__23mapIN4core12basic_stringIcNS2_20StringStorageDefaultIcEEEEPvNS0_4lessIS6_EENS0_9allocatorINS0_4pairIKS6_S7_EEEEEELb0EE16StaticInitializeES7_
4056:__ZN13RuntimeStaticINSt3__23mapIN4core12basic_stringIcNS2_20StringStorageDefaultIcEEEEPvNS0_4lessIS6_EENS0_9allocatorINS0_4pairIKS6_S7_EEEEEELb0EE13StaticDestroyES7_
4057:__ZN13RuntimeStaticINSt3__23mapI17ScriptingClassPtr13dynamic_arrayIS2_Lm0EENS0_4lessIS2_EENS0_9allocatorINS0_4pairIKS2_S4_EEEEEELb0EE16StaticInitializeEPv
4058:__ZN13RuntimeStaticINSt3__23mapI17ScriptingClassPtr13dynamic_arrayIS2_Lm0EENS0_4lessIS2_EENS0_9allocatorINS0_4pairIKS2_S4_EEEEEELb0EE13StaticDestroyEPv
4059:__ZN13RuntimeStaticINSt3__23mapI17ScriptingClassPtrS2_NS0_4lessIS2_EENS0_9allocatorINS0_4pairIKS2_S2_EEEEEELb0EE16StaticInitializeEPv
4060:__ZN13RuntimeStaticINSt3__23mapI17ScriptingClassPtrS2_NS0_4lessIS2_EENS0_9allocatorINS0_4pairIKS2_S2_EEEEEELb0EE13StaticDestroyEPv
4061:__ZN13RuntimeStaticINSt3__23mapI17ScriptingClassPtriNS0_4lessIS2_EENS0_9allocatorINS0_4pairIKS2_iEEEEEELb0EE16StaticInitializeEPv
4062:__ZN13RuntimeStaticINSt3__23mapI17ScriptingClassPtriNS0_4lessIS2_EENS0_9allocatorINS0_4pairIKS2_iEEEEEELb0EE13StaticDestroyEPv
4063:__ZN9profiling6MarkerC2EtPKcNS0_5FlagsE
4064:__ZN9profiling15ProfilerManager14RegisterMarkerEPNS_6MarkerEb
4065:__ZN4core8hash_mapINS_16basic_string_refIcEEPN9profiling6MarkerENS_4hashIS2_EENSt3__28equal_toIS2_EEE6insertERKS2_RKS5_
4066:__ZN19dynamic_block_arrayIPN9profiling6MarkerELm1024EE4growEm
4067:__ZN4core8hash_setINS_4pairIKNS_16basic_string_refIcEEPN9profiling6MarkerELb0EEENS_9hash_pairINS_4hashIS3_EES4_S7_EENS_10equal_pairINSt3__28equal_toIS3_EES4_S7_EEE4growEi
4068:__ZNSt3__26__treeINS_12__value_typeI17ScriptingClassPtriEENS_19__map_value_compareIS2_S3_NS_4lessIS2_EELb1EEENS_9allocatorIS3_EEE7destroyEPNS_11__tree_nodeIS3_PvEE
4069:__ZNSt3__26__treeINS_12__value_typeI17ScriptingClassPtrS2_EENS_19__map_value_compareIS2_S3_NS_4lessIS2_EELb1EEENS_9allocatorIS3_EEE7destroyEPNS_11__tree_nodeIS3_PvEE
4070:__ZNSt3__26__treeINS_12__value_typeI17ScriptingClassPtr13dynamic_arrayIS2_Lm0EEEENS_19__map_value_compareIS2_S5_NS_4lessIS2_EELb1EEENS_9allocatorIS5_EEE7destroyEPNS_11__tree_nodeIS5_PvEE
4071:__ZNSt3__26__treeINS_12__value_typeIN4core12basic_stringIcNS2_20StringStorageDefaultIcEEEEPvEENS_19__map_value_compareIS6_S8_NS_4lessIS6_EELb1EEENS_9allocatorIS8_EEE7destroyEPNS_11__tree_nodeIS8_S7_EE
4072:__ZL24ClearRegisteredCallbacksPv
4073:__ZN13RuntimeStaticI15DirectorManagerLb0EE16StaticInitializeEPv
4074:__ZN13RuntimeStaticI15DirectorManagerLb0EE13StaticDestroyEPv
4075:__ZN15DirectorManagerD2Ev
4076:__ZN15DirectorManager12CleanupClassEv
4077:__ZN15DirectorManager14ConnectionPool8DestructEv
4078:__ZNSt3__26__treeINS_12__value_typeIPvsEENS_19__map_value_compareIS2_S3_NS_4lessIS2_EELb1EEE13stl_allocatorIS3_L18MemLabelIdentifier90ELi16EEE7destroyEPNS_11__tree_nodeIS3_S2_EE
4079:__ZN15DirectorManager14ConnectionPool11ClearUnsafeEv
4080:__Z23DestroyMutexLockedStackP16MutexLockedStack
4081:__ZN24StaticInitializeInternal13ConstructTypeI15DirectorManagerLb0EEEPvS2_10MemLabelId
4082:__ZN15DirectorManagerC2Ev
4083:__ZN15DirectorManager15InitializeClassEv
4084:__ZZN15DirectorManager15InitializeClassEvEN43InitializationDirectorSampleTimeRegistrator7ForwardEv
4085:__ZZN15DirectorManager15InitializeClassEvEN45FixedUpdateDirectorFixedSampleTimeRegistrator7ForwardEv
4086:__ZZN15DirectorManager15InitializeClassEvEN41FixedUpdateDirectorFixedUpdateRegistrator7ForwardEv
4087:__ZZN15DirectorManager15InitializeClassEvEN52FixedUpdateDirectorFixedUpdatePostPhysicsRegistrator7ForwardEv
4088:__ZZN15DirectorManager15InitializeClassEvEN31UpdateDirectorUpdateRegistrator7ForwardEv
4089:__ZZN15DirectorManager15InitializeClassEvEN48PreLateUpdateDirectorDeferredEvaluateRegistrator7ForwardEv
4090:__ZZN15DirectorManager15InitializeClassEvEN43PostLateUpdateDirectorLateUpdateRegistrator7ForwardEv
4091:__ZZN15DirectorManager15InitializeClassEvEN44PostLateUpdateDirectorRenderImageRegistrator7ForwardEv
4092:__ZZN15DirectorManager15InitializeClassEvEN52PreLateUpdateDirectorUpdateAnimationBeginRegistrator7ForwardEv
4093:__ZZN15DirectorManager15InitializeClassEvEN50PreLateUpdateDirectorUpdateAnimationEndRegistrator7ForwardEv
4094:__ZZN15DirectorManager15InitializeClassEvEN42shutdownBeforeCleanupAllObjectsRegistrator7ForwardEv
4095:__ZZN15DirectorManager15InitializeClassEvEN32enterPlayModePreStartRegistrator7ForwardEv
4096:__ZN15DirectorManager14ConnectionPool14InitializePoolEmf
4097:__Z22CreateMutexLockedStackv
4098:__ZN17DirectorFrameTime14ResetDSPValuesEv
4099:__ZN15DirectorManager23ProcessPlayStateChangesEv
4100:__ZL18FlushGraphCommandsR13dynamic_arrayI16GraphCommandPairLm0EER16MutexLockedStack
4101:__ZN13PlayableGraph12PrepareFrameE16PrepareFrameTypedyj21DirectorThreadContext
4102:__ZN13PlayableGraph27DispatchOutputNotificationsEv
4103:__ZN13PlayableGraph7DestroyEv
4104:__ZN17ScriptingGCHandle15ReleaseAndClearEv
4105:__ZN13PlayableGraph23DestroyPendingPlayablesEv
4106:__ZN13PlayableGraph8EvaluateEdyj
4107:__ZN19GraphCycleValidator5CheckERK13PlayableGraph
4108:__ZN14PlayableOutput25FireConnectionHashChangedEv
4109:__ZNK14PlayableOutput17GetSourcePlayableEv
4110:__ZN19GraphCycleValidator8TraverseERK8PlayableiRN4core8hash_setINSt3__24pairIPS1_iEENS_30PlayableOutputPortPairHashFuncENS5_8equal_toIS8_EEEE
4111:__ZN4core8hash_setINSt3__24pairIPK8PlayableiEEN19GraphCycleValidator30PlayableOutputPortPairHashFuncENS1_8equal_toIS6_EEE6insertIS6_EENS_4pairINSB_13node_iteratorIS6_EEbLb0EEEOT_
4112:__ZN14PlayableOutput26ClearInvalidSourcePlayableEv
4113:__ZN20dynamic_array_detail18dynamic_array_data13resize_bufferEm12ResizePolicymm
4114:__ZN13PlayableGraph14DestroyOutputsEv
4115:__ZN8Playable6HandleEv
4116:__ZN8Playable16DisconnectInputsEPS_
4117:__ZN8Playable21DisconnectFromOutputsEPS_
4118:__ZN8Playable10DisconnectEPS_i
4119:__ZN8Playable20ClearInputConnectionEi
4120:__ZN15DirectorManager11AcquireNodeEv
4121:__ZN14PlayableOutput7DestroyEv
4122:__ZN15DirectorManager14FreeOutputNodeEP19HPlayableOutputNode
4123:__ZN13dynamic_arrayI25PlayableNotificationEntryLm0EE18resize_initializedEm12ResizePolicy
4124:__ZN17ScriptingGCHandle7AcquireE18ScriptingObjectPtr25ScriptingGCHandleWeakness
4125:__ZN14PlayableOutput6HandleEv
4126:__ZN14PlayableOutput21DispatchNotificationsEv
4127:__Z23GetCoreScriptingClassesv
4128:__Z30scripting_class_is_subclass_of17ScriptingClassPtrS_
4129:__ZNK10GameObject8IsActiveEv
4130:__ZN18ScriptingArguments9AddStructEPKv
4131:__ZN18ScriptingArguments9AddObjectE18ScriptingObjectPtr
4132:__ZN19ScriptingInvocation6InvokeEP21ScriptingExceptionPtrb
4133:__Z23scripting_method_invoke18ScriptingMethodPtr18ScriptingObjectPtrR18ScriptingArgumentsP21ScriptingExceptionPtrb
4134:__ZN9Scripting32GetScriptingWrapperForInstanceIDEi
4135:__ZN9Scripting11UnityEngine10DebugProxy25CallOverridenDebugHandlerE18ScriptingObjectPtrNS0_11ObjectProxyEP21ScriptingExceptionPtr
4136:__ZN9Scripting23LogExceptionFromManagedE21ScriptingExceptionPtriPKcb
4137:__Z30scripting_stack_trace_info_for21ScriptingExceptionPtrR14StackTraceInfo
4138:__ZN18ScriptingArguments12AddOutObjectEP18ScriptingObjectPtr
4139:__Z24scripting_cpp_string_for18ScriptingStringPtr
4140:__Z21PostprocessStacktracePKcRN4core12basic_stringIcNS1_20StringStorageDefaultIcEEEE
4141:__ZN4core5SplitENS_16basic_string_refIcEEcR13dynamic_arrayIS1_Lm0EEm
4142:__ZNK10FileSystem16CurrentDirectoryEv
4143:__Z14replace_stringRN4core12basic_stringIcNS_20StringStorageDefaultIcEEEENS_16basic_string_refIcEES6_m
4144:__ZN4core4TrimENS_16basic_string_refIcEEPKc
4145:__ZN4core13StringBuilder14UpdateWritePtrERPcb
4146:__Z9SplitImplIN4core16basic_string_refIcEEEvS2_cR13dynamic_arrayIT_Lm0EEm
4147:__Z18ConvertUTF16toUTF8PKtmPhRm
4148:__ZL30InitializeCoreScriptingClassesv
4149:__ZL27CleanupCoreScriptingClassesv
4150:__Z27SetupModuleScriptingClassesPFvvES0_
4151:__ZN19ScriptingInvocation6InvokeIbEET_P21ScriptingExceptionPtrb
4152:__Z12OptionalTypePKcS0_S0_
4153:__Z11RequireTypePKcS0_S0_
4154:__Z13RequireMethodPKcS0_S0_S0_
4155:__Z14OptionalMethodPKcS0_S0_S0_
4156:__ZN9Scripting9GetMethodE17ScriptingClassPtrPKc
4157:__Z36scripting_class_get_method_from_name17ScriptingClassPtrPKci
4158:__Z43scripting_class_get_method_from_name_filter17ScriptingClassPtrPKciN24ScriptingMethodFiltering18MethodSearchFilterEPK16ScriptingTypePtr
4159:__ZN24ScriptingMethodFiltering36MethodDescriptionMatchesSearchFilterENS_18MethodSearchFilterEbi
4160:__Z29scripting_class_from_fullnamePKcS0_S0_
4161:__Z32scripting_class_get_nested_types17ScriptingClassPtrRNSt3__26vectorIS_13stl_allocatorIS_L18MemLabelIdentifier1ELi16EEEE
4162:__ZN11MonoManager17GetScriptingClassEPKcS1_S1_
4163:__ZNK4core8hash_setINS_4pairIKNS_12basic_stringIcNS_20StringStorageDefaultIcEEEEiLb1EEENS_9hash_pairINS_4hashIS5_EES6_iEENS_10equal_pairINSt3__28equal_toIS5_EES6_iEEE6lookupIS5_SG_EEPNSH_4nodeERKT_RKT0_
4164:__ZN9Scripting34ScriptingWrapperClassForNativeTypeEPKN5Unity4TypeE
4165:__Z33scripting_unity_engine_object_new17ScriptingClassPtrP6Object
4166:__ZN9Scripting31ConnectScriptingWrapperToObjectE18ScriptingObjectPtrP6Object
4167:__ZN19ScriptingInvocationC2E18ScriptingMethodPtr
4168:__ZN18ScriptingArgumentsC2Ev
4169:__ZN15DirectorManager17AcquireOutputNodeEv
4170:__ZN14PlayableOutput15PrepareTraverseERK9FrameDatai
4171:__ZN8Playable19PrepareFrameVisitorER19DirectorVisitorInfo
4172:__ZN25PreOrderPlayableTraverser8TraverseER19DirectorVisitorInfo
4173:__ZN13PlayableGraph18DisableMultithreadEv
4174:__ZN13PlayableGraph6HandleEv
4175:__ZN8Playable16ProcessPlayStateERK19DirectorVisitorInfo
4176:__ZN8Playable11PrepareDataERK19DirectorVisitorInfo
4177:__ZN15DirectorManager29CacheScriptingMethodsForClassE17ScriptingClassPtr
4178:__ZNK15DirectorManager16GetScriptMethodsEs
4179:__ZNK15PlayableMethods17InvokePrepareDataERK18ScriptingObjectPtrRK9HPlayableP18ScriptingFrameData
4180:__ZN9Scripting29GetFirstNonGenericParentClassE17ScriptingClassPtrS0_
4181:__ZN9Scripting21GetOverrideMethodOnlyEPKc17ScriptingClassPtrS2_
4182:__ZN8Playable16CallOnGraphStartEv
4183:__ZNK15PlayableMethods20InvokeBehaviourDelayERK18ScriptingObjectPtrRK9HPlayableP18ScriptingFrameData
4184:__ZNK15PlayableMethods19InvokeBehaviourPlayERK18ScriptingObjectPtrRK9HPlayableP18ScriptingFrameData
4185:__ZNK15PlayableMethods20InvokeBehaviourPauseERK18ScriptingObjectPtrRK9HPlayableP18ScriptingFrameData
4186:__ZN8Playable15CallOnGraphStopEv
4187:__ZNK15PlayableMethods17InvokeOnGraphStopERK18ScriptingObjectPtrRK9HPlayable
4188:__ZNK15PlayableMethods18InvokeOnGraphStartERK18ScriptingObjectPtrRK9HPlayable
4189:__ZN13dynamic_arrayI16GraphCommandPairLm0EE13clear_deallocEv
4190:__ZN13dynamic_arrayI16GraphCommandPairLm0EE9push_backERKS0_
4191:__ZN15DirectorManager20ExecutePrepareFramesE13DirectorStage
4192:__ZN15DirectorManager18RebuildProcessJobsEv
4193:__ZN15DirectorManager19RegisterProcessJobsEP13PlayableGraph
4194:__ZNSt3__26vectorI20ProcessCallbackGroupNS_9allocatorIS1_EEE21__push_back_slow_pathIRKS1_EEvOT_
4195:__ZN15DirectorManager23RebuildPrepareFrameJobsEv
4196:__ZL19PrepareFrameJobFuncP15PrepareFrameJobj
4197:__Z26ScheduleJobForEachInternalR8JobFencePFvPvjES1_iPFvS1_E11JobPriority
4198:__ZN13dynamic_arrayI15PrepareFrameJobLm0EE4growEv
4199:__ZN15DirectorManager22EvaluateDeferredGraphsEv
4200:__ZN15DirectorManager17OnSampleFixedTimeEv
4201:__ZN17DirectorFrameTime10SampleTimeEffb
4202:__ZN17DirectorFrameTime21CalculateDSPDeltaTimeEv
4203:__ZN15DirectorManager12OnSampleTimeEv
4204:__ZN15DirectorManager14ConnectionPool16GrowEmptyBucketsEv
4205:__ZN15DirectorManager14ConnectionPool10CreateItemEi
4206:__ZL32StaticInitializeIUnityInterfacesPv
4207:__ZL29StaticCleanupIUnityInterfacesPv
4208:__ZL30StaticInitializeIUnityGraphicsPv
4209:__ZL30StaticInitializeIUnityProfilerPv
4210:__ZL39StaticInitializeIUnityProfilerCallbacksPv
4211:__ZL36StaticCleanupIUnityProfilerCallbacksPv
4212:__ZN13RuntimeStaticI13dynamic_arrayI22RenderingExtPluginDescLm0EELb0EE16StaticInitializeEPv
4213:__ZN13RuntimeStaticI13dynamic_arrayI19ShaderExtPluginDescLm0EELb0EE16StaticInitializeEPv
4214:__ZN13RuntimeStaticI37UnityShaderCompilerExtPluginConfigureLb0EE16StaticInitializeEPv
4215:__ZN24StaticInitializeInternal13ConstructTypeI37UnityShaderCompilerExtPluginConfigureLb0EEEPvS2_10MemLabelId
4216:__ZN37UnityShaderCompilerExtPluginConfigure14ReserveKeywordEPKc
4217:__ZN37UnityShaderCompilerExtPluginConfigure25SetGPUProgramCompilerMaskEj
4218:__ZN37UnityShaderCompilerExtPluginConfigure20SetShaderProgramMaskEj
4219:__ZN24ProfilerCallbacksHandlerD2Ev
4220:__ZN24ProfilerCallbacksHandler22CreateCategoryCallbackEtPv
4221:__ZN9profiling15ProfilerManager29UnregisterNewCategoryCallbackEPFvtPvES1_
4222:__ZN24ProfilerCallbacksHandler19CreateEventCallbackEPN9profiling6MarkerEPv
4223:__ZN9profiling15ProfilerManager27UnregisterNewMarkerCallbackEPFvPNS_6MarkerEPvES3_
4224:__ZN9profiling15ProfilerManager24UnregisterMarkerCallbackEPNS_6Marker8CallbackEPS1_
4225:__ZN24ProfilerCallbacksHandlerC2E10MemLabelId
4226:__Z34RegisterCreateCategoryCallbackImplPFvPK25UnityProfilerCategoryDescPvES2_
4227:__Z36UnregisterCreateCategoryCallbackImplPFvPK25UnityProfilerCategoryDescPvES2_
4228:__Z31RegisterCreateEventCallbackImplPFvPK23UnityProfilerMarkerDescPvES2_
4229:__Z33UnregisterCreateEventCallbackImplPFvPK23UnityProfilerMarkerDescPvES2_
4230:__Z25RegisterEventCallbackImplPK23UnityProfilerMarkerDescPFvS1_ttPK23UnityProfilerMarkerDataPvES5_
4231:__Z27UnregisterEventCallbackImplPK23UnityProfilerMarkerDescPFvS1_ttPK23UnityProfilerMarkerDataPvES5_
4232:__Z25RegisterFrameCallbackImplPFvPvES_
4233:__Z27UnregisterFrameCallbackImplPFvPvES_
4234:__Z32RegisterCreateThreadCallbackImplPFvPK23UnityProfilerThreadDescPvES2_
4235:__ZN9profiling15ProfilerManager26UnregisterNewFrameCallbackEPFvPvES1_
4236:__ZN9profiling15ProfilerManager24RegisterNewFrameCallbackEPFvPvES1_
4237:__ZN24ProfilerCallbacksHandler23UnregisterEventCallbackEPK23UnityProfilerMarkerDescPFvS2_ttPK23UnityProfilerMarkerDataPvES6_
4238:__ZN24ProfilerCallbacksHandler28RemoveCallbackFromAllMarkersEPFvPK23UnityProfilerMarkerDescttPK23UnityProfilerMarkerDataPvES6_R13dynamic_arrayINS_17EventCallbackDataELm0EE
4239:__ZN9profiling15ProfilerManager25RegisterNewMarkerCallbackEPFvPNS_6MarkerEPvES3_
4240:__ZN9profiling15ProfilerManager27RegisterNewCategoryCallbackEPFvtPvES1_
4241:__ZN24ProfilerCallbacksHandler13FrameCallbackEPv
4242:__Z13EmitEventImplPK23UnityProfilerMarkerDescttPK23UnityProfilerMarkerData
4243:__Z13IsEnabledImplv
4244:__Z16CreateMarkerImplPPK23UnityProfilerMarkerDescPKctti
4245:__Z25SetMarkerMetadataNameImplPK23UnityProfilerMarkerDesciPKchh
4246:__Z18RegisterThreadImplPyPKcS1_
4247:__Z20UnregisterThreadImply
4248:__ZN9profiling15ProfilerManager22SetMarkerMetadataParamEPNS_6MarkerEmRKN4core12basic_stringIcNS3_20StringStorageDefaultIcEEEENS1_12MetadataDesc4TypeENSA_4UnitE
4249:__ZN9profiling6Marker26AllocateMarkerMetadataDescER5MutexR22ForwardLinearAllocatorRKN4core12basic_stringIcNS5_20StringStorageDefaultIcEEEENS0_12MetadataDesc4TypeENSC_4UnitE
4250:__ZN22ForwardLinearAllocator8allocateEmm
4251:__Z22profiler_create_markerPKctN9profiling6Marker5FlagsE
4252:__ZN9profiling15ProfilerManager17GetOrCreateMarkerEtRKN4core12basic_stringIcNS1_20StringStorageDefaultIcEEEENS_6Marker5FlagsE
4253:__ZNK4core8hash_setINS_4pairIKNS_16basic_string_refIcEEPN9profiling6MarkerELb0EEENS_9hash_pairINS_4hashIS3_EES4_S7_EENS_10equal_pairINSt3__28equal_toIS3_EES4_S7_EEE6lookupIS3_SH_EEPNSI_4nodeERKT_RKT0_
4254:__ZN9profiling6Marker14AllocateMarkerER5MutexR22ForwardLinearAllocatorjtRKN4core16basic_string_refIcEENS0_5FlagsE
4255:__Z13profiler_emitPN9profiling6MarkerEtiPK18ProfilerMarkerData
4256:__ZL15GetRendererImplv
4257:__Z31RegisterDeviceEventCallbackImplPFv23UnityGfxDeviceEventTypeE
4258:__Z33UnregisterDeviceEventCallbackImplPFv23UnityGfxDeviceEventTypeE
4259:__ZL23ReserveEventIDRangeImpli
4260:__ZNSt3__26__treeINS_12__value_typeI18UnityInterfaceGUIDP15IUnityInterfaceEENS_19__map_value_compareIS2_S5_NS_4lessIS2_EELb1EEE13stl_allocatorIS5_L18MemLabelIdentifier10ELi16EEE7destroyEPNS_11__tree_nodeIS5_PvEE
4261:__ZL16GetInterfaceImpl18UnityInterfaceGUID
4262:__ZL21GetInterfaceSplitImplyy
4263:__ZL21RegisterInterfaceImpl18UnityInterfaceGUIDP15IUnityInterface
4264:__ZL26RegisterInterfaceSplitImplyyP15IUnityInterface
4265:__ZNSt3__26__treeINS_12__value_typeI18UnityInterfaceGUIDP15IUnityInterfaceEENS_19__map_value_compareIS2_S5_NS_4lessIS2_EELb1EEE13stl_allocatorIS5_L18MemLabelIdentifier10ELi16EEE25__emplace_unique_key_argsIS2_JNS_4pairIS2_S4_EEEEENSF_INS_15__tree_iteratorIS5_PNS_11__tree_nodeIS5_PvEElEEbEERKT_DpOT0_
4266:__ZN33InstancedMeshIntermediateRenderer16StaticInitializeEPv
4267:__ZN33InstancedMeshIntermediateRenderer13StaticDestroyEPv
4268:__ZN32IndirectMeshIntermediateRenderer16StaticInitializeEPv
4269:__ZN32IndirectMeshIntermediateRenderer13StaticDestroyEPv
4270:__ZN43InstancedProceduralMeshIntermediateRenderer16StaticInitializeEPv
4271:__ZN43InstancedProceduralMeshIntermediateRenderer13StaticDestroyEPv
4272:__ZN10MemoryPoolD2Ev
4273:__ZN10MemoryPoolC2E10MemLabelIdbPKciii
4274:__ZN13RuntimeStaticI17GfxVersionManagerLb0EE16StaticInitializeEPv
4275:__ZN13RuntimeStaticI17GfxVersionManagerLb0EE13StaticDestroyEPv
4276:__ZN13RuntimeStaticI21ScalableBufferManagerLb0EE13StaticDestroyEPv
4277:__ZN17GfxVersionManagerD2Ev
4278:__ZN17GfxVersionManager14GarbageCollectEy
4279:__Z23DestroyMutexLockedQueueP16MutexLockedQueue10MemLabelId
4280:__ZN14GfxVersionList4Impl14GarbageCollectEy
4281:__ZN14GfxVersionList4ImplD2Ev
4282:__ZN24StaticInitializeInternal13ConstructTypeI17GfxVersionManagerLb0EEEPvS2_10MemLabelId
4283:__Z22CreateMutexLockedQueue10MemLabelId
4284:__ZN13RuntimeStaticI16GeometryJobTasksLb1EE16StaticInitializeEPv
4285:__ZN13RuntimeStaticI16GeometryJobTasksLb1EE13StaticDestroyEPv
4286:__ZL25CleanupTextureIDGeneratorPv
4287:__ZN13HandleManager12ClearHandlesEv
4288:__ZN13HandleManagerC2Ev
4289:__ZN24StaticInitializeInternal13ConstructTypeI16GeometryJobTasksLb1EEEPvS2_10MemLabelId
4290:__ZN16GeometryJobTasksC2E10MemLabelId
4291:__Z19CleanupTextureIdMapPv
4292:__ZN21VersionedTextureIdMap7CleanupEv
4293:__ZN10InstancingL16RegisterCallbackEPv
4294:__ZN10InstancingL18UnregisterCallbackEPv
4295:__ZN10InstancingL21OnGraphicsCapsChangedEv
4296:__ZN13RuntimeStaticI18StackAllocatorPoolLb0EE16StaticInitializeEPv
4297:__ZN13RuntimeStaticI18StackAllocatorPoolLb0EE13StaticDestroyEPv
4298:__ZN18StackAllocatorPoolD2Ev
4299:__ZN19ManagedTempMemScopeD2Ev
4300:__ZN14StackAllocatorD2Ev
4301:__ZN14StackAllocatorD0Ev
4302:__ZN14StackAllocator10DeallocateEPv
4303:__ZNK14StackAllocator8ContainsEPKv
4304:__ZNK14StackAllocator10GetPtrSizeEPKv
4305:__ZN27TrackOverflowStackAllocatorD2Ev
4306:__ZN27TrackOverflowStackAllocatorD0Ev
4307:__ZN27TrackOverflowStackAllocator8AllocateEmi
4308:__ZN27TrackOverflowStackAllocator10DeallocateEPv
4309:__ZN27TrackOverflowStackAllocator13TryDeallocateEPv
4310:__ZNK27TrackOverflowStackAllocator8ContainsEPKv
4311:__ZN14StackAllocator23FreeAllStackAllocationsEv
4312:__ZN24StaticInitializeInternal13ConstructTypeI18StackAllocatorPoolLb0EEEPvS2_10MemLabelId
4313:__ZN13string_traitsIA33_cE8get_sizeERA33_Kc
4314:__Z12StringToGUIDN4core16basic_string_refIcEE
4315:__ZN26FormatArgMapTypeHelperBaseImLb1EE18FormatArgFormatterERN4core12basic_stringIcNS1_20StringStorageDefaultIcEEEENS1_16basic_string_refIcEEPKPKv
4316:__ZN4core13FormatValueToERNS_12basic_stringIcNS_20StringStorageDefaultIcEEEERKmNS_16basic_string_refIcEE
4317:__Z14ParsePrecisionN4core16basic_string_refIcEEi
4318:__ZL18FormatIntAsDecimalImEvRN4core12basic_stringIcNS0_20StringStorageDefaultIcEEEEiT_
4319:__ZL16FormatIntAsFixedImEvRN4core12basic_stringIcNS0_20StringStorageDefaultIcEEEEiT_
4320:__ZL21FormatIntAsScientificImEvRN4core12basic_stringIcNS0_20StringStorageDefaultIcEEEEiibT_
4321:__ZL18FormatIntAsDecimalIiEvRN4core12basic_stringIcNS0_20StringStorageDefaultIcEEEEiT_
4322:__Z11StringToIntRKN4core16basic_string_refIcEE
4323:__ZN26FormatArgMapTypeHelperBaseIyLb0EE18FormatArgFormatterERN4core12basic_stringIcNS1_20StringStorageDefaultIcEEEENS1_16basic_string_refIcEEPKPKv
4324:__ZN4core13FormatValueToERNS_12basic_stringIcNS_20StringStorageDefaultIcEEEERKyNS_16basic_string_refIcEE
4325:__ZL18FormatIntAsDecimalIyEvRN4core12basic_stringIcNS0_20StringStorageDefaultIcEEEEiT_
4326:__ZL16FormatIntAsFixedIyEvRN4core12basic_stringIcNS0_20StringStorageDefaultIcEEEEiT_
4327:__ZL21FormatIntAsScientificIyEvRN4core12basic_stringIcNS0_20StringStorageDefaultIcEEEEiibT_
4328:__ZN26FormatArgMapTypeHelperBaseIN4core12basic_stringIcNS0_20StringStorageDefaultIcEEEELb0EE18FormatArgFormatterERS4_NS0_16basic_string_refIcEEPKPKv
4329:__ZN13RuntimeStaticIN4core8hash_mapINS0_12basic_stringIcNS0_20StringStorageDefaultIcEEEEPvNS0_4hashIS5_EENSt3__28equal_toIS5_EEEELb0EE16StaticInitializeES6_
4330:__ZN13RuntimeStaticIN4core8hash_mapINS0_12basic_stringIcNS0_20StringStorageDefaultIcEEEEPvNS0_4hashIS5_EENSt3__28equal_toIS5_EEEELb0EE13StaticDestroyES6_
4331:__ZN13RuntimeStaticI13ModuleManagerLb0EE13StaticDestroyEPv
4332:__ZN24StaticInitializeInternal13ConstructTypeIN4core8hash_mapINS1_12basic_stringIcNS1_20StringStorageDefaultIcEEEEPvNS1_4hashIS6_EENSt3__28equal_toIS6_EEEELb0EEES7_S7_10MemLabelId
4333:__ZN12_GLOBAL__N_138ArchiveRedirectFileSystemStaticDestroyEPv
4334:__ZN10MemoryPool16StaticInitializeEPv
4335:__ZN10MemoryPool13StaticDestroyEPv
4336:__ZN13RuntimeStaticI14CallbackArray1IbELb0EE16StaticInitializeEPv
4337:__ZN23DefaultMeshVertexFormatC2E17ShaderChannelMask
4338:__ZN24StaticInitializeInternal13ConstructTypeI14CallbackArray1IbELb0EEEPvS3_10MemLabelId
4339:__ZN13RuntimeStaticI13dynamic_arrayIN4core12basic_stringIcNS1_20StringStorageDefaultIcEEEELm0EELb0EE16StaticInitializeEPv
4340:__ZN13RuntimeStaticI13dynamic_arrayIN4core12basic_stringIcNS1_20StringStorageDefaultIcEEEELm0EELb0EE13StaticDestroyEPv
4341:__Z15InitializeCRC32Pv
4342:__ZN5crc3215InitializeTableEv
4343:__ZN26FormatArgMapTypeHelperBaseIN4core16basic_string_refIcEELb0EE18FormatArgFormatterERNS0_12basic_stringIcNS0_20StringStorageDefaultIcEEEES2_PKPKv
4344:__ZN13RuntimeStaticINSt3__23setI19RepeatingLogMessageNS0_4lessIS2_EE13stl_allocatorIS2_L18MemLabelIdentifier78ELi16EEEELb0EE16StaticInitializeEPv
4345:__ZN13RuntimeStaticINSt3__23setI19RepeatingLogMessageNS0_4lessIS2_EE13stl_allocatorIS2_L18MemLabelIdentifier78ELi16EEEELb0EE13StaticDestroyEPv
4346:__ZNSt3__26__treeI19RepeatingLogMessageNS_4lessIS1_EE13stl_allocatorIS1_L18MemLabelIdentifier78ELi16EEE7destroyEPNS_11__tree_nodeIS1_PvEE
4347:__ZN13RuntimeStaticINSt3__28multimapIi25TransformAccessArrayEntryNS0_4lessIiEENS0_9allocatorINS0_4pairIKiS2_EEEEEELb0EE16StaticInitializeEPv
4348:__ZN13RuntimeStaticINSt3__28multimapIi25TransformAccessArrayEntryNS0_4lessIiEENS0_9allocatorINS0_4pairIKiS2_EEEEEELb0EE13StaticDestroyEPv
4349:__ZL36TransformAccessArray_InitializeClassPv
4350:__ZL33TransformAccessArray_CleanupClassPv
4351:__ZN32TransformHierarchyChangeDispatch15InitializeClassEPv
4352:__ZN32TransformHierarchyChangeDispatch12CleanupClassEPv
4353:__ZN32TransformHierarchyChangeDispatchD2Ev
4354:__ZN32TransformHierarchyChangeDispatchC2Ev
4355:__ZN32TransformHierarchyChangeDispatch16UnregisterSystemER36TransformHierarchyChangeSystemHandle
4356:__ZL29TransformAccessChangeCallbackPK15TransformAccessj
4357:__ZN32TransformHierarchyChangeDispatch14RegisterSystemEPKcNS_12InterestTypeEPFvPK15TransformAccessjE
4358:__ZL30TransformAccessDestroyCallbackPK15TransformAccessj
4359:__ZL28TransformAccessClearCallbackPK15TransformAccessj
4360:__ZL20PatchTransformAccessiRK15TransformAccessbb
4361:__ZN4core8hash_setIiNS_4hashIiEENSt3__28equal_toIiEEE6insertIRiEENS_4pairINS6_13node_iteratorIiEEbLb0EEEOT_
4362:__ZNSt3__26__treeINS_12__value_typeIi25TransformAccessArrayEntryEENS_19__map_value_compareIiS3_NS_4lessIiEELb1EEENS_9allocatorIS3_EEE7destroyEPNS_11__tree_nodeIS3_PvEE
4363:__ZN23TransformChangeDispatch15InitializeClassEPv
4364:__ZN23TransformChangeDispatch12CleanupClassEPv
4365:__ZN23TransformChangeDispatchD2Ev
4366:__ZN23TransformChangeDispatchC2Ev
4367:__ZN9ShaderLab19CommonPropertyNames16StaticInitializeEPv
4368:__ZN9ShaderLab19CommonPropertyNames13StaticCleanupEPv
4369:__ZN13RuntimeStaticIN4core12basic_stringIcNS0_20StringStorageDefaultIcEEEELb0EE16StaticInitializeEPv
4370:__ZN13RuntimeStaticIN4core12basic_stringIcNS0_20StringStorageDefaultIcEEEELb0EE13StaticDestroyEPv
4371:__ZN9ShaderLabL25StaticInitializeShaderLabEPv
4372:__ZN9ShaderLabL22StaticDestroyShaderLabEPv
4373:__ZNSt3__212__deque_baseIPN9ShaderLab21SerializedShaderStateE13stl_allocatorIS3_L18MemLabelIdentifier25ELi16EEE5clearEv
4374:__ZN8keywords7CleanupEv
4375:__ZN9shadertag7CleanupEv
4376:__ZNSt3__26__treeINS_12__value_typeIPKc11ShaderTagIDEENS_19__map_value_compareIS3_S5_27compare_tstring_insensitiveIS3_ELb1EEE13stl_allocatorIS5_L18MemLabelIdentifier25ELi16EEE7destroyEPNS_11__tree_nodeIS5_PvEE
4377:__ZN16ShaderKeywordMapD2Ev
4378:__ZN16ShaderKeywordMap6CreateEN4core16basic_string_refIcEE17ShaderKeywordType
4379:__ZNK16ShaderKeywordMap4FindEN4core16basic_string_refIcEE
4380:__ZNK16ShaderKeywordMap7GetNameEi
4381:__ZNK16ShaderKeywordMap14GetKeywordTypeEi
4382:__ZN16ShaderKeywordMap11SetCapacityEj
4383:__ZNK4core8hash_setINS_4pairIKNS_12basic_stringIcNS_20StringStorageDefaultIcEEEEN16ShaderKeywordMap18ShaderKeywordEntryELb1EEENS_9hash_pairINS_4hashIS5_EES6_S8_EENS_10equal_pairINSt3__28equal_toIS5_EES6_S8_EEE6lookupIS5_SI_EEPNSJ_4nodeERKT_RKT0_
4384:__ZN4core8hash_mapINS_12basic_stringIcNS_20StringStorageDefaultIcEEEEN16ShaderKeywordMap18ShaderKeywordEntryENS_4hashIS4_EENSt3__28equal_toIS4_EEE6insertERKS4_RKS6_
4385:__ZN4core8hash_setINS_4pairIKNS_12basic_stringIcNS_20StringStorageDefaultIcEEEEN16ShaderKeywordMap18ShaderKeywordEntryELb1EEENS_9hash_pairINS_4hashIS5_EES6_S8_EENS_10equal_pairINSt3__28equal_toIS5_EES6_S8_EEE4growEi
4386:__ZN8keywords10InitializeEv
4387:__ZN9shadertag10InitializeEv
4388:__ZN9shadertag14GetShaderTagIDEPKci
4389:__Z7StrICmpPKcS0_
4390:__ZNSt3__26__treeINS_12__value_typeIPKc11ShaderTagIDEENS_19__map_value_compareIS3_S5_27compare_tstring_insensitiveIS3_ELb1EEE13stl_allocatorIS5_L18MemLabelIdentifier25ELi16EEE21__emplace_unique_implIJNS_4pairIPcS4_EEEEENSF_INS_15__tree_iteratorIS5_PNS_11__tree_nodeIS5_PvEElEEbEEDpOT_
4391:__ZN16ShaderKeywordMapC2Ejj
4392:__ZN21ShaderLocalKeywordMap6CreateEN4core16basic_string_refIcEE17ShaderKeywordType
4393:__ZN4core6detail14FormatInternalENS_16basic_string_refIcEERK10FormatArgs
4394:__Z27LogRepeatingStringWithFlagsRKN4core12basic_stringIcNS_20StringStorageDefaultIcEEEE15LogMessageFlagsi
4395:__ZNSt3__26__treeI19RepeatingLogMessageNS_4lessIS1_EE13stl_allocatorIS1_L18MemLabelIdentifier78ELi16EEE4findIS1_EENS_15__tree_iteratorIS1_PNS_11__tree_nodeIS1_PvEElEERKT_
4396:__ZNSt3__26__treeI19RepeatingLogMessageNS_4lessIS1_EE13stl_allocatorIS1_L18MemLabelIdentifier78ELi16EEE25__emplace_unique_key_argsIS1_JRKS1_EEENS_4pairINS_15__tree_iteratorIS1_PNS_11__tree_nodeIS1_PvEElEEbEERKT_DpOT0_
4397:__ZNSt3__26__treeI19RepeatingLogMessageNS_4lessIS1_EE13stl_allocatorIS1_L18MemLabelIdentifier78ELi16EEE12__find_equalIS1_EERPNS_16__tree_node_baseIPvEERPNS_15__tree_end_nodeISC_EERKT_
4398:__ZN4core6detail16FormatToInternalERNS_12basic_stringIcNS_20StringStorageDefaultIcEEEENS_16basic_string_refIcEERK10FormatArgs
4399:__ZN22ShaderGlobalKeywordMap6CreateEN4core16basic_string_refIcEE17ShaderKeywordType
4400:__ZNK22ShaderGlobalKeywordMap4FindEN4core16basic_string_refIcEE
4401:__ZNK22ShaderGlobalKeywordMap7GetNameEi
4402:__ZNK22ShaderGlobalKeywordMap14GetKeywordTypeEi
4403:__ZN22ShaderGlobalKeywordMap11SetCapacityEj
4404:__ZN24StaticInitializeInternal13ConstructTypeIN4core12basic_stringIcNS1_20StringStorageDefaultIcEEEELb0EEEPvS6_10MemLabelId
4405:__Z30CleanupBuiltinShaderParamNamesv
4406:__Z33InitializeBuiltinShaderParamNamesv
4407:__ZN13dynamic_arrayIN12_GLOBAL__N_114ParamNameIndexELm0EE21resize_buffer_nocheckEm12ResizePolicy
4408:__ZNSt3__26__sortIRNS_6__lessIN12_GLOBAL__N_114ParamNameIndexES3_EEPS3_EEvT0_S7_T_
4409:__ZNSt3__27__sort3IRNS_6__lessIN12_GLOBAL__N_114ParamNameIndexES3_EEPS3_EEjT0_S7_S7_T_
4410:__ZNSt3__27__sort4IRNS_6__lessIN12_GLOBAL__N_114ParamNameIndexES3_EEPS3_EEjT0_S7_S7_S7_T_
4411:__ZNSt3__27__sort5IRNS_6__lessIN12_GLOBAL__N_114ParamNameIndexES3_EEPS3_EEjT0_S7_S7_S7_S7_T_
4412:__ZNSt3__227__insertion_sort_incompleteIRNS_6__lessIN12_GLOBAL__N_114ParamNameIndexES3_EEPS3_EEbT0_S7_T_
4413:__ZL22InitializeGlobalCBKeysPv
4414:__ZN13RuntimeStaticI12GraphicsCapsLb0EE16StaticInitializeEPv
4415:__ZN13RuntimeStaticI12GraphicsCapsLb0EE13StaticDestroyEPv
4416:__ZN13RuntimeStaticI12GraphicsCapsLb0EE7DestroyEv
4417:__ZN24StaticInitializeInternal13ConstructTypeI12GraphicsCapsLb0EEEPvS2_10MemLabelId
4418:__ZN12GraphicsCapsC2Ev
4419:__Z15StringToHash128RKN4core12basic_stringIcNS_20StringStorageDefaultIcEEEE
4420:__ZL35StaticInitializeRuntimeSceneManagerPv
4421:__ZL32StaticDestroyRuntimeSceneManagerPv
4422:__ZN19RuntimeSceneManagerC2E10MemLabelId
4423:__ZN10UnityScene14SetPathAndGUIDERKN4core16basic_string_refIcEERK9UnityGUID
4424:__ZL32MarkLevelGameManagerDependenciesR27GarbageCollectorThreadState
4425:__ZL16SceneWasUnloadedi
4426:__ZL18ActiveSceneChangedP10UnitySceneS0_
4427:__Z20MarkInstanceIDAsRootiR27GarbageCollectorThreadState
4428:__Z24GetLastPathNameComponentRKN4core16basic_string_refIcEE
4429:__Z23DeletePathNameExtensionRKN4core16basic_string_refIcEE
4430:__ZN19RuntimeSceneManagerD2Ev
4431:__ZN19RuntimeSceneManagerD0Ev
4432:__ZN19RuntimeSceneManager8GetSceneEi
4433:__ZN19RuntimeSceneManager11MergeScenesER10UnitySceneS1_
4434:__ZN19RuntimeSceneManager11UnloadSceneEP10UnityScene18UnloadSceneOptions
4435:__ZN10UnityScene24OnGameObjectChangedSceneER10GameObjectPS_S2_
4436:__ZN10GameObject10DeactivateE19DeactivateOperation
4437:__ZN10GameObject8ActivateEv
4438:__ZN10GameObject32ActivateAwakeRecursivelyInternalE19DeactivateOperationR18AwakeFromLoadQueue
4439:__ZN18AwakeFromLoadQueue13AwakeFromLoadE17AwakeFromLoadModeb
4440:__ZL53SortBehaviourItemByExecutionOrderAndReverseInstanceIDRKN18AwakeFromLoadQueue4ItemES2_
4441:__ZNSt3__26__sortIRPFbRKN18AwakeFromLoadQueue4ItemES4_EPS2_EEvT0_S9_T_
4442:__ZNSt3__27__sort4IRPFbRKN18AwakeFromLoadQueue4ItemES4_EPS2_EEjT0_S9_S9_S9_T_
4443:__ZNSt3__218__insertion_sort_3IRPFbRKN18AwakeFromLoadQueue4ItemES4_EPS2_EEvT0_S9_T_
4444:__ZNSt3__227__insertion_sort_incompleteIRPFbRKN18AwakeFromLoadQueue4ItemES4_EPS2_EEbT0_S9_T_
4445:__ZNK21ExecutionOrderManager23GetScriptExecutionOrderEiPKN5Unity4TypeE
4446:__ZN18AwakeFromLoadQueue3AddER6ObjectPK8TypeTreeb17AwakeFromLoadMode
4447:__ZN10GameObject18UpdateActiveGONodeEv
4448:__ZN18AwakeFromLoadQueueC2E10MemLabelId
4449:__ZN19RuntimeSceneManager14CanUnloadSceneEP10UnityScene
4450:__ZN19RuntimeSceneManager19UnloadSceneInternalEP10UnityScene18UnloadSceneOptions
4451:__ZN10UnitySceneD2Ev
4452:__ZN19RuntimeSceneManager14SetActiveSceneER10UnityScene
4453:__Z22DestroyObjectHighLevelP6Objectb
4454:__Z19DestroySingleObjectP6Object
4455:__Z31ReadObjectFromPersistentManageri
4456:__ZN17PersistentManager10ReadObjectEi17AwakeFromLoadMode
4457:__ZN17PersistentManager37RegisterPartiallyLoadedObjectInternalEi
4458:__ZN18AwakeFromLoadQueue34PersistentManagerAwakeSingleObjectER6Object17AwakeFromLoadMode
4459:__ZN17PersistentManager18ReadObjectThreadedEiNS_9LockFlagsE
4460:__ZN17PersistentManager38LoadAndIntegrateAllPreallocatedObjectsENS_9LockFlagsE
4461:__ZN17PersistentManager32LoadRemainingPreallocatedObjectsENS_9LockFlagsE
4462:__ZN17PersistentManager25ExtractAwakeFromLoadQueueER18AwakeFromLoadQueue
4463:__ZN18AwakeFromLoadQueue25RegisterObjectInstanceIDsEv
4464:__ZN18AwakeFromLoadQueue30PersistentManagerAwakeFromLoadEv
4465:__ZL20SortItemByInstanceIDRKN18AwakeFromLoadQueue4ItemES2_
4466:__ZN18AwakeFromLoadQueue28InvokePersistentManagerAwakeEPNS_4ItemEj17AwakeFromLoadModeb
4467:__ZN6Object24RegisterInstanceIDNoLockEPS_
4468:__ZN4core8hash_setINS_4pairIKiP6ObjectLb0EEENS_9hash_pairINS_4hashIiEES2_S4_EENS_10equal_pairINSt3__28equal_toIiEES2_S4_EEE6insertINS1_IiS4_Lb0EEEEENS1_INSF_13node_iteratorIS5_EEbLb0EEEOT_
4469:__ZN18AwakeFromLoadQueue7ReserveEj
4470:__ZN8Remapper38InstanceIDToSerializedObjectIdentifierEiR26SerializedObjectIdentifier
4471:__ZNSt3__26__sortIRNS_6__lessI14ObjectLoadDataS2_EEPS2_EEvT0_S6_T_
4472:__ZN17PersistentManager29ReadAndActivateObjectThreadedEiRK26SerializedObjectIdentifierP14SerializedFilebbNS_9LockFlagsE
4473:__ZN17PersistentManager26GetStreamNameSpaceInternalEi
4474:__ZNK14SerializedFile11IsAvailableEx
4475:__ZN17PersistentManager32CreateThreadActivationQueueEntryER14SerializedFile26SerializedObjectIdentifieribNS_9LockFlagsE
4476:__ZN14SerializedFile10ReadObjectEx18ObjectCreationModebPPK8TypeTreePbR6Object
4477:__ZN17PersistentManager23PostReadActivationQueueEiPK8TypeTreebNS_9LockFlagsE
4478:__ZN14SerializedFile14SerializedType21CompareAgainstNewTypeER6ObjectR13dynamic_arrayIS0_Lm0EE24TransferInstructionFlags
4479:__ZN14SerializedFile26BuildRefTypePoolIfRelevantEv
4480:__ZN13dynamic_arrayINSt3__24pairIy8TypeTreeEELm0EED2Ev
4481:__ZN14SafeBinaryRead4InitERK16TypeTreeIteratorN3VFS8FileSizeEx24TransferInstructionFlags10MemLabelId
4482:__ZN12CachedReader8InitReadER15CacheReaderBasemm
4483:__ZN12CachedReader3EndEv
4484:__ZL23OutOfBoundsReadingErrorPKN5Unity4TypeEmmR6Object
4485:__ZN8TypeTreeD2Ev
4486:__ZNK10MonoScript22GetScriptFullClassNameEv
4487:__ZN12CachedReader16OutOfBoundsErrorEmm
4488:__ZN8TypeTreeC2ERKS_
4489:__ZN14SafeBinaryReadC2Ev
4490:__ZN15TypeTreeQueries25GenerateTypeTreeSignatureERKN4core12basic_stringIcNS0_20StringStorageDefaultIcEEEES6_S6_
4491:__ZN13TypeTreeCache11GetTypeTreeEPK6Object24TransferInstructionFlagsR8TypeTree
4492:__ZN15TypeTreeQueries26IsStreamedBinaryCompatibleERK16TypeTreeIteratorS2_
4493:__ZN13TypeTreeCache11GetTypeTreeERKN4core12basic_stringIcNS0_20StringStorageDefaultIcEEEES6_S4_24TransferInstructionFlagsR8TypeTree
4494:__ZN11APIUpdating7Queries19ResolveTypeFromNameEPKcS2_S2_
4495:__ZN13TypeTreeCache11GetTypeTreeE17ScriptingClassPtr24TransferInstructionFlagsR8TypeTree
4496:__ZN8TypeTreeaSERKS_
4497:__ZN15TypeTreeQueries25GenerateTypeTreeSignatureERK17ScriptingClassPtr
4498:__ZN14GfxDoubleCacheIyN13TypeTreeCache18CachedTypeTreeDataENS0_13HashGeneratorENSt3__28equal_toIyEEN31GfxDoubleCacheConcurrencyPolicy11LocklessGetE42GfxDoubleCacheDefaultEmptyDeletedGeneratorIyEL18MemLabelIdentifier82EE4FindERKyRKS1_
4499:__Z20scripting_object_new17ScriptingClassPtr
4500:__ZN24GenerateTypeTreeTransfer13BeginTransferEPKcS1_Pc17TransferMetaFlags
4501:__Z23TransferScriptingObjectI24GenerateTypeTreeTransferEvRT_18ScriptingObjectPtr17ScriptingClassPtrPK15MonoScriptCache
4502:__ZN24GenerateTypeTreeTransfer11EndTransferEv
4503:__ZN14GfxDoubleCacheIyN13TypeTreeCache18CachedTypeTreeDataENS0_13HashGeneratorENSt3__28equal_toIyEEN31GfxDoubleCacheConcurrencyPolicy11LocklessGetE42GfxDoubleCacheDefaultEmptyDeletedGeneratorIyEL18MemLabelIdentifier82EE3SetERKyRKS1_
4504:__ZN15dense_hashtableINSt3__24pairIKyN13TypeTreeCache18CachedTypeTreeDataEEEyNS3_13HashGeneratorEN14GfxDoubleCacheIyS4_S6_NS0_8equal_toIyEEN31GfxDoubleCacheConcurrencyPolicy11LocklessGetE42GfxDoubleCacheDefaultEmptyDeletedGeneratorIyEL18MemLabelIdentifier82EE9SelectKeyES9_13stl_allocatorIS5_LSE_82ELi16EEE23find_or_insert_noresizeERKS5_
4505:__ZN19EndOfFrameCallbacks7EnqueueEP18EndOfFrameCallbackb
4506:__ZN15dense_hashtableINSt3__24pairIKyN13TypeTreeCache18CachedTypeTreeDataEEEyNS3_13HashGeneratorEN14GfxDoubleCacheIyS4_S6_NS0_8equal_toIyEEN31GfxDoubleCacheConcurrencyPolicy11LocklessGetE42GfxDoubleCacheDefaultEmptyDeletedGeneratorIyEL18MemLabelIdentifier82EE9SelectKeyES9_13stl_allocatorIS5_LSE_82ELi16EEE12resize_deltaEmm
4507:__ZN15dense_hashtableINSt3__24pairIKyN13TypeTreeCache18CachedTypeTreeDataEEEyNS3_13HashGeneratorEN14GfxDoubleCacheIyS4_S6_NS0_8equal_toIyEEN31GfxDoubleCacheConcurrencyPolicy11LocklessGetE42GfxDoubleCacheDefaultEmptyDeletedGeneratorIyEL18MemLabelIdentifier82EE9SelectKeyES9_13stl_allocatorIS5_LSE_82ELi16EEE15insert_noresizeERKS5_
4508:__ZN15dense_hashtableINSt3__24pairIKyN13TypeTreeCache18CachedTypeTreeDataEEEyNS3_13HashGeneratorEN14GfxDoubleCacheIyS4_S6_NS0_8equal_toIyEEN31GfxDoubleCacheConcurrencyPolicy11LocklessGetE42GfxDoubleCacheDefaultEmptyDeletedGeneratorIyEL18MemLabelIdentifier82EE9SelectKeyES9_13stl_allocatorIS5_LSE_82ELi16EEE12maybe_shrinkEv
4509:__ZN14DelayedDeletorI15dense_hashtableINSt3__24pairIKyN13TypeTreeCache18CachedTypeTreeDataEEEyNS4_13HashGeneratorEN14GfxDoubleCacheIyS5_S7_NS1_8equal_toIyEEN31GfxDoubleCacheConcurrencyPolicy11LocklessGetE42GfxDoubleCacheDefaultEmptyDeletedGeneratorIyEL18MemLabelIdentifier82EE9SelectKeyESA_13stl_allocatorIS6_LSF_82ELi16EEEEclEv
4510:__ZNK16TypeTreeIterator6FatherEv
4511:__Z23TransferScriptingObjectI24GenerateTypeTreeTransferLb0EEvRT_18ScriptingObjectPtr17ScriptingClassPtrRPN18SerializationCache4DataEP25ManagedReferencesRegistry
4512:__ZN18SerializationCache9FetchDataE17ScriptingClassPtr
4513:__ZN18SerializationCache13FetchCommandsEPNS_4DataERK24TransferRequestSignature
4514:__Z33BuildSerializationCommandQueueForRK34BuildSerializationCommandQueueArgsR32SerializationCommandQueueBuilderRP20AllowNameConversionsbPK18TransferField_Info
4515:__ZN15SerializeTraitsI25ManagedReferencesRegistryE8TransferI24GenerateTypeTreeTransferEEvRS0_RT_
4516:__ZN25ManagedReferencesRegistryD2Ev
4517:__ZNSt3__26__treeINS_12__value_typeIPviEENS_19__map_value_compareIS2_S3_NS_4lessIS2_EELb1EEENS_9allocatorIS3_EEE7destroyEPNS_11__tree_nodeIS3_S2_EE
4518:__ZN15SerializeTraitsI26RegisteredReferencedObjectILN24ReferencedObjectInstance12TransferHintE1EEE8TransferI24GenerateTypeTreeTransferEEvRS3_RT_
4519:__ZN15SerializeTraitsI21ReferencedManagedTypeE8TransferI24GenerateTypeTreeTransferEEvRS0_RT_
4520:__ZN15SerializeTraitsI20ReferencedObjectDataILN24ReferencedObjectInstance12TransferHintE1EEE8TransferI24GenerateTypeTreeTransferEEvRS3_RT_
4521:__ZN23ScriptingClassConverter8ToNativeE17ScriptingClassPtr
4522:__ZN24GenerateTypeTreeTransfer18BeginArrayTransferEPKcS1_Ri17TransferMetaFlags
4523:__ZN24GenerateTypeTreeTransfer16EndArrayTransferEv
4524:__ZN24GenerateTypeTreeTransfer5AlignEv
4525:__ZNK23ScriptingClassConverter9ToManagedEv
4526:__ZNK16TypeTreeIterator8ChildrenEv
4527:__ZNK16TypeTreeIterator4LastEv
4528:__ZN23ScriptingClassConverter9ToFullFQNE17ScriptingClassPtrRN4core12basic_stringIcNS1_20StringStorageDefaultIcEEEES6_S6_
4529:__ZL42EmitInvokeInterfaceMethodCommandIfRequired18ScriptingMethodPtr17ScriptingClassPtrS0_R32SerializationCommandQueueBuilderRK31TransferFunctionScriptingTraitsbb24SerializationCommandType
4530:__ZN9Scripting36IsSystemCollectionsGenericDictionaryE17ScriptingClassPtr
4531:__Z26scripting_class_get_fields17ScriptingClassPtrRNSt3__26vectorI17ScriptingFieldPtr13stl_allocatorIS2_L18MemLabelIdentifier1ELi16EEEE
4532:__Z25scripting_class_from_type16ScriptingTypePtr
4533:__Z19ShouldTransferFieldR32SerializationCommandQueueBuilder17ScriptingClassPtriR18TransferField_InfoRK20CoreScriptingClasses
4534:__Z33EmitSerializationCommandsForFieldRK34BuildSerializationCommandQueueArgsRK18TransferField_InfoR32SerializationCommandQueueBuilderRP20AllowNameConversions
4535:__ZN9Scripting30IsSystemCollectionsGenericListE17ScriptingClassPtr
4536:__ZL28SerializationCommandGroupForRK31TransferFunctionScriptingTraits17ScriptingClassPtr17ScriptingFieldPtrRK20CoreScriptingClasses
4537:__Z29scripting_field_has_attribute17ScriptingFieldPtr17ScriptingClassPtr
4538:__ZL29CanTransferTypeAsNestedObject17ScriptingClassPtr38ETransferTypeAsNestedObjectConstraints
4539:__ZN13dynamic_arrayI20SerializationCommandLm0EE4growEv
4540:__Z35scripting_class_get_field_from_name17ScriptingClassPtrPKc
4541:__Z6StrCmpPKcS0_
4542:__Z28scripting_class_is_interface17ScriptingClassPtr
4543:__ZN11MonoManager25GetAssemblyIndexFromImageE17ScriptingImagePtr
4544:__ZN9Scripting35ErrorMessageForUnsupportedEnumFieldE17ScriptingFieldPtr
4545:__ZN21LinearCollectionFieldC2ER17GeneralMonoObject17ScriptingFieldPtr
4546:__ZN9Scripting27BackingArrayFieldForListOfTE17ScriptingClassPtr
4547:__ZN9Scripting29RuntimeObjectInitLogExceptionE18ScriptingObjectPtr
4548:__Z41scripting_type_get_class_or_element_class16ScriptingTypePtr
4549:__ZN9Scripting12LogExceptionE21ScriptingExceptionPtriPKcb
4550:__Z25IsFieldSerializedInEditorRK17ScriptingFieldPtrRK16ScriptingTypePtrRK17ScriptingClassPtriiPKcRK20CoreScriptingClassesRb
4551:__ZN17MonoScriptManager17FindRuntimeScriptE17ScriptingClassPtr
4552:__Z35scripting_object_get_virtual_method18ScriptingObjectPtr18ScriptingMethodPtr
4553:__ZNK15dense_hashtableINSt3__24pairIKPvN18SerializationCache10CacheEntryEEES2_NS4_21CommandsHashMapHasherEN14GfxDoubleCacheIS2_S5_S7_NS0_8equal_toIS2_EEN31GfxDoubleCacheConcurrencyPolicy11LocklessGetE42GfxDoubleCacheDefaultEmptyDeletedGeneratorIS2_EL18MemLabelIdentifier112EE9SelectKeyESA_13stl_allocatorIS6_LSF_112ELi16EEE13find_positionERS3_
4554:__ZN18SerializationCache26BuildSerializationCacheForE17ScriptingClassPtr
4555:__ZN14GfxDoubleCacheIPvN18SerializationCache10CacheEntryENS1_21CommandsHashMapHasherENSt3__28equal_toIS0_EEN31GfxDoubleCacheConcurrencyPolicy11LocklessGetE42GfxDoubleCacheDefaultEmptyDeletedGeneratorIS0_EL18MemLabelIdentifier112EE6InsertERKS0_RKS2_
4556:__ZN15dense_hashtableINSt3__24pairIKPvN18SerializationCache10CacheEntryEEES2_NS4_21CommandsHashMapHasherEN14GfxDoubleCacheIS2_S5_S7_NS0_8equal_toIS2_EEN31GfxDoubleCacheConcurrencyPolicy11LocklessGetE42GfxDoubleCacheDefaultEmptyDeletedGeneratorIS2_EL18MemLabelIdentifier112EE9SelectKeyESA_13stl_allocatorIS6_LSF_112ELi16EEE23find_or_insert_noresizeERKS6_
4557:__ZN15dense_hashtableINSt3__24pairIKPvN18SerializationCache10CacheEntryEEES2_NS4_21CommandsHashMapHasherEN14GfxDoubleCacheIS2_S5_S7_NS0_8equal_toIS2_EEN31GfxDoubleCacheConcurrencyPolicy11LocklessGetE42GfxDoubleCacheDefaultEmptyDeletedGeneratorIS2_EL18MemLabelIdentifier112EE9SelectKeyESA_13stl_allocatorIS6_LSF_112ELi16EEE12resize_deltaEmm
4558:__ZN15dense_hashtableINSt3__24pairIKPvN18SerializationCache10CacheEntryEEES2_NS4_21CommandsHashMapHasherEN14GfxDoubleCacheIS2_S5_S7_NS0_8equal_toIS2_EEN31GfxDoubleCacheConcurrencyPolicy11LocklessGetE42GfxDoubleCacheDefaultEmptyDeletedGeneratorIS2_EL18MemLabelIdentifier112EE9SelectKeyESA_13stl_allocatorIS6_LSF_112ELi16EEE12maybe_shrinkEv
4559:__ZN14DelayedDeletorI15dense_hashtableINSt3__24pairIKPvN18SerializationCache10CacheEntryEEES3_NS5_21CommandsHashMapHasherEN14GfxDoubleCacheIS3_S6_S8_NS1_8equal_toIS3_EEN31GfxDoubleCacheConcurrencyPolicy11LocklessGetE42GfxDoubleCacheDefaultEmptyDeletedGeneratorIS3_EL18MemLabelIdentifier112EE9SelectKeyESB_13stl_allocatorIS7_LSG_112ELi16EEEEclEv
4560:__ZN18SerializationCache39WriteQueueForTransferSignatureIntoCacheERK31TransferFunctionScriptingTraitsRK24TransferRequestSignature17ScriptingClassPtrRNS_4DataERb
4561:__ZN13dynamic_arrayI12TypeTreeNodeLm0EE4growEv
4562:__ZN8TypeTree16AssignByteOffsetERK16TypeTreeIteratorj
4563:__ZN21TypeTreeShareableData12CreateStringERjPKc
4564:__ZNK17CommonStringTable16FindCommonStringEPKcm
4565:__ZN24GenerateTypeTreeTransferC2ER8TypeTree24TransferInstructionFlagsPvi
4566:__ZN8TypeTreeC2EP21TypeTreeShareableData10MemLabelId
4567:__ZNK15dense_hashtableINSt3__24pairIKmyEEm14GfxGenericHashImEN14GfxDoubleCacheImyS5_NS0_8equal_toImEEN31GfxDoubleCacheConcurrencyPolicy11LocklessGetE42GfxDoubleCacheDefaultEmptyDeletedGeneratorImEL18MemLabelIdentifier82EE9SelectKeyES8_13stl_allocatorIS3_LSD_82ELi16EEE13find_positionERS2_
4568:__ZN14GfxDoubleCacheImy14GfxGenericHashImENSt3__28equal_toImEEN31GfxDoubleCacheConcurrencyPolicy11LocklessGetE42GfxDoubleCacheDefaultEmptyDeletedGeneratorImEL18MemLabelIdentifier82EE3SetERKmRKy
4569:__ZN15dense_hashtableINSt3__24pairIKmyEEm14GfxGenericHashImEN14GfxDoubleCacheImyS5_NS0_8equal_toImEEN31GfxDoubleCacheConcurrencyPolicy11LocklessGetE42GfxDoubleCacheDefaultEmptyDeletedGeneratorImEL18MemLabelIdentifier82EE9SelectKeyES8_13stl_allocatorIS3_LSD_82ELi16EEE23find_or_insert_noresizeERKS3_
4570:__ZN15dense_hashtableINSt3__24pairIKmyEEm14GfxGenericHashImEN14GfxDoubleCacheImyS5_NS0_8equal_toImEEN31GfxDoubleCacheConcurrencyPolicy11LocklessGetE42GfxDoubleCacheDefaultEmptyDeletedGeneratorImEL18MemLabelIdentifier82EE9SelectKeyES8_13stl_allocatorIS3_LSD_82ELi16EEE12resize_deltaEmm
4571:__ZN15dense_hashtableINSt3__24pairIKmyEEm14GfxGenericHashImEN14GfxDoubleCacheImyS5_NS0_8equal_toImEEN31GfxDoubleCacheConcurrencyPolicy11LocklessGetE42GfxDoubleCacheDefaultEmptyDeletedGeneratorImEL18MemLabelIdentifier82EE9SelectKeyES8_13stl_allocatorIS3_LSD_82ELi16EEE12maybe_shrinkEv
4572:__ZN14DelayedDeletorI15dense_hashtableINSt3__24pairIKmyEEm14GfxGenericHashImEN14GfxDoubleCacheImyS6_NS1_8equal_toImEEN31GfxDoubleCacheConcurrencyPolicy11LocklessGetE42GfxDoubleCacheDefaultEmptyDeletedGeneratorImEL18MemLabelIdentifier82EE9SelectKeyES9_13stl_allocatorIS4_LSE_82ELi16EEEEclEv
4573:__ZN11APIUpdating7Caching15RefreshFQNCacheEv
4574:__ZN14GfxDoubleCacheIN11APIUpdating7Caching6FQNKeyE17ScriptingClassPtrNS2_13HashGeneratorENSt3__28equal_toIS2_EEN31GfxDoubleCacheConcurrencyPolicy11LocklessGetENS2_12KeyGeneratorEL18MemLabelIdentifier113EE4FindERKS2_RKS3_
4575:__ZN11APIUpdating7Queries30ResolvePotentialyRelocatedTypeE17ScriptingClassPtr
4576:__ZNK15dense_hashtableINSt3__24pairIK17ScriptingClassPtrS2_EES2_N11APIUpdating7Caching7TypeKey13HashGeneratorEN14GfxDoubleCacheIS2_S2_S8_NS7_8EqualityEN31GfxDoubleCacheConcurrencyPolicy11LocklessGetENS7_12KeyGeneratorEL18MemLabelIdentifier113EE9SelectKeyESA_13stl_allocatorIS4_LSE_113ELi16EEE13find_positionERS3_
4577:__Z29scripting_class_has_attribute17ScriptingClassPtrS_
4578:__ZN11APIUpdating7Caching40GetClassRedirectionFromObsoleteAttributeE17ScriptingClassPtr
4579:__ZN14GfxDoubleCacheI17ScriptingClassPtrS0_N11APIUpdating7Caching7TypeKey13HashGeneratorENS3_8EqualityEN31GfxDoubleCacheConcurrencyPolicy11LocklessGetENS3_12KeyGeneratorEL18MemLabelIdentifier113EE3SetERKS0_SC_
4580:__ZN15dense_hashtableINSt3__24pairIK17ScriptingClassPtrS2_EES2_N11APIUpdating7Caching7TypeKey13HashGeneratorEN14GfxDoubleCacheIS2_S2_S8_NS7_8EqualityEN31GfxDoubleCacheConcurrencyPolicy11LocklessGetENS7_12KeyGeneratorEL18MemLabelIdentifier113EE9SelectKeyESA_13stl_allocatorIS4_LSE_113ELi16EEE23find_or_insert_noresizeERKS4_
4581:__ZN15dense_hashtableINSt3__24pairIK17ScriptingClassPtrS2_EES2_N11APIUpdating7Caching7TypeKey13HashGeneratorEN14GfxDoubleCacheIS2_S2_S8_NS7_8EqualityEN31GfxDoubleCacheConcurrencyPolicy11LocklessGetENS7_12KeyGeneratorEL18MemLabelIdentifier113EE9SelectKeyESA_13stl_allocatorIS4_LSE_113ELi16EEE12resize_deltaEmm
4582:__ZN15dense_hashtableINSt3__24pairIK17ScriptingClassPtrS2_EES2_N11APIUpdating7Caching7TypeKey13HashGeneratorEN14GfxDoubleCacheIS2_S2_S8_NS7_8EqualityEN31GfxDoubleCacheConcurrencyPolicy11LocklessGetENS7_12KeyGeneratorEL18MemLabelIdentifier113EE9SelectKeyESA_13stl_allocatorIS4_LSE_113ELi16EEE12maybe_shrinkEv
4583:__ZN14DelayedDeletorI15dense_hashtableINSt3__24pairIK17ScriptingClassPtrS3_EES3_N11APIUpdating7Caching7TypeKey13HashGeneratorEN14GfxDoubleCacheIS3_S3_S9_NS8_8EqualityEN31GfxDoubleCacheConcurrencyPolicy11LocklessGetENS8_12KeyGeneratorEL18MemLabelIdentifier113EE9SelectKeyESB_13stl_allocatorIS5_LSF_113ELi16EEEEclEv
4584:__Z38scripting_class_get_system_type_object17ScriptingClassPtr
4585:__ZN9Scripting11UnityEngine10_Scripting11APIUpdating29APIUpdaterRuntimeHelpersProxy26GetObsoleteTypeRedirectionE18ScriptingObjectPtrPS4_S5_S5_P21ScriptingExceptionPtr
4586:__ZNK15dense_hashtableINSt3__24pairIKN11APIUpdating7Caching6FQNKeyE17ScriptingClassPtrEES4_NS4_13HashGeneratorEN14GfxDoubleCacheIS4_S6_S8_NS0_8equal_toIS4_EEN31GfxDoubleCacheConcurrencyPolicy11LocklessGetENS4_12KeyGeneratorEL18MemLabelIdentifier113EE9SelectKeyESB_13stl_allocatorIS7_LSF_113ELi16EEE23find_position_with_hashERS5_m
4587:__ZNK15dense_hashtableINSt3__24pairIKN11APIUpdating7Caching6FQNKeyE17ScriptingClassPtrEES4_NS4_13HashGeneratorEN14GfxDoubleCacheIS4_S6_S8_NS0_8equal_toIS4_EEN31GfxDoubleCacheConcurrencyPolicy11LocklessGetENS4_12KeyGeneratorEL18MemLabelIdentifier113EE9SelectKeyESB_13stl_allocatorIS7_LSF_113ELi16EEE12test_deletedEm
4588:__Z25scripting_image_get_class17ScriptingImagePtri
4589:__ZN14GfxDoubleCacheIN11APIUpdating7Caching6FQNKeyE17ScriptingClassPtrNS2_13HashGeneratorENSt3__28equal_toIS2_EEN31GfxDoubleCacheConcurrencyPolicy11LocklessGetENS2_12KeyGeneratorEL18MemLabelIdentifier113EE3SetERKS2_RKS3_
4590:__ZN15dense_hashtableINSt3__24pairIKN11APIUpdating7Caching6FQNKeyE17ScriptingClassPtrEES4_NS4_13HashGeneratorEN14GfxDoubleCacheIS4_S6_S8_NS0_8equal_toIS4_EEN31GfxDoubleCacheConcurrencyPolicy11LocklessGetENS4_12KeyGeneratorEL18MemLabelIdentifier113EE9SelectKeyESB_13stl_allocatorIS7_LSF_113ELi16EEE23find_or_insert_noresizeERKS7_
4591:__ZN15dense_hashtableINSt3__24pairIKN11APIUpdating7Caching6FQNKeyE17ScriptingClassPtrEES4_NS4_13HashGeneratorEN14GfxDoubleCacheIS4_S6_S8_NS0_8equal_toIS4_EEN31GfxDoubleCacheConcurrencyPolicy11LocklessGetENS4_12KeyGeneratorEL18MemLabelIdentifier113EE9SelectKeyESB_13stl_allocatorIS7_LSF_113ELi16EEE12resize_deltaEmm
4592:__ZN15dense_hashtableINSt3__24pairIKN11APIUpdating7Caching6FQNKeyE17ScriptingClassPtrEES4_NS4_13HashGeneratorEN14GfxDoubleCacheIS4_S6_S8_NS0_8equal_toIS4_EEN31GfxDoubleCacheConcurrencyPolicy11LocklessGetENS4_12KeyGeneratorEL18MemLabelIdentifier113EE9SelectKeyESB_13stl_allocatorIS7_LSF_113ELi16EEE15insert_noresizeERKS7_
4593:__ZN14DelayedDeletorI15dense_hashtableINSt3__24pairIKN11APIUpdating7Caching6FQNKeyE17ScriptingClassPtrEES5_NS5_13HashGeneratorEN14GfxDoubleCacheIS5_S7_S9_NS1_8equal_toIS5_EEN31GfxDoubleCacheConcurrencyPolicy11LocklessGetENS5_12KeyGeneratorEL18MemLabelIdentifier113EE9SelectKeyESC_13stl_allocatorIS8_LSG_113ELi16EEEEclEv
4594:__ZNK16TypeTreeIterator4NameEv
4595:__ZNK16TypeTreeIterator4TypeEv
4596:__ZNK16TypeTreeIterator4NextEv
4597:__ZN15TypeTreeQueries25GenerateTypeTreeSignatureE24TransferInstructionFlagsRK6Object
4598:__ZN8TypeTreeC2E10MemLabelId
4599:__ZN13dynamic_arrayI12TypeTreeNodeLm0EEC2Em10MemLabelId
4600:__ZN17PersistentManager13ProduceObjectER14SerializedFile26SerializedObjectIdentifieri18ObjectCreationModeNS_9LockFlagsE
4601:__ZN4core8hash_mapIi17ThreadedAwakeDataNS_4hashIiEENSt3__28equal_toIiEEE6insertERKiRKS1_
4602:__ZN4core8hash_setINS_4pairIKi17ThreadedAwakeDataLb0EEENS_9hash_pairINS_4hashIiEES2_S3_EENS_10equal_pairINSt3__28equal_toIiEES2_S3_EEE4growEi
4603:__ZN14SerializedFile14GetProduceDataExRPKN5Unity4TypeER31LocalSerializedObjectIdentifierR10MemLabelId
4604:__ZN6Object7ProduceEPKN5Unity4TypeES3_i10MemLabelId18ObjectCreationMode
4605:__ZN17PersistentManager43LocalSerializedObjectIdentifierToInstanceIDEiRK31LocalSerializedObjectIdentifierRiNS_9LockFlagsE
4606:__ZN17PersistentManager22GetFromActivationQueueEiNS_9LockFlagsE
4607:__ZN22SerializableManagedRef19RebuildMonoInstanceEP6Object17ScriptingClassPtr18ScriptingObjectPtrP10MonoScript
4608:__ZN22SerializableManagedRef19SetupScriptingCacheEP6Object17ScriptingClassPtrP10MonoScript
4609:__Z64scripting_unity_engine_object_new_and_invoke_default_constructor17ScriptingClassPtrP6ObjectP21ScriptingExceptionPtr
4610:__ZNK22SerializableManagedRef22GetScriptFullClassNameEv
4611:__ZN9Scripting12LogExceptionE21ScriptingExceptionPtrP6ObjectPKcb
4612:__Z27FindOrCreateMonoScriptCache17ScriptingClassPtr22InitScriptingCacheTypeP6Objecti
4613:__ZN16ScriptingManager18GetMonoScriptCacheEl
4614:__Z18BuildScriptClassId17ScriptingClassPtr
4615:__Z21CreateMonoScriptCacheRKN4core12basic_stringIcNS_20StringStorageDefaultIcEEEE17ScriptingClassPtr22InitScriptingCacheTypeP6Objecti
4616:__Z27scripting_class_get_methods17ScriptingClassPtrRNSt3__26vectorI18ScriptingMethodPtr13stl_allocatorIS2_L18MemLabelIdentifier1ELi16EEEE
4617:__ZN4core8hash_mapINS_16basic_string_refIcEE18ScriptingMethodPtrNS_4hashIS2_EENSt3__28equal_toIS2_EEEixERKS2_
4618:__ZN16ScriptingManager27NativeTypeForScriptingClassE17ScriptingClassPtr
4619:__ZN9Scripting25GetTypeFromScriptingClassE17ScriptingClassPtr
4620:__ZN23ManagedAttributeManager24GetDefaultExecutionOrderE17ScriptingClassPtr
4621:__ZN21AttributeScannerQuery24UpdateAttributeUsageInfoEj
4622:__ZN16AttributeScannerC2E17ScriptingClassPtrRK21AttributeScannerQuery10MemLabelId
4623:__ZN16AttributeScanner4NextEv
4624:__ZN23AttributeCollectionInfo28AllocAttributesArrayIfNeededEv
4625:__ZN23AttributeCollectionInfo20GetAttributeObjectAtEi
4626:__ZN16AttributeScannerD2Ev
4627:__ZN9Scripting34GetScriptingArrayObjectElementImplE17ScriptingArrayPtri
4628:__Z26scripting_class_has_parent17ScriptingClassPtrS_
4629:__Z33scripting_custom_attrs_from_class17ScriptingClassPtr
4630:__Z31scripting_custom_attrs_has_attrP20Il2CppCustomAttrInfo17ScriptingClassPtr
4631:__ZN5Unity4Type14FindTypeByNameEPKcNS0_22CaseSensitivityOptionsE
4632:__ZNK11TypeManager15ClassNameToRTTIEPKcb
4633:__Z33RenderImageFilterValidateCallback18ScriptingMethodPtr17ScriptingClassPtrP6Object
4634:__Z31AudioFilterReadValidateCallback18ScriptingMethodPtr17ScriptingClassPtrP6Object
4635:__Z21CheckMethodParameters18ScriptingMethodPtr17ScriptingClassPtrPS0_jP6ObjectR11MonoManager
4636:__Z26GetScriptClassIdComponents17ScriptingClassPtrRN4core17string_with_labelILi1EcEES3_S3_
4637:__ZL21AppendNestedClassName17ScriptingClassPtrRN4core17string_with_labelILi1EcEE
4638:__ZN8Remapper23GetOrGenerateInstanceIDERK26SerializedObjectIdentifier
4639:__ZN17PersistentManager25PreallocateObjectThreadedEiNS_9LockFlagsE
4640:__ZN25DiagnosticsUtils_Bindings10ForceCrashENS_19ForcedCrashCategoryEP21ScriptingExceptionPtr
4641:__ZN9Scripting23CreateArgumentExceptionEPKcz
4642:__ZL34CreateManagedExceptionCommonValistPKcS0_S0_Pi
4643:__ZN17PersistentManager22MakeObjectUnpersistentEi13UnpersistMode
4644:__Z28delete_object_internal_step1P6Object
4645:__ZN12EventManager11InvokeEventEP10EventEntryPvi
4646:__ZN12EventManager11RemoveEventEP10EventEntry
4647:__ZN17PersistentManager15DestroyFromFileEi
4648:__ZN8Remapper6RemoveEi
4649:__ZN13dynamic_arrayIxLm0EE4growEv
4650:__ZN17PersistentManager19RemapToAbsolutePathERKN4core12basic_stringIcNS0_20StringStorageDefaultIcEEEE
4651:__Z13IsFileCreatedRKN4core16basic_string_refIcEE
4652:__ZN14SerializedFile14InitializeReadERKN4core12basic_stringIcNS0_20StringStorageDefaultIcEEEER18ResourceImageGroupmb24TransferInstructionFlagsN3VFS8FileSizeESB_
4653:__ZN14SerializedFile7ReleaseEv
4654:__ZN17PersistentManager31PostLoadStreamNameSpaceInternalER15StreamNameSpacei
4655:__ZNSt3__26vectorINS_4pairIiiEE13stl_allocatorIS2_L18MemLabelIdentifier42ELi16EEE6insertENS_11__wrap_iterIPKS2_EEOS2_
4656:__ZNSt3__214__split_bufferINS_4pairIiiEER13stl_allocatorIS2_L18MemLabelIdentifier42ELi16EEE9push_backEOS2_
4657:__ZN14SerializedFileD2Ev
4658:__ZN18ResourceImageGroup7CleanupEv
4659:__ZN19dynamic_block_arrayI14FileIdentifierLm64EE13clear_deallocEv
4660:__ZN13dynamic_arrayIN14SerializedFile14SerializedTypeELm0EED2Ev
4661:__ZN13dynamic_arrayI14FileIdentifierLm0EED2Ev
4662:__ZN13ResourceImageD2Ev
4663:__ZN14SerializedFile10ReadHeaderEv
4664:__Z28PrintSerializedFileLoadErrorRKN4core12basic_stringIcNS_20StringStorageDefaultIcEEEEm23SerializedFileLoadError
4665:__Z11FormatBytesx
4666:__Z12FormatStringPKcz
4667:__Z12FormatBufferPciPKcPi
4668:__Z13ReadFileCacheR15CacheReaderBasePvN3VFS8FileSizeEm
4669:__ZN14SerializedFile12ReadMetadataILb0EEEb27SerializedFileFormatVersionN3VFS8FileSizeEPKhmS3_
4670:__ZN14SerializedFile12ReadMetadataILb1EEEb27SerializedFileFormatVersionN3VFS8FileSizeEPKhmS3_
4671:__ZN14SerializedFile27PatchRemapDeprecatedClassesEv
4672:__ZN5Unity4Type26FindTypeByPersistentTypeIDEi
4673:__ZN5Unity4Type41GetDeserializationStubForPersistentTypeIDEi
4674:__ZL38FindOrCreateSerializedTypeForUnityTypeR13dynamic_arrayIN14SerializedFile14SerializedTypeELm0EEPKN5Unity4TypeEbsi
4675:__ZN14SerializedFile14SerializedTypeC2ERKS0_
4676:__ZN11TypeManager45GetDeserializationRTTIStubForPersistentTypeIDEi
4677:__ZNK11TypeManager22PersistentTypeIDToRTTIEi
4678:__ZN13dynamic_arrayIN14SerializedFile14SerializedTypeELm0EE18resize_initializedEmRKS1_12ResizePolicy
4679:__ZNK12UnityVersionltERKS_
4680:__ZN14SerializedFile14SerializedType8ReadTypeILb1ELb0EEEb27SerializedFileFormatVersionbRPKhS4_Pib
4681:__ZL26ExtractScriptTypeReferenceRK16TypeTreeIteratorN3VFS8FileSizeER15CacheReaderBasebR31LocalSerializedObjectIdentifier
4682:__ZN13dynamic_arrayI31LocalSerializedObjectIdentifierLm0EE4growEv
4683:__ZNSt3__26vectorINS_4pairIxN14SerializedFile10ObjectInfoEEENS_9allocatorIS4_EEE21__push_back_slow_pathIS4_EEvOT_
4684:__ZN13dynamic_arrayI31LocalSerializedObjectIdentifierLm0EE21resize_buffer_nocheckEm12ResizePolicy
4685:__ZN19dynamic_block_arrayI14FileIdentifierLm64EE28resize_with_resizer_internalINS1_20ResizerWithNoDefaultEEEvmRKT_
4686:__ZN14SerializedFile14SerializedType8ReadTypeILb1ELb1EEEb27SerializedFileFormatVersionbRPKhS4_Pib
4687:__ZNSt3__26__treeINS_12__value_typeIiiEENS_19__map_value_compareIiS2_NS_4lessIiEELb1EEENS_9allocatorIS2_EEE7destroyEPNS_11__tree_nodeIS2_PvEE
4688:__ZN10TypeTreeIO12ReadTypeTreeER8TypeTreeRPKhS3_27SerializedFileFormatVersionb
4689:__Z22ReadHeaderCacheCheckedILb1EEbRN4core12basic_stringIcNS0_20StringStorageDefaultIcEEEERPKhS8_
4690:__ZN21TypeTreeShareableData8BlobReadERPKhS1_27SerializedFileFormatVersionb
4691:__ZN10TypeTreeIOL16ReadTypeTreeImplILb1EEEbR8TypeTreeRK16TypeTreeIteratorRPKhS7_27SerializedFileFormatVersion
4692:__ZN10TypeTreeIOL16ReadTypeTreeImplILb0EEEbR8TypeTreeRK16TypeTreeIteratorRPKhS7_27SerializedFileFormatVersion
4693:__ZN21TypeTreeShareableData19BlobReadV17AndPriorERPKhS1_27SerializedFileFormatVersionb
4694:__ZN13dynamic_arrayI12TypeTreeNodeLm0EE21resize_buffer_nocheckEm12ResizePolicy
4695:__ZN19dynamic_block_arrayI14FileIdentifierLm64EE4growEm
4696:__ZN13dynamic_arrayI14FileIdentifierLm0EE21resize_buffer_nocheckEm12ResizePolicy
4697:__ZNSt3__26vectorIiNS_9allocatorIiEEE8__appendEmRKi
4698:__ZN14SerializedFile14SerializedType8ReadTypeILb0ELb0EEEb27SerializedFileFormatVersionbRPKhS4_Pib
4699:__ZN14SerializedFile14SerializedType8ReadTypeILb0ELb1EEEb27SerializedFileFormatVersionbRPKhS4_Pib
4700:__ZN14FileCacherReadC2E10MemLabelIdRKN4core12basic_stringIcNS1_20StringStorageDefaultIcEEEEmb
4701:__Z18PathToAbsolutePathPKc
4702:__ZN13FileEntryDataD2Ev
4703:__ZN15FileSystemEntryC2EN4core16basic_string_refIcEE
4704:__ZN15FileSystemEntry3SetEN4core16basic_string_refIcEE
4705:__Z24ConvertSeparatorsToUnityPc
4706:__ZNK10FileSystem10ToAbsoluteEPKc
4707:__ZN14FileCacherReadD2Ev
4708:__ZN14FileCacherReadD0Ev
4709:__ZN14FileCacherRead10DirectReadEPvmm
4710:__ZN14FileCacherRead14LockCacheBlockEmPPhS1_
4711:__ZN14FileCacherRead16UnlockCacheBlockEm
4712:__ZNK14FileCacherRead12GetCacheSizeEv
4713:__ZNK14FileCacherRead11GetPathNameEv
4714:__ZN15CacheReaderBase18GetAddressOfMemoryEv
4715:__ZN14FileCacherRead12RequestBlockEi
4716:__Z16AsyncReadRequestP16AsyncReadCommand
4717:__ZN13OpenFileCache10OpenCachedERKN4core12basic_stringIcNS0_20StringStorageDefaultIcEEEE
4718:__ZN4File4ReadEN3VFS8FileSizeEPvm
4719:__ZN12FileAccessor4ReadEN3VFS8FileSizeEyPvPy
4720:__ZN4File5CloseEv
4721:__ZN4File4OpenERKN4core12basic_stringIcNS0_20StringStorageDefaultIcEEEE14FilePermission16FileAutoBehavior
4722:__ZN4File19OpenFileSystemEntryERK15FileSystemEntry14FilePermission16FileAutoBehavior
4723:__ZN12FileAccessor5CloseEv
4724:__ZN13FileEntryDataaSERKS_
4725:__ZN12FileAccessor4OpenER15FileSystemEntry14FilePermission16FileAutoBehavior
4726:__ZN12FileAccessorC2Ev
4727:__ZN12FileAccessorD2Ev
4728:__ZN12FileAccessorD0Ev
4729:__Z23AsyncReadForceCloseFileRKN4core12basic_stringIcNS_20StringStorageDefaultIcEEEE
4730:__ZN13OpenFileCache10ForceCloseERKN4core12basic_stringIcNS0_20StringStorageDefaultIcEEEE
4731:__ZN14SerializedFileC2E10MemLabelId
4732:__ZNSt3__27__sort4IRNS_6__lessI14ObjectLoadDataS2_EEPS2_EEjT0_S6_S6_S6_T_
4733:__ZNSt3__27__sort5IRNS_6__lessI14ObjectLoadDataS2_EEPS2_EEjT0_S6_S6_S6_S6_T_
4734:__ZNSt3__218__insertion_sort_3IRNS_6__lessI14ObjectLoadDataS2_EEPS2_EEvT0_S6_T_
4735:__ZNSt3__227__insertion_sort_incompleteIRNS_6__lessI14ObjectLoadDataS2_EEPS2_EEbT0_S6_T_
4736:__ZN6Object18RegisterInstanceIDEPS_
4737:__Z16CanDestroyObjectP6Objectb
4738:__Z31DestroyObjectHighLevel_InternalP6Objectb
4739:__ZN10GameObject17GetComponentIndexEPN5Unity9ComponentE
4740:__ZN10GameObject22RemoveComponentAtIndexEi
4741:__ZL19PreDestroyRecursiveR10GameObjectPm
4742:__ZNK10GameObject20QueryComponentByTypeEPKN5Unity4TypeE
4743:__ZN9Transform8GetSceneEv
4744:__ZN10UnityScene19RemoveRootFromSceneER9Transformb
4745:__ZN9Transform16RemoveFromParentENS_20RemoveFromParentModeE
4746:__ZL26DestroyGameObjectRecursiveR10GameObjectR11BatchDelete
4747:__Z17CommitBatchDeleteR11BatchDelete
4748:__Z28delete_object_internal_step2P6Object
4749:__ZN32TransformHierarchyChangeDispatch26DispatchSelfAndAllChildrenE15TransformAccessNS_12InterestTypeE
4750:__ZN17TransformInternal25DestroyTransformHierarchyEP18TransformHierarchy
4751:__ZN17TransformInternal21DetachTransformThreadER18TransformHierarchyjj
4752:__ZN17TransformInternal19FreeTransformThreadER18TransformHierarchyjj
4753:__ZN17TransformInternal27UpdateDeepChildCountUpwardsER18TransformHierarchyii
4754:__ZN32TransformHierarchyChangeDispatch22DispatchSelfAndParentsE15TransformAccessNS_12InterestTypeE
4755:__ZN5Unity9Component14SendMessageAnyERK17MessageIdentifierR11MessageData
4756:__ZN10GameObject14SendMessageAnyERK17MessageIdentifierR11MessageData
4757:__ZN16MessageForwarder13HandleMessageEPviR11MessageData
4758:__ZN23TransformChangeDispatch24RemoveTransformHierarchyER18TransformHierarchy
4759:__ZN10GameObject21WillDestroyGameObjectEv
4760:__Z19CanReplaceComponentRN5Unity9ComponentEPKNS_4TypeEPN4core12basic_stringIcNS5_20StringStorageDefaultIcEEEE
4761:__Z34FindRequiredComponentsForComponentPKN5Unity4TypeE
4762:__Z24GetComponentOrScriptNameRN5Unity9ComponentE
4763:__ZNK22SerializableManagedRef18GetScriptClassNameEv
4764:__Z10AppendImplPKcS0_mmRN4core12basic_stringIcNS1_20StringStorageDefaultIcEEEE
4765:__Z25InitComponentRequirementsv
4766:__ZNSt3__26__treeINS_12__value_typeIPKN5Unity4TypeE10vector_setIS5_NS_4lessIS5_EENS_9allocatorIS5_EEEEENS_19__map_value_compareIS5_SC_S8_Lb1EEE13stl_allocatorISC_L18MemLabelIdentifier56ELi16EEE7destroyEPNS_11__tree_nodeISC_PvEE
4767:__Z38InitComponentRequirementsForModuleSpecRK10ModuleSpec
4768:__ZN13ModuleManager3GetEv
4769:__ZNK5Unity4Type21FindAllDerivedClassesER13dynamic_arrayIPKS0_Lm0EENS0_17TypeFilterOptionsE
4770:__ZNSt3__26vectorIPKN5Unity4TypeE13stl_allocatorIS4_L18MemLabelIdentifier56ELi16EEE6assignIPS4_EENS_9enable_ifIXaasr21__is_forward_iteratorIT_EE5valuesr16is_constructibleIS4_NS_15iterator_traitsISC_E9referenceEEE5valueEvE4typeESC_SC_
4771:__ZNSt3__26__sortIRNS_4lessIPKN5Unity4TypeEEEPS5_EEvT0_S9_T_
4772:__ZL23AddConflictingClassIMPLPKN5Unity4TypeES2_
4773:__ZNSt3__26vectorIPKN5Unity4TypeE13stl_allocatorIS4_L18MemLabelIdentifier56ELi16EEE6insertENS_11__wrap_iterIPKS4_EERSA_
4774:__ZNSt3__26vectorIPKN5Unity4TypeENS_9allocatorIS4_EEE6insertENS_11__wrap_iterIPKS4_EERS9_
4775:__ZNSt3__23mapIPKN5Unity4TypeE10vector_setIS4_NS_4lessIS4_EENS_9allocatorIS4_EEES7_13stl_allocatorINS_4pairIKS4_SA_EEL18MemLabelIdentifier56ELi16EEEixERSD_
4776:__ZNSt3__27__sort5IRNS_4lessIPKN5Unity4TypeEEEPS5_EEjT0_S9_S9_S9_S9_T_
4777:__ZNSt3__227__insertion_sort_incompleteIRNS_4lessIPKN5Unity4TypeEEEPS5_EEbT0_S9_T_
4778:__ZNK11TypeManager23FindAllRTTIDerivedTypesEPK4RTTIR13dynamic_arrayIS2_Lm0EEb
4779:__ZN24StaticInitializeInternal13ConstructTypeI13ModuleManagerLb0EEEPvS2_10MemLabelId
4780:__ZN10UnityScene43RegisterLevelGameManagersWithManagerContextEv
4781:__ZL24StaticInitializeProfilerPv
4782:__ZL21StaticCleanupProfilerPv
4783:__ZN9profiling15ProfilerManager8ShutdownEv
4784:__ZN9profiling15ProfilerManagerD2Ev
4785:__ZN19dynamic_block_arrayIN9profiling15ProfilerManager16CounterValueDataELm64EE13clear_deallocEv
4786:__ZN22ForwardLinearAllocatorD2Ev
4787:__ZN9profiling15ProfilerManager10InitializeEv
4788:__ZN9profiling15ProfilerManagerC2E10MemLabelId
4789:__ZN9profiling15ProfilerManager16RegisterBuiltinsEv
4790:__ZN13RuntimeStaticI25GetTimeSinceStartupHelperLb0EE16StaticInitializeEPv
4791:__ZN24StaticInitializeInternal13ConstructTypeI25GetTimeSinceStartupHelperLb0EEEPvS2_10MemLabelId
4792:_Baselib_Timer_GetTimeSinceStartupInSeconds
4793:__ZN21ComponentRequirements16StaticInitializeEPv
4794:__ZN21ComponentRequirements13StaticDestroyEPv
4795:__ZN13RuntimeStaticI19EndOfFrameCallbacksLb0EE16StaticInitializeEPv
4796:__ZN13RuntimeStaticI19EndOfFrameCallbacksLb0EE13StaticDestroyEPv
4797:__ZN22BuiltinResourceManager16StaticInitializeEPv
4798:__ZN22BuiltinResourceManager13StaticDestroyEPv
4799:__ZN19EndOfFrameCallbacks8DequeAllEv
4800:__ZN24StaticInitializeInternal13ConstructTypeI19EndOfFrameCallbacksLb0EEEPvS2_10MemLabelId
4801:__ZN13RuntimeStaticI21AssetReferenceStorageLb0EE16StaticInitializeEPv
4802:__ZN13RuntimeStaticI21AssetReferenceStorageLb0EE13StaticDestroyEPv
4803:__Z22CleanupCachingManagersPv
4804:__ZL19StaticCleanupPlayerPv
4805:__ZN13RuntimeStaticI19UnityPluginRegistryLb0EE16StaticInitializeEPv
4806:__ZN13RuntimeStaticI19UnityPluginRegistryLb0EE13StaticDestroyEPv
4807:__ZN13RuntimeStaticINSt3__23mapIN4core12basic_stringIcNS2_20StringStorageDefaultIcEEEES6_NS0_4lessIS6_EE13stl_allocatorINS0_4pairIKS6_S6_EEL18MemLabelIdentifier16ELi16EEEELb0EE16StaticInitializeEPv
4808:__ZN13RuntimeStaticINSt3__23mapIN4core12basic_stringIcNS2_20StringStorageDefaultIcEEEES6_NS0_4lessIS6_EE13stl_allocatorINS0_4pairIKS6_S6_EEL18MemLabelIdentifier16ELi16EEEELb0EE13StaticDestroyEPv
4809:__ZNSt3__26__treeINS_12__value_typeIN4core12basic_stringIcNS2_20StringStorageDefaultIcEEEES6_EENS_19__map_value_compareIS6_S7_NS_4lessIS6_EELb1EEE13stl_allocatorIS7_L18MemLabelIdentifier16ELi16EEE7destroyEPNS_11__tree_nodeIS7_PvEE
4810:__ZN24StaticInitializeInternal13ConstructTypeI19UnityPluginRegistryLb0EEEPvS2_10MemLabelId
4811:__ZN15FileSystemEntry6DeleteEb
4812:__ZN21AssetReferenceStorageD2Ev
4813:__ZN21AssetReferenceStorage22GarbageCollectCallbackEPS_R27GarbageCollectorThreadState
4814:__ZN24StaticInitializeInternal13ConstructTypeI21AssetReferenceStorageLb0EEEPvS2_10MemLabelId
4815:__ZN21AssetReferenceStorageC2Ev
4816:__ZL17InitScriptingRandPv
4817:__ZL20CleanupScriptingRandPv
4818:__ZN4Rand14RandomizeStateEv
4819:__Z24GetCurrentTimeAsDateTimev
4820:__ZN10SpookyHash7Hash128EPKvmPyS2_
4821:__ZN10SpookyHash5ShortEPKvmPyS2_
4822:__ZL30InitializeHalfConversionTablesPv
4823:__ZL30InitializeRegisterDomainReloadPv
4824:__Z27CleanupAllJobReflectionDatav
4825:__ZN13RuntimeStaticI22ThreadSharedObjectPoolI26ScriptableShadowCasterDataELb1EE16StaticInitializeEPv
4826:__ZN13RuntimeStaticI22ThreadSharedObjectPoolI26ScriptableShadowCasterDataELb1EE13StaticDestroyEPv
4827:__ZN22ThreadSharedObjectPoolI26ScriptableShadowCasterDataE5ClearEv
4828:__ZN26ScriptableShadowCasterDataD2Ev
4829:__ZN26ScriptableShadowCasterData14OnReturnToPoolEv
4830:__ZN15RenderNodeQueueD2Ev
4831:__ZN15RenderNodeQueue5ResetEb
4832:__ZN19AtomicPageAllocatorD2Ev
4833:__ZNK15RenderNodeQueue22InvokeCleanupCallbacksEv
4834:__ZN24StaticInitializeInternal13ConstructTypeI22ThreadSharedObjectPoolI26ScriptableShadowCasterDataELb1EEEPvS4_10MemLabelId
4835:__ZN23DefaultMeshVertexFormatC2ERK18VertexChannelsInfo
4836:__ZN13RuntimeStaticI23MeshVertexFormatManagerLb0EE16StaticInitializeEPv
4837:__ZN13RuntimeStaticI23MeshVertexFormatManagerLb0EE13StaticDestroyEPv
4838:__ZNSt3__26__treeINS_12__value_typeI18VertexChannelsInfo16MeshVertexFormatEENS_19__map_value_compareIS2_S4_NS_4lessIS2_EELb1EEE13stl_allocatorIS4_L18MemLabelIdentifier20ELi16EEE7destroyEPNS_11__tree_nodeIS4_PvEE
4839:__ZN23DynamicVBOBufferManager26CleanupThreadLocalDataListEPv
4840:__Z25InitializeLODGroupManagerPv
4841:__Z22CleanupLODGroupManagerPv
4842:__ZN15LODGroupManagerD2Ev
4843:__ZN17UniqueIDGenerator7CleanupEv
4844:__ZN23TransformChangeDispatch16UnregisterSystemER27TransformChangeSystemHandle
4845:__ZN17UniqueIDGenerator16DestroyPureIndexEj
4846:__ZN17UniqueIDGenerator15CreatePureIndexEv
4847:__ZN23TransformChangeDispatch14RegisterSystemEPKcNS_12InterestTypeE
4848:__ZN21BillboardBatchManager16StaticInitializeEPv
4849:__ZN21BillboardBatchManager13StaticCleanupEPv
4850:__Z28BuildSingleStreamChannelInfoR18VertexChannelsInfoRK22VertexAttributeFormats17ShaderChannelMaskS4_
4851:__ZN23MeshVertexFormatManager19GetMeshVertexFormatERK18VertexChannelsInfo
4852:__ZN16MeshVertexFormatC2ERK18VertexChannelsInfo
4853:__ZNSt3__26__treeINS_12__value_typeI18VertexChannelsInfo16MeshVertexFormatEENS_19__map_value_compareIS2_S4_NS_4lessIS2_EELb1EEE13stl_allocatorIS4_L18MemLabelIdentifier20ELi16EEE12__find_equalIS2_EERPNS_16__tree_node_baseIPvEENS_21__tree_const_iteratorIS4_PNS_11__tree_nodeIS4_SF_EElEERPNS_15__tree_end_nodeISH_EESI_RKT_
4854:__ZL28InitializeAsyncUploadTexturePv
4855:__ZL26ShutdownAsyncUploadTexturePv
4856:__ZN13RuntimeStaticI8JobFenceLb0EE16StaticInitializeEPv
4857:__ZN20DiagnosticSwitchBaseC2EPKcS1_NS_11SwitchFlagsE
4858:__ZN16DiagnosticSwitchIbE18SetValueFromStringEPKc
4859:__ZN16DiagnosticSwitchIbE20ApplyPersistentValueEv
4860:__ZN16DiagnosticSwitchIbE20CollectScriptingInfoERN20DiagnosticSwitchBase13ScriptingInfoE
4861:__ZN16DiagnosticSwitchIbE24UpdateFromScriptingValueE18ScriptingObjectPtrbP21ScriptingExceptionPtr
4862:__ZN9Scripting27CreateArgumentNullExceptionEPKc
4863:__Z30CreateBoxedObjectFromPrimitiveb
4864:__ZN16DiagnosticSwitchIbE18GetPersistentValueEv
4865:__Z19scripting_value_box17ScriptingClassPtrPv
4866:__Z14IsStringNumberPKc
4867:__Z14StringToUInt32RKN4core16basic_string_refIcEE
4868:__ZN24StaticInitializeInternal13ConstructTypeI8JobFenceLb0EEEPvS2_10MemLabelId
4869:__ZN18ConcurrentFreeListI24TextureUploadInstructionE7CleanUpEv
4870:__ZN18ConcurrentFreeListI24TextureDeleteInstructionE7CleanUpEv
4871:__ZN24TextureUploadInstructionC2Ev
4872:__ZN18AsyncUploadManager16StaticInitializeEPv
4873:__ZN18AsyncUploadManager13StaticDestroyEPv
4874:__ZN13RuntimeStaticIN4core8hash_mapIiiNS0_4hashIiEENSt3__28equal_toIiEEEELb0EE16StaticInitializeEPv
4875:__ZN13RuntimeStaticIN4core8hash_mapIiiNS0_4hashIiEENSt3__28equal_toIiEEEELb0EE13StaticDestroyEPv
4876:__ZN18AsyncUploadManagerD2Ev
4877:__ZN14QueueAllocatorD2Ev
4878:__ZN18AsyncUploadManagerC2E10MemLabelId
4879:__ZN13RuntimeStaticI19MemorylessRequesterLb0EE16StaticInitializeEPv
4880:__ZN13RuntimeStaticI19MemorylessRequesterLb0EE13StaticDestroyEPv
4881:__ZN13RuntimeStaticI19MemorylessRequesterLb0EE7DestroyEv
4882:__ZL33MemorylessRequesterDidUnloadScenei
4883:__ZN24StaticInitializeInternal13ConstructTypeI19MemorylessRequesterLb0EEEPvS2_10MemLabelId
4884:__ZN19MemorylessRequesterC2Ev
4885:__ZL38StaticRegister_LightmapSettingsManagerPv
4886:__ZL33StaticUnregister_LightmapSettingsPv
4887:__Z14DidUnloadScenei
4888:__Z21SceneLoadedAfterAwakeiR18AwakeFromLoadQueue16SceneLoadingMode
4889:__Z20DidChangeActiveSceneP10UnitySceneS0_
4890:__ZL12WipeSettingsv
4891:__ZNK10UnityScene19GetLevelGameManagerEi
4892:__ZN16LightmapSettings8CopyFromEPKS_
4893:__ZN13dynamic_arrayI10SceneRangeLm0EE21resize_buffer_nocheckEm12ResizePolicy
4894:__ZN21EnlightenSceneMappingaSERKS_
4895:__ZN16LightmapSettings7RebuildEv
4896:__ZN16LightmapSettings28SetDynamicGILightmapTexturesEPK22RealtimeLightmapIDDatam
4897:__Znam
4898:__ZN13dynamic_arrayI28EnlightenRendererInformationLm0EE21resize_buffer_nocheckEm12ResizePolicy
4899:__ZN13dynamic_arrayI26EnlightenSystemInformationLm0EE21resize_buffer_nocheckEm12ResizePolicy
4900:__ZNSt3__26vectorINS_4pairIijEENS_9allocatorIS2_EEE6assignIPS2_EENS_9enable_ifIXaasr21__is_forward_iteratorIT_EE5valuesr16is_constructibleIS2_NS_15iterator_traitsIS9_E9referenceEEE5valueEvE4typeES9_S9_
4901:__ZN4core8hash_mapIiP16LightmapSettingsNS_4hashIiEENSt3__28equal_toIiEEEixERKi
4902:__ZN16LightmapSettings14GetLightProbesEv
4903:__ZN16LightmapSettings15AppendLightmapsEiRK13dynamic_arrayI12LightmapDataLm0EE
4904:__ZN21EnlightenSceneMapping14SetSceneHandleEi
4905:__ZN21EnlightenSceneMapping6AppendEiRKS_
4906:__ZN18LightProbesManager6AppendEP11LightProbes
4907:__ZN18LightProbesManager5ClearEv
4908:__ZN11LightProbes14LightProbeData5ClearEv
4909:__ZN26ProbeSetTetrahedralization5ClearEv
4910:__Z24InitializeMainSceneRangeiiiR13dynamic_arrayI10SceneRangeLm0EE
4911:__ZN4core8hash_mapI7Hash128iNS_4hashIS1_EENSt3__28equal_toIS1_EEEixERKS1_
4912:__ZN4core8hash_setI7Hash128NS_4hashIS1_EENSt3__28equal_toIS1_EEEaSERKS7_
4913:__ZN13dynamic_arrayI20SphericalHarmonicsL2Lm0EE21resize_buffer_nocheckEm12ResizePolicy
4914:__ZNSt3__26vectorINS_4pairI7Hash128iEE13stl_allocatorIS3_L18MemLabelIdentifier86ELi16EEE6insertENS_11__wrap_iterIPKS3_EERS9_
4915:__ZN4core8hash_setI7Hash128NS_4hashIS1_EENSt3__28equal_toIS1_EEE6insertIRKS1_EENS_4pairINS7_13node_iteratorIS1_EEbLb0EEEOT_
4916:__ZN4core8hash_setINS_4pairIK7Hash128P11LightProbesLb0EEENS_9hash_pairINS_4hashIS2_EES3_S5_EENS_10equal_pairINSt3__28equal_toIS2_EES3_S5_EEE4growEi
4917:__ZN4core8hash_setI7Hash128NS_4hashIS1_EENSt3__28equal_toIS1_EEE4growEi
4918:__ZN13dynamic_arrayI10SceneRangeLm0EE4growEv
4919:__ZNSt3__26vectorINS_4pairIijEENS_9allocatorIS2_EEE21__push_back_slow_pathIS2_EEvOT_
4920:__ZN13sorted_vectorINSt3__24pairIijEEN10vector_mapIijNS0_4lessIiEENS0_9allocatorIS2_EEE13value_compareES7_E21sort_clear_duplicatesEv
4921:__ZnwmRKSt9nothrow_t
4922:__ZNSt3__213__stable_sortIRN10vector_mapIijNS_4lessIiEENS_9allocatorINS_4pairIijEEEEE13value_compareENS_11__wrap_iterIPS6_EEEEvT0_SE_T_NS_15iterator_traitsISE_E15difference_typeEPNSH_10value_typeEl
4923:__ZNSt3__218__stable_sort_moveIRN10vector_mapIijNS_4lessIiEENS_9allocatorINS_4pairIijEEEEE13value_compareENS_11__wrap_iterIPS6_EEEEvT0_SE_T_NS_15iterator_traitsISE_E15difference_typeEPNSH_10value_typeE
4924:__ZNSt3__215__inplace_mergeIRN10vector_mapIijNS_4lessIiEENS_9allocatorINS_4pairIijEEEEE13value_compareENS_11__wrap_iterIPS6_EEEEvT0_SE_SE_T_NS_15iterator_traitsISE_E15difference_typeESI_PNSH_10value_typeEl
4925:__ZNSt3__224__buffered_inplace_mergeIRN10vector_mapIijNS_4lessIiEENS_9allocatorINS_4pairIijEEEEE13value_compareENS_11__wrap_iterIPS6_EEEEvT0_SE_SE_T_NS_15iterator_traitsISE_E15difference_typeESI_PNSH_10value_typeE
4926:__Z16AppendSceneRangeiiiiiR13dynamic_arrayI10SceneRangeLm0EE
4927:__ZNK19RuntimeSceneManager19GetLoadedSceneCountEv
4928:__ZNK23LightmapSettingsManager14GetLightProbesEi
4929:__ZN18LightProbesManager6RemoveEP11LightProbes
4930:__ZN23LightmapSettingsManager19RemoveSceneSettingsEi
4931:__ZNK21EnlightenSceneMapping14FindSceneIndexEi
4932:__ZN21EnlightenSceneMapping5EraseEi
4933:__ZN16LightmapSettings15RemoveLightmapsEi
4934:__Z26ExtractAllRenderersInSceneR13dynamic_arrayIP8RendererLm0EE
4935:__Z25ExtractAllTerrainsInSceneR13dynamic_arrayIP7TerrainLm0EE
4936:__ZN6Object17FindObjectsOfTypeEPKN5Unity4TypeER13dynamic_arrayIPS_Lm0EEb
4937:__ZL31FindObjectsOfTypeImplementationPN4core8hash_setIP6ObjectNS_4hashIS2_EENSt3__28equal_toIS2_EEEEPKN5Unity4TypeER13dynamic_arrayIS2_Lm0EE
4938:__ZNSt3__26__sortIR17CompareInstanceIDPP6ObjectEEvT0_S6_T_
4939:__ZNSt3__27__sort5IR17CompareInstanceIDPP6ObjectEEjT0_S6_S6_S6_S6_T_
4940:__ZNSt3__227__insertion_sort_incompleteIR17CompareInstanceIDPP6ObjectEEbT0_S6_T_
4941:__Z14FindSceneIndexRK13dynamic_arrayI10SceneRangeLm0EEi
4942:__ZL33StaticRegister_LightProbesManagerPv
4943:__ZL35StaticUnregister_LightProbesManagerPv
4944:__ZN13dynamic_arrayI16LightProbeOffsetLm0EED2Ev
4945:__ZN13RuntimeStaticI17UniqueIDGeneratorLb1EE16StaticInitializeEPv
4946:__Z37InitializeIntermediateRendererManagerPv
4947:__Z34CleanupIntermediateRendererManagerPv
4948:__ZN27IntermediateRendererManagerD2Ev
4949:__ZN27IntermediateRendererManager27RemoveIntermediateRenderersEi
4950:__ZN21IntermediateRenderers5ClearEm
4951:__ZN13dynamic_arrayI4AABBLm0EE21resize_buffer_nocheckEm12ResizePolicy
4952:__ZN24StaticInitializeInternal13ConstructTypeI17UniqueIDGeneratorLb1EEEPvS2_10MemLabelId
4953:__ZN13RuntimeStaticI10WatermarksLb0EE16StaticInitializeEPv
4954:__ZN13RuntimeStaticI19SplashScreenStaticsLb0EE16StaticInitializeEPv
4955:__ZN11MatrixStack5ResetEv
4956:__ZL31InitializeRendererUpdateManagerPv
4957:__ZL28CleanupRendererUpdateManagerPv
4958:__ZN21RendererUpdateManagerD2Ev
4959:__ZN10Matrix4x4f11SetIdentityEv
4960:__ZN24StaticInitializeInternal13ConstructTypeI19SplashScreenStaticsLb0EEEPvS2_10MemLabelId
4961:__ZN24StaticInitializeInternal13ConstructTypeI10WatermarksLb0EEEPvS2_10MemLabelId
4962:__ZN15GlobalCallbacksC2Ev
4963:__ZN17CommonStringTable16StaticInitializeEPv
4964:__ZN17CommonStringTable13StaticCleanupEPv
4965:__ZN17CommonStringTableD2Ev
4966:__ZN17CommonStringTableC2E10MemLabelId
4967:__ZL24CleanupPrepassRenderLoopPv
4968:__ZL17CleanupGUITexturePv
4969:__ZN19CullingGroupManager15InitializeClassEPv
4970:__ZN19CullingGroupManager12CleanupClassEPv
4971:___cxx_global_var_init_1706
4972:___cxx_global_var_init_1_1707
4973:__ZL14CleanupShadowsPv
4974:__ZN9ShaderLab16FastPropertyNameC2EPKc
4975:__ZN11ColorRGBA32C2Ehhhh
4976:__ZNK11ColorRGBA32cv10ColorRGBAfEv
4977:__ZN13RuntimeStaticI13dynamic_arrayIP6CameraLm0EELb0EE16StaticInitializeEPv
4978:__ZL33CleanupCubemapGPUUtilityMaterialsPv
4979:__ZL25CleanupImageFilterGlobalsPv
4980:__ZN13RuntimeStaticI13RendererSceneLb0EE16StaticInitializeEPv
4981:__ZN13RuntimeStaticI13RendererSceneLb0EE13StaticDestroyEPv
4982:__ZN13RuntimeStaticI33ScriptableRuntimeReflectionSystemLb0EE16StaticInitializeEPv
4983:__ZN13RuntimeStaticI29ScriptingInstanceDirtyWrapperLb0EE16StaticInitializeEPv
4984:__ZN24StaticInitializeInternal13ConstructTypeI29ScriptingInstanceDirtyWrapperLb0EEEPvS2_10MemLabelId
4985:__ZN24StaticInitializeInternal13ConstructTypeI33ScriptableRuntimeReflectionSystemLb0EEEPvS2_10MemLabelId
4986:__ZN13RendererSceneD2Ev
4987:__ZN13RendererScene14RemoveRendererEi
4988:__ZN13RendererScene28SceneAfterCullingOutputReadyEPK9IndexListPK16RendererCullData
4989:__ZN13RendererScene16UpdateVisibilityEPK9IndexList
4990:__ZN24StaticInitializeInternal13ConstructTypeI13RendererSceneLb0EEEPvS2_10MemLabelId
4991:__ZN13RendererSceneC2Ev
4992:__ZN21InstancedMeshRenderer16StaticInitializeEPv
4993:__ZN21InstancedMeshRenderer13StaticDestroyEPv
4994:__ZN12LightManager15InitializeClassEPv
4995:__ZN12LightManager12CleanupClassEPv
4996:__ZL30PrepareBatchRendererGroupNodesILb0EEvR35RenderNodeQueuePrepareThreadContext
4997:__ZL30PrepareBatchRendererGroupNodesILb1EEvR35RenderNodeQueuePrepareThreadContext
4998:__ZL46PrepareRenderNodeQueueExtractionCullingContextR29RenderNodeQueuePrepareContext_2587
4999:__ZL32PostRenderCleanupCullingContextsPv
5000:__Z34RegisterPrepareRenderNodesCallbackiPFvR35RenderNodeQueuePrepareThreadContextES2_PFPvR29RenderNodeQueuePrepareContextEPFvS3_ES9_
5001:__ZN19SharedObjectFactoryI27BatchRendererCullingOutputsE7DestroyEPS0_10MemLabelId
5002:__Z28QueuePrepareNodeToMainThreadR35RenderNodeQueuePrepareThreadContext
5003:__Z16CalculateLODFadehhf
5004:__ZN12BaseRenderer16FlattenBasicDataERKS_12LODFadeValueR10RenderNode
5005:__ZN12BaseRenderer18FlattenCustomPropsEPKPK19ShaderPropertySheetiR22PerThreadPageAllocatorR10RenderNode
5006:__Z30GetLightProbeProxyVolumeHandleRK28LightProbeProxyVolumeContext4PPtrI21LightProbeProxyVolumeE
5007:__ZN12BaseRenderer16FlattenProbeDataE4PPtrI9TransformERisRK17LightProbeContextR10RenderNode
5008:__ZN12BaseRenderer28CanFlattenSharedMaterialDataILb1EEEbRKS_
5009:__ZN12BaseRenderer25FlattenSharedMaterialDataILb1EEEvRKS_R22PerThreadPageAllocatorR10RenderNode
5010:__ZN22PerThreadPageAllocator14AcquireNewPageEm
5011:__ZN4Mesh14GetMeshBuffersER11MeshBuffersPS_S2_
5012:__Z45DrawSingleMeshIntermediateRendererWithCullingRK15RenderNodeQueuej16VertexInputMasksi
5013:__Z61DrawInstancedMeshIntermediateRendererWithInstancingAndCullingRK15RenderNodeQueueRK18RenderMultipleData16VertexInputMasks
5014:__ZL44CleanupMeshInstancedMeshIntermediateRendererR15RenderNodeQueuej
5015:__ZN17MeshRenderingData7ReleaseEv
5016:__ZN21BuiltinInstancingDataD2Ev
5017:__ZN14SharedMeshDataD2Ev
5018:__ZN13dynamic_arrayI17BlendShapeChannelLm0EED2Ev
5019:__ZN10VertexDataD2Ev
5020:__ZN14ConstantStringD2Ev
5021:__ZNK17InstancingBatcher23GetBatchedInstanceCountEjPjS0_S0_S0_
5022:__ZNK17InstancingBatcher15RenderInstancesERK15RenderNodeQueueRK19ShaderPropertySheetRKNS_22RenderInstancesConfigsERK17MeshRenderingDatai16VertexInputMasksiPKiiPKN10Instancing11PropertyMapE
5023:__ZNK17MeshRenderingData11PrepareDrawER9GfxDevice16VertexInputMasksRP17VertexDeclarationR11MeshBuffersR16DrawBuffersRangei
5024:__ZN19ShaderPropertySheet8SetFloatEN9ShaderLab16FastPropertyNameEfNS_8SetFlagsE
5025:__ZZNK17InstancingBatcher15RenderInstancesERK15RenderNodeQueueRK19ShaderPropertySheetRKNS_22RenderInstancesConfigsERK17MeshRenderingDatai16VertexInputMasksiPKiiPKN10Instancing11PropertyMapEEN10CustomData10CbCallbackEjjR8JobFencePPvRKS_SM_
5026:__ZZNK17InstancingBatcher15RenderInstancesERK15RenderNodeQueueRK19ShaderPropertySheetRKNS_22RenderInstancesConfigsERK17MeshRenderingDatai16VertexInputMasksiPKiiPKN10Instancing11PropertyMapEEN10CustomData12DrawCallbackEjjR9GfxDevicePv
5027:__ZNK17InstancingBatcher21CustomRenderInstancesEjPFvjjR8JobFencePPvRKS_S2_EPFvjjR9GfxDeviceS2_ES2_
5028:__ZN19ShaderPropertySheet16SetArrayPropertyEN9ShaderLab16FastPropertyNameE23ShaderPropertySheetTypePKvmNS_8SetFlagsE
5029:__ZN19ShaderPropertySheet35SetTextureWithNoAuxiliaryPropertiesEN9ShaderLab16FastPropertyNameE9TextureID16TextureDimension14VRTextureUsage
5030:__ZN19ShaderPropertySheet16SetComputeBufferEN9ShaderLab16FastPropertyNameE15ComputeBufferIDNS_8SetFlagsE
5031:__ZN19ShaderPropertySheet27AddNewPropertyUninitializedEN9ShaderLab16FastPropertyNameE23ShaderPropertySheetTypej
5032:__ZN13dynamic_arrayIhLm4EE21resize_buffer_nocheckEm12ResizePolicy
5033:__ZN9ShaderLab6TexEnv14SetTextureInfoE9TextureID16TextureDimension14VRTextureUsage19TextureSamplingTypeRKNS_16FastPropertyNameE
5034:__ZNK9ShaderLab16FastPropertyName7GetNameEv
5035:__ZN10Instancing11DrawAPIArgsD2Ev
5036:__ZNK17InstancingBatcher18MapConstantBuffersER9GfxDeviceR13dynamic_arrayIPvLm0EERS2_I5CbKeyLm0EERS2_ImLm0EEj
5037:__ZNK17InstancingBatcher25FillInstanceBufferWithJobIN10Instancing11DrawAPIArgsEEEvR8JobFencePPvjjRKT_
5038:__ZNK15RenderNodeQueue15AddDependentJobER8JobFence
5039:__ZN10Instancing11DrawAPIArgsaSERKS0_
5040:__ZL17InstanceBufferJobIN10Instancing11DrawAPIArgsEEvP21InstanceBufferJobDataIT_E
5041:__ZNK15InstancingProps35FillInstanceBufferDispatchConstantsIN10Instancing11DrawAPIArgsEEEvPPvjjRK19ShaderPropertySheetRKT_
5042:__ZN19SharedObjectFactoryI21InstanceBufferJobDataIN10Instancing11DrawAPIArgsEEE7DestroyEPS3_10MemLabelId
5043:__Z25InvertMatrix4x4_General3DPKfPf
5044:__ZN10Instancing11DrawAPIArgsC2Ev
5045:__ZN19ShaderPropertySheetD2Ev
5046:__ZN19ShaderPropertySheetD0Ev
5047:__ZN10Instancing11DrawAPIArgsC2ERK19ShaderPropertySheetPKNS_11PropertyMapEPK8Vector4fS9_S9_iiPKi
5048:__Z30AddDefaultStreamsToMeshBuffersR9GfxDeviceR11MeshBuffersj17ShaderChannelMaskS3_
5049:__ZN16MeshVertexFormat20GetVertexDeclarationER9GfxDevice16VertexInputMasksPKS_S4_
5050:__ZNK16MeshVertexFormat28GetVertexDeclarationInternalER9GfxDevice17ShaderChannelMaskPKS_S4_
5051:__ZN9GfxDevice20GetVertexDeclarationERK18VertexChannelsInfoNS_30VertexDeclarationMRUCacheIndexE
5052:__ZN25VertexDeclarationMRUCache13GetVertexDeclER9GfxDeviceRK18VertexChannelsInfo
5053:__ZNK19ShaderPropertySheet24GetMatrixArrayFromScriptEi
5054:__ZN4Mesh14GetMeshBuffersER11MeshBuffersPS_
5055:__ZNK15GeometryBuffers19AppendVertexBuffersER11MeshBuffers
5056:__ZN4Mesh10CreateMeshEv
5057:__ZNK15GeometryBuffers14GetMeshBuffersER11MeshBuffers
5058:__ZN4Mesh5ClearEb
5059:__ZN4Mesh15UnshareMeshDataEv
5060:__Z27ConvertSubMeshesToTrianglesIjEvR13dynamic_arrayI7SubMeshLm0EERS0_IhLm0EE
5061:__Z27ConvertSubMeshesToTrianglesItEvR13dynamic_arrayI7SubMeshLm0EERS0_IhLm0EE
5062:__ZN15GeometryBuffers26CreateOrUpdateVertexBufferER9GfxDeviceiR13GfxBufferDescPKv20GfxUpdateBufferFlagsPKc
5063:__ZN15GeometryBuffers16FreeVertexBufferEi
5064:__ZN15GeometryBuffers25CreateOrUpdateIndexBufferER9GfxDeviceR13GfxBufferDescPKv20GfxUpdateBufferFlagsPKc
5065:__ZN15GeometryBuffers15FreeIndexBufferEv
5066:__ZN23PerBoneCountSkinBuffers4FreeEv
5067:__ZL20CreateOrUpdateBufferR9GfxDeviceRP9GfxBufferR13GfxBufferDescPKv20GfxUpdateBufferFlagsPKc
5068:__ZN13MemoryManager27GetCorrespondingThreadLabelE10MemLabelId
5069:__ZN14SharedMeshDataC2ERKS_
5070:__ZN13dynamic_arrayI7SubMeshLm0EE21resize_buffer_nocheckEm12ResizePolicy
5071:__ZN13dynamic_arrayI10Matrix4x4fLm16EE21resize_buffer_nocheckEm12ResizePolicy
5072:__ZN13dynamic_arrayI12BoneWeights2Lm16EE21resize_buffer_nocheckEm12ResizePolicy
5073:__ZN13dynamic_arrayI12BoneWeights4Lm16EE21resize_buffer_nocheckEm12ResizePolicy
5074:__ZN14BlendShapeDataC2ERKS_
5075:__ZN14ConstantString6assignERKS_
5076:__ZN10VertexDataC2E10MemLabelIdRKS_17ShaderChannelMask
5077:__ZNK14VertexDataInfo22CalculateStreamsLayoutEv
5078:__ZNK14VertexDataInfo19GetAttributeFormatsEv
5079:__ZN14VertexDataInfo12UpdateFormatEm17ShaderChannelMaskS0_RK19VertexStreamsLayoutRK22VertexAttributeFormats
5080:__ZN10VertexData17ClearPaddingBytesEv
5081:__ZL12CopyChannelsm17ShaderChannelMaskRK11fixed_arrayI16VertexStreamInfoLm4EERK18VertexChannelsInfoPKhS4_S7_Ph
5082:__ZN14VertexDataInfo18UpdateImplicitDataEv
5083:__Z43IsVertexFormatCompatibleWithDynamicBatchingRK14VertexDataInfo
5084:__ZN13dynamic_arrayI7SubMeshLm0EE4growEv
5085:__ZN14SharedMeshData16ClearBlendShapesEv
5086:__Z17SendMessageDirectR6ObjectRK17MessageIdentifierR11MessageData
5087:__ZN4Mesh14ResizeVerticesEm17ShaderChannelMaskS0_RK22VertexAttributeFormats
5088:__ZN14VertexDataInfoC2Ev
5089:__Z4swapR10VertexDataS0_
5090:__ZN4Mesh14ClearSkinCacheEv
5091:__ZN4Mesh16SetChannelsDirtyE17ShaderChannelMaskb15MeshUpdateFlags
5092:__ZN14SharedMeshData22ClearCachedBoneWeightsEv
5093:__ZN10VertexData6ResizeEm17ShaderChannelMaskS0_RK19VertexStreamsLayoutRK22VertexAttributeFormats
5094:__ZN24VariableBoneCountWeights14ResizeVerticesEjj
5095:__ZN19AtomicPageAllocator12AllocatePageEm
5096:__ZNK8Material32AcquireSharedMaterialDataFromJobEv
5097:__ZN8Material25AcquireSharedMaterialDataEv
5098:__ZN8Material15BuildPropertiesEv
5099:__ZN8Material12UpdateHashesEv
5100:__ZN8Material19UnshareMaterialDataEv
5101:__ZNK9ShaderLab4Pass21ComputePassValuesHashERK16ShaderKeywordSetPK19ShaderPropertySheetP6Shader
5102:__ZN9ShaderLab27ComputeStateBlockValuesHashERK13dynamic_arrayIiLm0EEPK19ShaderPropertySheetS6_
5103:__ZN9ShaderLab9IntShader23CreateStateBlocksForKeyEjPK19ShaderPropertySheetS3_
5104:__ZN9ShaderLab11ShaderState15AddDeviceStatesEjPK19ShaderPropertySheetS3_
5105:__ZNK9ShaderLab11ShaderState17BuildDeviceStatesER9GfxDevicePK19ShaderPropertySheetS5_RNS0_12DeviceStatesE
5106:__ZNK9ShaderLab20ShaderBlendStateDesc15ToGfxBlendStateEPK19ShaderPropertySheetS3_R13GfxBlendState
5107:__ZN9ShaderLab11shaderprops8GetFloatEPK19ShaderPropertySheetS3_NS_16FastPropertyNameE
5108:__ZNK9ShaderLab21ShaderRasterStateDesc16ToGfxRasterStateEPK19ShaderPropertySheetS3_R14GfxRasterState
5109:__ZNK9ShaderLab22ShaderStencilStateDesc17ToGfxStencilStateEPK19ShaderPropertySheetS3_RK14GfxRasterStateR15GfxStencilState
5110:__ZNK9ShaderLab7Program21GetMatchingSubProgramEPK6ShaderPKNS_4PassERK16ShaderKeywordSetjPS7_R19ShaderSnippetResultbb
5111:__ZNK20GpuProgramParameters23PrepareOverridingValuesERK19ShaderPropertySheetR13dynamic_arrayIhLm4EE
5112:__ZL22PrepareValueParametersI27OverridingParameterPreparerEvRK13dynamic_arrayIN20GpuProgramParameters14ValueParameterELm0EEjjjRS1_IhLm4EERKT_
5113:__ZNK9ShaderLab6TexEnv11PrepareDataEiibP15GfxTextureParam
5114:__ZN13dynamic_arrayI22GfxConstantBufferParamLm0EE4growEv
5115:__Z35UnityShaderExtPluginKeywordsEnabledRK16ShaderKeywordSet
5116:__Z41UnityShaderExtIsCustomPluginVariantNeededjj
5117:__ZNK15dense_hashtableINSt3__24pairIKN9ShaderLab7Program23ShaderKeywordSetAndHashENS3_21SubProgramLookupEntryEEES4_NS3_24ShaderKeywordHashFunctorEN14dense_hash_mapIS4_S6_S8_NS0_8equal_toIS4_EE13stl_allocatorIS7_L18MemLabelIdentifier71ELi16EEE9SelectKeyESB_SE_E23find_position_with_hashERS5_m
5118:__ZN9ShaderLab32FindBestMatchingShaderKeywordSetERK16ShaderKeywordSetRK13dynamic_arrayIS0_Lm0EEPS5_
5119:__ZN9ShaderLab10SubProgram7CompileEv
5120:__ZNK9ShaderLab7Program24MarkVariantAsUnsupportedERK16ShaderKeywordSet
5121:__ZN15dense_hashtableINSt3__24pairIKN9ShaderLab7Program23ShaderKeywordSetAndHashENS3_21SubProgramLookupEntryEEES4_NS3_24ShaderKeywordHashFunctorEN14dense_hash_mapIS4_S6_S8_NS0_8equal_toIS4_EE13stl_allocatorIS7_L18MemLabelIdentifier71ELi16EEE9SelectKeyESB_SE_E12resize_deltaEmm
5122:__ZN15dense_hashtableINSt3__24pairIKN9ShaderLab7Program23ShaderKeywordSetAndHashENS3_21SubProgramLookupEntryEEES4_NS3_24ShaderKeywordHashFunctorEN14dense_hash_mapIS4_S6_S8_NS0_8equal_toIS4_EE13stl_allocatorIS7_L18MemLabelIdentifier71ELi16EEE9SelectKeyESB_SE_E15insert_noresizeERKS7_
5123:__ZN15dense_hashtableINSt3__24pairIKN9ShaderLab7Program23ShaderKeywordSetAndHashENS3_21SubProgramLookupEntryEEES4_NS3_24ShaderKeywordHashFunctorEN14dense_hash_mapIS4_S6_S8_NS0_8equal_toIS4_EE13stl_allocatorIS7_L18MemLabelIdentifier71ELi16EEE9SelectKeyESB_SE_E12maybe_shrinkEv
5124:__ZN15dense_hashtableINSt3__24pairIKN9ShaderLab7Program23ShaderKeywordSetAndHashENS3_21SubProgramLookupEntryEEES4_NS3_24ShaderKeywordHashFunctorEN14dense_hash_mapIS4_S6_S8_NS0_8equal_toIS4_EE13stl_allocatorIS7_L18MemLabelIdentifier71ELi16EEE9SelectKeyESB_SE_E9copy_fromERKSH_m
5125:__ZN30dense_hashtable_const_iteratorINSt3__24pairIKN9ShaderLab7Program23ShaderKeywordSetAndHashENS3_21SubProgramLookupEntryEEES4_NS3_24ShaderKeywordHashFunctorEN14dense_hash_mapIS4_S6_S8_NS0_8equal_toIS4_EE13stl_allocatorIS7_L18MemLabelIdentifier71ELi16EEE9SelectKeyESB_SE_E30advance_past_empty_and_deletedEv
5126:__ZN13dynamic_arrayI16ShaderKeywordSetLm0EE4growEv
5127:__ZN20GpuProgramParametersaSERKS_
5128:__Z34UnityShaderExtCanCompileGPUProgramRK16ShaderKeywordSet20ShaderGpuProgramType
5129:__ZN16PropertyNamesSet6insertERKS_
5130:__ZN22CreateGpuProgramOutputD2Ev
5131:__ZN13dynamic_arrayIN20GpuProgramParameters14ConstantBufferELm0EED2Ev
5132:__ZN13dynamic_arrayIN20GpuProgramParameters15StructParameterELm0EED2Ev
5133:__Z30copy_construct_array_autolabelIN20GpuProgramParameters14ConstantBufferEEvPT_mPKS2_10MemLabelId
5134:__ZN13dynamic_arrayIN20GpuProgramParameters15StructParameterELm0EE6assignEPKS1_S4_
5135:__ZN13dynamic_arrayIN20GpuProgramParameters15StructParameterELm0EE21resize_buffer_nocheckEm12ResizePolicy
5136:__ZN22CreateGpuProgramOutputC2Ev
5137:__ZN8keywords19ComputeKeywordMatchERK16ShaderKeywordSetS2_
5138:__ZN18SharedMaterialDataC2ERKS_
5139:__ZN19RenderBufferManager7Buffers17ReleaseTempBufferEP9GfxBuffer
5140:__ZN10MemoryPool8AllocateEm
5141:__ZN4core8hash_mapIN19RenderBufferManager7Buffers3KeyEPNS2_11BufferEntryENS2_9KeyHasherENSt3__28equal_toIS3_EEE6insertERKS3_RKS5_
5142:__ZN4core8hash_setINS_4pairIKN19RenderBufferManager7Buffers3KeyEPNS3_11BufferEntryELb0EEENS_9hash_pairINS3_9KeyHasherES5_S7_EENS_10equal_pairINSt3__28equal_toIS4_EES5_S7_EEE4growEi
5143:__ZN10MemoryPool14AllocNewBubbleEv
5144:__ZN19ShaderPropertySheetC2E10MemLabelIdRKS_
5145:__ZN18SharedMaterialDataD2Ev
5146:__ZN18SharedMaterialDataD0Ev
5147:__ZN24MaterialDisplayListCache20MaterialDisplayLists22InvalidateDisplayListsEv
5148:__ZN24MaterialDisplayListCache16CachedShaderPass10ReleaseAllEv
5149:__ZN6Shader10GetDefaultEv
5150:__ZN19ShaderPropertySheet8CopyFromERKS_
5151:__ZN18UnityPropertySheet20AddNewShaderlabPropsERK19ShaderPropertySheet
5152:__ZN18UnityPropertySheet25AssignDefinedPropertiesToER19ShaderPropertySheet
5153:__ZN8Material18SetTextureInternalEN9ShaderLab16FastPropertyNameEP7Textureb
5154:__ZN24MaterialDisplayListCache22InvalidateDisplayListsER18SharedMaterialData
5155:__ZN19ShaderPropertySheet10SetTextureERK23FastTexturePropertyNameP7Texture
5156:__ZN8Material28UpdateHashesOnPropertyChangeEN9ShaderLab16FastPropertyNameE
5157:__ZN23TextureStreamingManager14UpdateMaterialER8Material
5158:__ZN20TextureStreamingData15FreeTextureInfoEP17StreamingRenderer
5159:__ZN19ShaderPropertySheet18AddTextureFromInfoERK23FastTexturePropertyNamePKN9ShaderLab25SerializedTexturePropertyE
5160:__ZN19ShaderPropertySheet17UpdateTextureInfoEiRK23FastTexturePropertyNameP7Textureb9TextureID
5161:__Z22GetTextureDecodeValues16TextureUsageMode17TextureColorSpace
5162:__ZN19ShaderPropertySheet37CreateTextureAuxPropertyUninitializedEN9ShaderLab16FastPropertyNameES1_PKc
5163:__ZN9ShaderLab6TexEnvC2ERKNS_25SerializedTexturePropertyE
5164:__ZN19ShaderPropertySheet9SetVectorEN9ShaderLab16FastPropertyNameERK8Vector4fNS_8SetFlagsE
5165:__ZN19ShaderPropertySheet23SetTextureWithPlacementERK23FastTexturePropertyNameP7Texture8Vector2fS5_
5166:__ZNK19ShaderPropertySheet24GetFloatValueInsRGBSpaceEi
5167:__ZNK19ShaderPropertySheet25GetVectorValueInsRGBSpaceEi
5168:__ZN13string_traitsIA28_cE8get_sizeERA28_Kc
5169:__ZNK22BuiltinResourceManager11GetResourceEPKN5Unity4TypeEN4core16basic_string_refIcEE
5170:__ZN9ShaderLab9IntShader19CreateDummyFallbackEv
5171:__ZN9ShaderLab9IntShader8PostLoadEP6Shader
5172:__ZN9ShaderLab9SubShader8PostLoadEP6Shader
5173:__ZN9shadertag16GetShaderTagNameE11ShaderTagID
5174:__ZN9ShaderLab19ParseQueueAndOffsetERKN4core12basic_stringIcNS0_20StringStorageDefaultIcEEEERi
5175:__Z7ToUpperIN4core12basic_stringIcNS0_20StringStorageDefaultIcEEEEET_RKS5_
5176:__ZNK9ShaderLab11ShaderState29GetSupportsFullForwardShadowsEv
5177:__ZN9ShaderLab9SubShaderC2Ev
5178:__ZNK13sorted_vectorIN22BuiltinResourceManager8ResourceENSt3__24lessIS1_EENS2_9allocatorIS1_EEE4findIS1_EENS2_11__wrap_iterIPKS1_EERKT_
5179:__ZN4coreplIcEENS_12basic_stringIT_NS_20StringStorageDefaultIS2_EEEEPKS2_RKNS_16basic_string_refIS2_EE
5180:__ZNK28ReflectionProbeAnchorManager35FindCachedReflectionProbeFromAnchorEPK9TransformRK4AABBRS3_RsS7_
5181:__Z29GetLightProbesCoefficientTypeRK17LightProbeContextRK10RenderNodeb
5182:__ZNK28ReflectionProbeAnchorManager28GetCachedProbeAnchorPositionERK9Transform
5183:__Z38CalculateLightProbeSamplingCoordinatesRK17LightProbeContextRK8Vector3fiR29LightProbeSamplingCoordinates
5184:__ZNK11LightProbes14LightProbeData33GetLightProbeInterpolationWeightsERK8Vector3fRiR8Vector4f
5185:__Z37GetBarycentricCoordinatesForOuterCellPPK8Vector3fRK13dynamic_arrayIS_Lm0EERS0_RK11TetrahedronR8Vector4f
5186:__ZN15LightProbeUtils32BarycentricCoordinates3DTriangleEPK8Vector3fRS1_
5187:__ZN28ReflectionProbeAnchorManager37FindReflectionProbeFromAnchorInternalEPK9Transform8Vector3fRK4AABBRS4_RsS8_
5188:__ZNK10GameObject25QueryComponentByExactTypeEPKN5Unity4TypeE
5189:__ZN12BaseRenderer25FlattenSharedMaterialDataILb0EEEvRKS_R22PerThreadPageAllocatorR10RenderNode
5190:__ZN24MeshIntermediateRenderer16StaticInitializeEPv
5191:__ZN24MeshIntermediateRenderer13StaticDestroyEPv
5192:__ZN30ProceduralIntermediateRenderer16StaticInitializeEPv
5193:__ZN30ProceduralIntermediateRenderer13StaticDestroyEPv
5194:__ZN38ProceduralIndirectIntermediateRenderer16StaticInitializeEPv
5195:__ZN38ProceduralIndirectIntermediateRenderer13StaticDestroyEPv
5196:__ZN13RuntimeStaticI20BurstCompilerServiceLb0EE16StaticInitializeEPv
5197:__ZN13RuntimeStaticI20BurstCompilerServiceLb0EE13StaticDestroyEPv
5198:__ZL44DelegateCache_InitializeRegisterDomainReloadPv
5199:__ZL25CleanupAllCachedDelegatesv
5200:__ZN20BurstCompilerService12InternalDataD2Ev
5201:__ZN24StaticInitializeInternal13ConstructTypeI20BurstCompilerServiceLb0EEEPvS2_10MemLabelId
5202:__ZN20BurstCompilerServiceC2Ev
5203:__ZN20BurstCompilerService40NativeGetExternalFunctionPointerCallbackEPKc
5204:__ZL22RegisterICallWithBurstPKcPKv
5205:__Z41scripting_add_icall_registration_callbackPFvPKcPKvE
5206:__ZN4core8hash_mapINS_12basic_stringIcNS_20StringStorageDefaultIcEEEEPKvNS_4hashIS4_EENSt3__28equal_toIS4_EEEixERKS4_
5207:__Z11burst_abortPKcS0_
5208:__Z23burst_get_dispatch_infov
5209:__ZL28burst_abort_optional_longjmpPKcS0_b
5210:__ZN17BaseObjectManager16StaticInitializeEPv
5211:__ZN17BaseObjectManager13StaticDestroyEPv
5212:__ZN6Object13StaticDestroyEv
5213:__ZN11TypeManager21CleanupGlobalInstanceEv
5214:__ZN11TypeManagerD2Ev
5215:__ZNSt3__26__treeINS_12__value_typeIiN11TypeManager18TypeCallbackStructEEENS_19__map_value_compareIiS4_NS_4lessIiEELb1EEE13stl_allocatorIS4_L18MemLabelIdentifier55ELi16EEE7destroyEPNS_11__tree_nodeIS4_PvEE
5216:__ZN11TypeManager24InitializeGlobalInstanceEv
5217:__ZN6Object16StaticInitializeEv
5218:__ZN11TypeManager12RegisterTypeERK20TypeRegistrationDesc
5219:__ZN11TypeManager36FatalErrorOnPersistentTypeIDConflictEiPKc
5220:__ZNSt3__23mapIiN11TypeManager18TypeCallbackStructENS_4lessIiEE13stl_allocatorINS_4pairIKiS2_EEL18MemLabelIdentifier55ELi16EEEixERS7_
5221:__ZN4core8hash_mapIPKcPK4RTTIN11TypeManager23ConstCharPtrHashFunctorENS6_19ConstCharPtrEqualToEEixERKS2_
5222:__ZN13RuntimeStaticI12EventManagerLb1EE16StaticInitializeEPv
5223:__ZN13RuntimeStaticI12EventManagerLb1EE13StaticDestroyEPv
5224:__ZN13RuntimeStaticI14MessageHandlerLb0EE16StaticInitializeEPv
5225:__ZN13RuntimeStaticI14MessageHandlerLb0EE13StaticDestroyEPv
5226:__ZN13RuntimeStaticI14MessageHandlerLb0EE7DestroyEv
5227:__ZN24StaticInitializeInternal13ConstructTypeI14MessageHandlerLb0EEEPvS2_10MemLabelId
5228:__ZN24StaticInitializeInternal13ConstructTypeI12EventManagerLb1EEEPvS2_10MemLabelId
5229:__ZL39CreateRegisteredMessageIdentifiersArrayPv
5230:__ZL40DestroyRegisteredMessageIdentifiersArrayPv
5231:__ZN13RuntimeStaticI12AdsIdHandlerLb0EE16StaticInitializeEPv
5232:__ZN13RuntimeStaticI12AdsIdHandlerLb0EE13StaticDestroyEPv
5233:__ZN13RuntimeStaticI15ApplicationInfoLb0EE16StaticInitializeEPv
5234:__ZN13RuntimeStaticI15ApplicationInfoLb0EE13StaticDestroyEPv
5235:__ZN24StaticInitializeInternal13ConstructTypeI15ApplicationInfoLb0EEEPvS2_10MemLabelId
5236:__ZN12AdsIdHandlerD2Ev
5237:__ZN24StaticInitializeInternal13ConstructTypeI12AdsIdHandlerLb0EEEPvS2_10MemLabelId
5238:__ZN13RuntimeStaticI18SpriteAtlasManagerLb1EE16StaticInitializeEPv
5239:__ZN24StaticInitializeInternal13ConstructTypeI18SpriteAtlasManagerLb1EEEPvS2_10MemLabelId
5240:__ZZN18SpriteAtlasManagerC1E10MemLabelIdEN46EarlyUpdateSpriteAtlasManagerUpdateRegistrator7ForwardEv
5241:__ZN18SpriteAtlasManager21CleanupInvalidAtlasesEv
5242:__ZN18SpriteAtlasManager21RequestAtlasViaScriptEv
5243:__ZN13sorted_vectorIN4core12basic_stringIcNS0_20StringStorageDefaultIcEEEENSt3__24lessIS4_EE13stl_allocatorIS4_L18MemLabelIdentifier85ELi16EEE21sort_clear_duplicatesEv
5244:__ZN18ScriptingArguments9AddStringEPKc
5245:__Z13FormatOrderedPKcz
5246:__ZL20FormatOrderedProcessPKcP17FormatOrderedDataPc
5247:__ZNSt3__213__stable_sortIRNS_4lessIN4core12basic_stringIcNS2_20StringStorageDefaultIcEEEEEENS_11__wrap_iterIPS6_EEEEvT0_SC_T_NS_15iterator_traitsISC_E15difference_typeEPNSF_10value_typeEl
5248:__Z17remove_duplicatesINSt3__211__wrap_iterIPN4core12basic_stringIcNS2_20StringStorageDefaultIcEEEEEENS0_4lessIS6_EEET_SB_SB_T0_
5249:__ZNSt3__26vectorIN4core12basic_stringIcNS1_20StringStorageDefaultIcEEEE13stl_allocatorIS5_L18MemLabelIdentifier85ELi16EEE5eraseENS_11__wrap_iterIPKS5_EESD_
5250:__ZNSt3__216__insertion_sortIRNS_4lessIN4core12basic_stringIcNS2_20StringStorageDefaultIcEEEEEENS_11__wrap_iterIPS6_EEEEvT0_SC_T_
5251:__ZNSt3__218__stable_sort_moveIRNS_4lessIN4core12basic_stringIcNS2_20StringStorageDefaultIcEEEEEENS_11__wrap_iterIPS6_EEEEvT0_SC_T_NS_15iterator_traitsISC_E15difference_typeEPNSF_10value_typeE
5252:__ZNSt3__219__merge_move_assignIRNS_4lessIN4core12basic_stringIcNS2_20StringStorageDefaultIcEEEEEEPS6_S9_NS_11__wrap_iterIS9_EEEEvT0_SC_T1_SD_T2_T_
5253:__ZNSt3__215__inplace_mergeIRNS_4lessIN4core12basic_stringIcNS2_20StringStorageDefaultIcEEEEEENS_11__wrap_iterIPS6_EEEEvT0_SC_SC_T_NS_15iterator_traitsISC_E15difference_typeESG_PNSF_10value_typeEl
5254:__ZNSt3__224__buffered_inplace_mergeIRNS_4lessIN4core12basic_stringIcNS2_20StringStorageDefaultIcEEEEEENS_11__wrap_iterIPS6_EEEEvT0_SC_SC_T_NS_15iterator_traitsISC_E15difference_typeESG_PNSF_10value_typeE
5255:__ZNSt3__216__rotate_forwardINS_11__wrap_iterIPN4core12basic_stringIcNS2_20StringStorageDefaultIcEEEEEEEET_S9_S9_S9_
5256:__ZNSt3__220__half_inplace_mergeINS_4lessIN4core12basic_stringIcNS2_20StringStorageDefaultIcEEEEEEPS6_NS_11__wrap_iterIS8_EESA_EEvT0_SB_T1_SC_T2_T_
5257:__ZNSt3__220__half_inplace_mergeINS_8__invertIRNS_4lessIN4core12basic_stringIcNS3_20StringStorageDefaultIcEEEEEEEENS_16reverse_iteratorIPS7_EENSB_INS_11__wrap_iterISC_EEEESG_EEvT0_SH_T1_SI_T2_T_
5258:__ZNSt3__221__insertion_sort_moveIRNS_4lessIN4core12basic_stringIcNS2_20StringStorageDefaultIcEEEEEENS_11__wrap_iterIPS6_EEEEvT0_SC_PNS_15iterator_traitsISC_E10value_typeET_
5259:__ZNSt3__222__merge_move_constructIRNS_4lessIN4core12basic_stringIcNS2_20StringStorageDefaultIcEEEEEENS_11__wrap_iterIPS6_EESB_EEvT0_SC_T1_SD_PNS_15iterator_traitsISC_E10value_typeET_
5260:__ZN18SpriteAtlasManagerD2Ev
5261:__ZN18SpriteAtlasManagerD0Ev
5262:__Z29InitializeSortingGroupManagerPv
5263:__Z26CleanupSortingGroupManagerPv
5264:__ZZ29InitializeSortingGroupManagerPvEN44PostLateUpdateSortingGroupsUpdateRegistrator7ForwardEv
5265:__ZN19SortingGroupManager6UpdateEv
5266:__ZNK9Transform11GetPositionEv
5267:__ZN19SpriteRendererGroup16StaticInitializeEPv
5268:__ZL29PrepareSpriteGroupRenderNodesILb0EEvR35RenderNodeQueuePrepareThreadContext
5269:__ZL29PrepareSpriteGroupRenderNodesILb1EEvR35RenderNodeQueuePrepareThreadContext
5270:__ZL46PrepareRenderNodeQueueExtractionCullingContextR29RenderNodeQueuePrepareContext
5271:__ZL10DrawSpriteRK15RenderNodeQueuej16VertexInputMasksi
5272:__ZN26SpriteIntermediateRenderer15CleanupCallbackER15RenderNodeQueuej
5273:__ZN26SpriteIntermediateRenderer20PrepareSpriteBatchedERK15RenderNodeQueueRK18RenderMultipleData16VertexInputMasks
5274:__ZN8DrawUtil26ApplySharedNodeCustomPropsER9GfxDeviceRK10RenderNodei
5275:__ZN19ShaderPropertySheet20ReservePropertyCountEm
5276:__ZL17DrawSpriteBatchedRK15RenderNodeQueuePK17BatchInstanceDatammm16VertexInputMasks
5277:__Z29CalculateDefaultChannelsToAdd17ShaderChannelMaskS_
5278:__Z40BuildSingleStreamChannelInfoWithDefaultsR18VertexChannelsInfoRK22VertexAttributeFormats17ShaderChannelMaskS4_S4_
5279:__ZN9GfxDevice13GetDynamicVBOEv
5280:__Z20GetSpriteDeviceColorRK10ColorRGBAf
5281:__Z16TransformIndicesPtPKvmmmmb
5282:__Z17TransformVerticesPhRK10Matrix4x4fPKhmm26GfxTransformVerticesParams25GfxTransformVerticesFlagsjS4_
5283:__Z27TransformVerticesStridedREFPhRK10Matrix4x4fjPKhiS4_ii25GfxTransformVerticesFlagsj
5284:__ZN10Matrix3x3f15InvertTransposeEv
5285:__Z26TransformVerticesInnerLoopILb0ELb0ELb0EEvPhRK10Matrix4x4fRK10Matrix3x3fbjPKhiS8_ii25GfxTransformVerticesFlagsj
5286:__Z26TransformVerticesInnerLoopILb1ELb0ELb0EEvPhRK10Matrix4x4fRK10Matrix3x3fbjPKhiS8_ii25GfxTransformVerticesFlagsj
5287:__Z26TransformVerticesInnerLoopILb0ELb1ELb0EEvPhRK10Matrix4x4fRK10Matrix3x3fbjPKhiS8_ii25GfxTransformVerticesFlagsj
5288:__Z26TransformVerticesInnerLoopILb1ELb1ELb0EEvPhRK10Matrix4x4fRK10Matrix3x3fbjPKhiS8_ii25GfxTransformVerticesFlagsj
5289:__Z26TransformVerticesInnerLoopILb0ELb0ELb1EEvPhRK10Matrix4x4fRK10Matrix3x3fbjPKhiS8_ii25GfxTransformVerticesFlagsj
5290:__Z26TransformVerticesInnerLoopILb1ELb0ELb1EEvPhRK10Matrix4x4fRK10Matrix3x3fbjPKhiS8_ii25GfxTransformVerticesFlagsj
5291:__Z26TransformVerticesInnerLoopILb0ELb1ELb1EEvPhRK10Matrix4x4fRK10Matrix3x3fbjPKhiS8_ii25GfxTransformVerticesFlagsj
5292:__Z26TransformVerticesInnerLoopILb1ELb1ELb1EEvPhRK10Matrix4x4fRK10Matrix3x3fbjPKhiS8_ii25GfxTransformVerticesFlagsj
5293:__ZN10Matrix4x4f5ScaleERK8Vector3f
5294:__Z20InvertMatrix4x4_FullPKfPf
5295:__ZN10Matrix4x4fC2ERK10Matrix3x3f
5296:__ZN10Matrix3x3fC2ERK10Matrix4x4f
5297:__ZN10DynamicVBOC2ER9GfxDevice
5298:__ZN10DynamicVBOD2Ev
5299:__ZN10DynamicVBOD0Ev
5300:__ZN10DynamicVBO8GetChunkEjjjj16GfxPrimitiveTypeP16DynamicVBOMemory
5301:__ZN10DynamicVBO12ReleaseChunkEjj
5302:__ZN10DynamicVBO9DrawChunkEP17VertexDeclaration
5303:__ZN10DynamicVBO20CleanupBufferManagerEv
5304:__ZN23DynamicVBOBufferManager23CleanupPerThreadBuffersER9GfxDevice
5305:__ZN10DynamicVBO19FillQuadIndexBufferEv
5306:__ZN13RuntimeStaticI15GUIEventManagerLb0EE16StaticInitializeEPv
5307:__ZN13RuntimeStaticI15GUIEventManagerLb0EE13StaticDestroyEPv
5308:__ZN13RuntimeStaticI22VirtualJoystickManagerLb0EE16StaticInitializeEPv
5309:__ZN13RuntimeStaticI22VirtualJoystickManagerLb0EE13StaticDestroyEPv
5310:__ZN24StaticInitializeInternal13ConstructTypeI22VirtualJoystickManagerLb0EEEPvS2_10MemLabelId
5311:__ZN13RuntimeStaticI15GUIEventManagerLb0EE7DestroyEv
5312:__ZNSt3__212__deque_baseI10InputEventNS_9allocatorIS1_EEE5clearEv
5313:__ZN10InputEventD2Ev
5314:__ZN24StaticInitializeInternal13ConstructTypeI15GUIEventManagerLb0EEEPvS2_10MemLabelId
5315:__ZN13RuntimeStaticINSt3__23mapI9TextureID21SparseTextureInfoGLESNS0_4lessIS2_EENS0_9allocatorINS0_4pairIKS2_S3_EEEEEELb0EE16StaticInitializeEPv
5316:__ZN13RuntimeStaticINSt3__23mapI9TextureID21SparseTextureInfoGLESNS0_4lessIS2_EENS0_9allocatorINS0_4pairIKS2_S3_EEEEEELb0EE13StaticDestroyEPv
5317:__ZNSt3__26__treeINS_12__value_typeI9TextureID21SparseTextureInfoGLESEENS_19__map_value_compareIS2_S4_NS_4lessIS2_EELb1EEENS_9allocatorIS4_EEE7destroyEPNS_11__tree_nodeIS4_PvEE
5318:__ZN9Scripting5Unity11CollectionsL50__ManagedRegistrationHelperFunction_AllocatorProxyEPv
5319:__ZN9Scripting5Unity11CollectionsL75__ManagedRegistrationHelperFunction_DeallocateOnJobCompletionAttributeProxyEPv
5320:__ZN9Scripting5Unity11Collections8LowLevel6UnsafeL65__ManagedRegistrationHelperFunction_NativeContainerAttributeProxyEPv
5321:__ZN9Scripting5Unity11Collections8LowLevel6UnsafeL82__ManagedRegistrationHelperFunction_NativeContainerIsAtomicWriteOnlyAttributeProxyEPv
5322:__ZN9Scripting5Unity11Collections8LowLevel6UnsafeL75__ManagedRegistrationHelperFunction_NativeContainerIsReadOnlyAttributeProxyEPv
5323:__ZN9Scripting5Unity11Collections8LowLevel6UnsafeL81__ManagedRegistrationHelperFunction_NativeContainerNeedsThreadIndexAttributeProxyEPv
5324:__ZN9Scripting5Unity11Collections8LowLevel6UnsafeL98__ManagedRegistrationHelperFunction_NativeContainerSupportsDeallocateOnJobCompletionAttributeProxyEPv
5325:__ZN9Scripting5Unity11Collections8LowLevel6UnsafeL90__ManagedRegistrationHelperFunction_NativeContainerSupportsDeferredConvertListToArrayProxyEPv
5326:__ZN9Scripting5Unity11Collections8LowLevel6UnsafeL95__ManagedRegistrationHelperFunction_NativeContainerSupportsMinMaxWriteRestrictionAttributeProxyEPv
5327:__ZN9Scripting5Unity11Collections8LowLevel6UnsafeL89__ManagedRegistrationHelperFunction_NativeDisableContainerSafetyRestrictionAttributeProxyEPv
5328:__ZN9Scripting5Unity11Collections8LowLevel6UnsafeL83__ManagedRegistrationHelperFunction_NativeDisableUnsafePtrRestrictionAttributeProxyEPv
5329:__ZN9Scripting5Unity11Collections8LowLevel6UnsafeL84__ManagedRegistrationHelperFunction_NativeSetClassTypeToNullOnScheduleAttributeProxyEPv
5330:__ZN9Scripting5Unity11Collections8LowLevel6UnsafeL70__ManagedRegistrationHelperFunction_NativeSetThreadIndexAttributeProxyEPv
5331:__ZN9Scripting5Unity11CollectionsL85__ManagedRegistrationHelperFunction_NativeDisableParallelForRestrictionAttributeProxyEPv
5332:__ZN9Scripting5Unity11CollectionsL67__ManagedRegistrationHelperFunction_NativeFixedLengthAttributeProxyEPv
5333:__ZN9Scripting5Unity11CollectionsL80__ManagedRegistrationHelperFunction_NativeMatchesParallelForLengthAttributeProxyEPv
5334:__ZN9Scripting5Unity11CollectionsL58__ManagedRegistrationHelperFunction_ReadOnlyAttributeProxyEPv
5335:__ZN9Scripting5Unity11CollectionsL59__ManagedRegistrationHelperFunction_WriteOnlyAttributeProxyEPv
5336:__ZN9Scripting5Unity9Profiling8LowLevel6UnsafeL62__ManagedRegistrationHelperFunction_ProfilerUnsafeUtilityProxyEPv
5337:__ZN9Scripting5Unity9ProfilingL55__ManagedRegistrationHelperFunction_ProfilerMarkerProxyEPv
5338:__ZN9Scripting5Unity9Profiling14ProfilerMarkerL50__ManagedRegistrationHelperFunction_AutoScopeProxyEPv
5339:__ZN9Scripting11UnityEngine10_Scripting11APIUpdatingL65__ManagedRegistrationHelperFunction_APIUpdaterRuntimeHelpersProxyEPv
5340:__ZN9Scripting11UnityEngine7AndroidL51__ManagedRegistrationHelperFunction_PermissionProxyEPv
5341:__ZN9Scripting11UnityEngineL55__ManagedRegistrationHelperFunction_AnimationCurveProxyEPv
5342:__ZN9Scripting11UnityEngineL52__ManagedRegistrationHelperFunction_ApplicationProxyEPv
5343:__ZN9Scripting11UnityEngineL65__ManagedRegistrationHelperFunction_AssemblyIsEditorAssemblyProxyEPv
5344:__ZN9Scripting11UnityEngineL57__ManagedRegistrationHelperFunction_YieldInstructionProxyEPv
5345:__ZN9Scripting11UnityEngineL55__ManagedRegistrationHelperFunction_AsyncOperationProxyEPv
5346:__ZN9Scripting11UnityEngineL62__ManagedRegistrationHelperFunction_AttributeHelperEngineProxyEPv
5347:__ZN9Scripting11UnityEngineL47__ManagedRegistrationHelperFunction_ObjectProxyEPv
5348:__ZN9Scripting11UnityEngineL50__ManagedRegistrationHelperFunction_ComponentProxyEPv
5349:__ZN9Scripting11UnityEngineL50__ManagedRegistrationHelperFunction_BehaviourProxyEPv
5350:__ZN9Scripting11UnityEngineL51__ManagedRegistrationHelperFunction_BoneWeightProxyEPv
5351:__ZN9Scripting11UnityEngineL52__ManagedRegistrationHelperFunction_BoneWeight1ProxyEPv
5352:__ZN9Scripting11UnityEngineL55__ManagedRegistrationHelperFunction_BootConfigDataProxyEPv
5353:__ZN9Scripting11UnityEngineL48__ManagedRegistrationHelperFunction_Vector3ProxyEPv
5354:__ZN9Scripting11UnityEngineL47__ManagedRegistrationHelperFunction_BoundsProxyEPv
5355:__ZN9Scripting11UnityEngineL50__ManagedRegistrationHelperFunction_BoundsIntProxyEPv
5356:__ZN9Scripting11UnityEngineL58__ManagedRegistrationHelperFunction_CachedAssetBundleProxyEPv
5357:__ZN9Scripting11UnityEngineL51__ManagedRegistrationHelperFunction_CacheIndexProxyEPv
5358:__ZN9Scripting11UnityEngineL47__ManagedRegistrationHelperFunction_CameraProxyEPv
5359:__ZN9Scripting11UnityEngineL64__ManagedRegistrationHelperFunction_ClassLibraryInitializerProxyEPv
5360:__ZN9Scripting11UnityEngineL46__ManagedRegistrationHelperFunction_ColorProxyEPv
5361:__ZN9Scripting11UnityEngineL48__ManagedRegistrationHelperFunction_Color32ProxyEPv
5362:__ZN9Scripting11UnityEngineL51__ManagedRegistrationHelperFunction_ColorGamutProxyEPv
5363:__ZN9Scripting11UnityEngineL54__ManagedRegistrationHelperFunction_ComputeBufferProxyEPv
5364:__ZN9Scripting11UnityEngineL54__ManagedRegistrationHelperFunction_ComputeShaderProxyEPv
5365:__ZN9Scripting11UnityEngineL52__ManagedRegistrationHelperFunction_ContextMenuProxyEPv
5366:__ZN9Scripting11UnityEngineL50__ManagedRegistrationHelperFunction_CoroutineProxyEPv
5367:__ZN9Scripting11UnityEngineL48__ManagedRegistrationHelperFunction_TextureProxyEPv
5368:__ZN9Scripting11UnityEngineL48__ManagedRegistrationHelperFunction_CubemapProxyEPv
5369:__ZN9Scripting11UnityEngineL53__ManagedRegistrationHelperFunction_CubemapArrayProxyEPv
5370:__ZN9Scripting11UnityEngineL53__ManagedRegistrationHelperFunction_CullingGroupProxyEPv
5371:__ZN9Scripting11UnityEngineL54__ManagedRegistrationHelperFunction_RenderTextureProxyEPv
5372:__ZN9Scripting11UnityEngineL60__ManagedRegistrationHelperFunction_CustomRenderTextureProxyEPv
5373:__ZN9Scripting11UnityEngineL70__ManagedRegistrationHelperFunction_CustomRenderTextureUpdateZoneProxyEPv
5374:__ZN9Scripting11UnityEngineL46__ManagedRegistrationHelperFunction_DebugProxyEPv
5375:__ZN9Scripting11UnityEngineL62__ManagedRegistrationHelperFunction_DefaultExecutionOrderProxyEPv
5376:__ZN9Scripting11UnityEngineL57__ManagedRegistrationHelperFunction_DiagnosticSwitchProxyEPv
5377:__ZN9Scripting11UnityEngineL66__ManagedRegistrationHelperFunction_DisallowMultipleComponentProxyEPv
5378:__ZN9Scripting11UnityEngineL48__ManagedRegistrationHelperFunction_DisplayProxyEPv
5379:__ZN9Scripting11UnityEngineL49__ManagedRegistrationHelperFunction_EnumInfoProxyEPv
5380:__ZN9Scripting11UnityEngine6EventsL55__ManagedRegistrationHelperFunction_UnityEventBaseProxyEPv
5381:__ZN9Scripting11UnityEngine6EventsL51__ManagedRegistrationHelperFunction_UnityEventProxyEPv
5382:__ZN9Scripting11UnityEngine6EventsL53__ManagedRegistrationHelperFunction_UnityEvent_1ProxyEPv
5383:__ZN9Scripting11UnityEngine6EventsL53__ManagedRegistrationHelperFunction_UnityEvent_2ProxyEPv
5384:__ZN9Scripting11UnityEngine6EventsL53__ManagedRegistrationHelperFunction_UnityEvent_3ProxyEPv
5385:__ZN9Scripting11UnityEngine6EventsL53__ManagedRegistrationHelperFunction_UnityEvent_4ProxyEPv
5386:__ZN9Scripting11UnityEngineL74__ManagedRegistrationHelperFunction_ExcludeFromObjectFactoryAttributeProxyEPv
5387:__ZN9Scripting11UnityEngineL67__ManagedRegistrationHelperFunction_ExcludeFromPresetAttributeProxyEPv
5388:__ZN9Scripting11UnityEngineL54__ManagedRegistrationHelperFunction_ExecuteAlwaysProxyEPv
5389:__ZN9Scripting11UnityEngineL58__ManagedRegistrationHelperFunction_ExecuteInEditModeProxyEPv
5390:__ZN9Scripting11UnityEngine12Experimental18GlobalIlluminationL52__ManagedRegistrationHelperFunction_LightDataGIProxyEPv
5391:__ZN9Scripting11UnityEngine12Experimental18GlobalIlluminationL53__ManagedRegistrationHelperFunction_LightmappingProxyEPv
5392:__ZN9Scripting11UnityEngine12Experimental9PlayablesL55__ManagedRegistrationHelperFunction_CameraPlayableProxyEPv
5393:__ZN9Scripting11UnityEngine12Experimental9PlayablesL63__ManagedRegistrationHelperFunction_MaterialEffectPlayableProxyEPv
5394:__ZN9Scripting11UnityEngine12Experimental9PlayablesL61__ManagedRegistrationHelperFunction_TextureMixerPlayableProxyEPv
5395:__ZN9Scripting11UnityEngine12Experimental9PlayablesL62__ManagedRegistrationHelperFunction_TexturePlayableOutputProxyEPv
5396:__ZN9Scripting11UnityEngine12Experimental9RenderingL71__ManagedRegistrationHelperFunction_BuiltinRuntimeReflectionSystemProxyEPv
5397:__ZN9Scripting11UnityEngine12Experimental9RenderingL72__ManagedRegistrationHelperFunction_RayTracingAccelerationStructureProxyEPv
5398:__ZN9Scripting11UnityEngine12Experimental9RenderingL82__ManagedRegistrationHelperFunction_ScriptableRuntimeReflectionSystemSettingsProxyEPv
5399:__ZN9Scripting11UnityEngine12Experimental9RenderingL81__ManagedRegistrationHelperFunction_ScriptableRuntimeReflectionSystemWrapperProxyEPv
5400:__ZN9Scripting11UnityEngine12Experimental3U2DL71__ManagedRegistrationHelperFunction_SpriteIntermediateRendererInfoProxyEPv
5401:__ZN9Scripting11UnityEngine12Experimental3U2DL60__ManagedRegistrationHelperFunction_SpriteRendererGroupProxyEPv
5402:__ZN9Scripting11UnityEngineL59__ManagedRegistrationHelperFunction_ExposedReference_1ProxyEPv
5403:__ZN9Scripting11UnityEngineL72__ManagedRegistrationHelperFunction_ExtensionOfNativeClassAttributeProxyEPv
5404:__ZN9Scripting11UnityEngineL65__ManagedRegistrationHelperFunction_FailedToLoadScriptObjectProxyEPv
5405:__ZN9Scripting11UnityEngineL51__ManagedRegistrationHelperFunction_GameObjectProxyEPv
5406:__ZN9Scripting11UnityEngineL49__ManagedRegistrationHelperFunction_GradientProxyEPv
5407:__ZN9Scripting11UnityEngineL57__ManagedRegistrationHelperFunction_GradientAlphaKeyProxyEPv
5408:__ZN9Scripting11UnityEngineL57__ManagedRegistrationHelperFunction_GradientColorKeyProxyEPv
5409:__ZN9Scripting11UnityEngineL55__ManagedRegistrationHelperFunction_GraphicsBufferProxyEPv
5410:__ZN9Scripting11UnityEngineL48__ManagedRegistrationHelperFunction_Hash128ProxyEPv
5411:__ZN9Scripting11UnityEngineL58__ManagedRegistrationHelperFunction_HDROutputSettingsProxyEPv
5412:__ZN9Scripting11UnityEngineL57__ManagedRegistrationHelperFunction_HelpURLAttributeProxyEPv
5413:__ZN9Scripting11UnityEngineL56__ManagedRegistrationHelperFunction_HideInInspectorProxyEPv
5414:__ZN9Scripting11UnityEngineL62__ManagedRegistrationHelperFunction_ImageEffectAfterScaleProxyEPv
5415:__ZN9Scripting11UnityEngineL58__ManagedRegistrationHelperFunction_ImageEffectOpaqueProxyEPv
5416:__ZN9Scripting11UnityEngineL67__ManagedRegistrationHelperFunction_ImageEffectTransformsToLDRProxyEPv
5417:__ZN9Scripting11UnityEngineL69__ManagedRegistrationHelperFunction_ImageEffectUsesCommandBufferProxyEPv
5418:__ZN9Scripting11UnityEngineL49__ManagedRegistrationHelperFunction_KeyframeProxyEPv
5419:__ZN9Scripting11UnityEngineL50__ManagedRegistrationHelperFunction_LayerMaskProxyEPv
5420:__ZN9Scripting11UnityEngineL57__ManagedRegistrationHelperFunction_LightingSettingsProxyEPv
5421:__ZN9Scripting11UnityEngineL53__ManagedRegistrationHelperFunction_LightmapDataProxyEPv
5422:__ZN9Scripting11UnityEngineL44__ManagedRegistrationHelperFunction_LODProxyEPv
5423:__ZN9Scripting11UnityEngineL60__ManagedRegistrationHelperFunction_LowerResBlitTextureProxyEPv
5424:__ZN9Scripting11UnityEngine8LowLevelL65__ManagedRegistrationHelperFunction_PlayerLoopSystemInternalProxyEPv
5425:__ZN9Scripting11UnityEngineL61__ManagedRegistrationHelperFunction_ManagedStreamHelpersProxyEPv
5426:__ZN9Scripting11UnityEngineL49__ManagedRegistrationHelperFunction_MaterialProxyEPv
5427:__ZN9Scripting11UnityEngineL50__ManagedRegistrationHelperFunction_Matrix4x4ProxyEPv
5428:__ZN9Scripting11UnityEngineL45__ManagedRegistrationHelperFunction_MeshProxyEPv
5429:__ZN9Scripting11UnityEngineL51__ManagedRegistrationHelperFunction_MeshFilterProxyEPv
5430:__ZN9Scripting11UnityEngineL49__ManagedRegistrationHelperFunction_RendererProxyEPv
5431:__ZN9Scripting11UnityEngineL53__ManagedRegistrationHelperFunction_MeshRendererProxyEPv
5432:__ZN9Scripting11UnityEngineL54__ManagedRegistrationHelperFunction_MonoBehaviourProxyEPv
5433:__ZN9Scripting11UnityEngineL57__ManagedRegistrationHelperFunction_ScriptableObjectProxyEPv
5434:__ZN9Scripting11UnityEngine10Networking16PlayerConnectionL57__ManagedRegistrationHelperFunction_PlayerConnectionProxyEPv
5435:__ZN9Scripting11UnityEngineL46__ManagedRegistrationHelperFunction_PlaneProxyEPv
5436:__ZN9Scripting11UnityEngine9PlayablesL49__ManagedRegistrationHelperFunction_PlayableProxyEPv
5437:__ZN9Scripting11UnityEngine9PlayablesL54__ManagedRegistrationHelperFunction_PlayableAssetProxyEPv
5438:__ZN9Scripting11UnityEngine9PlayablesL58__ManagedRegistrationHelperFunction_PlayableBehaviourProxyEPv
5439:__ZN9Scripting11UnityEngine9PlayablesL54__ManagedRegistrationHelperFunction_PlayableGraphProxyEPv
5440:__ZN9Scripting11UnityEngine9PlayablesL55__ManagedRegistrationHelperFunction_PlayableHandleProxyEPv
5441:__ZN9Scripting11UnityEngine9PlayablesL55__ManagedRegistrationHelperFunction_PlayableOutputProxyEPv
5442:__ZN9Scripting11UnityEngine9PlayablesL61__ManagedRegistrationHelperFunction_PlayableOutputHandleProxyEPv
5443:__ZN9Scripting11UnityEngine9PlayablesL61__ManagedRegistrationHelperFunction_ScriptPlayableOutputProxyEPv
5444:__ZN9Scripting11UnityEngine10PlayerLoopL52__ManagedRegistrationHelperFunction_EarlyUpdateProxyEPv
5445:__ZN9Scripting11UnityEngine10PlayerLoop11EarlyUpdateL65__ManagedRegistrationHelperFunction_AnalyticsCoreStatsUpdateProxyEPv
5446:__ZN9Scripting11UnityEngine10PlayerLoop11EarlyUpdateL53__ManagedRegistrationHelperFunction_ARCoreUpdateProxyEPv
5447:__ZN9Scripting11UnityEngine10PlayerLoop11EarlyUpdateL67__ManagedRegistrationHelperFunction_ClearIntermediateRenderersProxyEPv
5448:__ZN9Scripting11UnityEngine10PlayerLoop11EarlyUpdateL51__ManagedRegistrationHelperFunction_ClearLinesProxyEPv
5449:__ZN9Scripting11UnityEngine10PlayerLoop11EarlyUpdateL65__ManagedRegistrationHelperFunction_DeliverIosPlatformEventsProxyEPv
5450:__ZN9Scripting11UnityEngine10PlayerLoop11EarlyUpdateL65__ManagedRegistrationHelperFunction_DispatchEventQueueEventsProxyEPv
5451:__ZN9Scripting11UnityEngine10PlayerLoop11EarlyUpdateL62__ManagedRegistrationHelperFunction_ExecuteMainThreadJobsProxyEPv
5452:__ZN9Scripting11UnityEngine10PlayerLoop11EarlyUpdateL53__ManagedRegistrationHelperFunction_GpuTimestampProxyEPv
5453:__ZN9Scripting11UnityEngine10PlayerLoop11EarlyUpdateL67__ManagedRegistrationHelperFunction_PerformanceAnalyticsUpdateProxyEPv
5454:__ZN9Scripting11UnityEngine10PlayerLoop11EarlyUpdateL82__ManagedRegistrationHelperFunction_PhysicsResetInterpolatedTransformPositionProxyEPv
5455:__ZN9Scripting11UnityEngine10PlayerLoop11EarlyUpdateL64__ManagedRegistrationHelperFunction_PlayerCleanupCachedDataProxyEPv
5456:__ZN9Scripting11UnityEngine10PlayerLoop11EarlyUpdateL65__ManagedRegistrationHelperFunction_PollHtcsPlayerConnectionProxyEPv
5457:__ZN9Scripting11UnityEngine10PlayerLoop11EarlyUpdateL61__ManagedRegistrationHelperFunction_PollPlayerConnectionProxyEPv
5458:__ZN9Scripting11UnityEngine10PlayerLoop11EarlyUpdateL60__ManagedRegistrationHelperFunction_PresentBeforeUpdateProxyEPv
5459:__ZN9Scripting11UnityEngine10PlayerLoop11EarlyUpdateL61__ManagedRegistrationHelperFunction_ProcessMouseInWindowProxyEPv
5460:__ZN9Scripting11UnityEngine10PlayerLoop11EarlyUpdateL59__ManagedRegistrationHelperFunction_ProcessRemoteInputProxyEPv
5461:__ZN9Scripting11UnityEngine10PlayerLoop11EarlyUpdateL59__ManagedRegistrationHelperFunction_ProfilerStartFrameProxyEPv
5462:__ZN9Scripting11UnityEngine10PlayerLoop11EarlyUpdateL64__ManagedRegistrationHelperFunction_RendererNotifyInvisibleProxyEPv
5463:__ZN9Scripting11UnityEngine10PlayerLoop11EarlyUpdateL68__ManagedRegistrationHelperFunction_ResetFrameStatsAfterPresentProxyEPv
5464:__ZN9Scripting11UnityEngine10PlayerLoop11EarlyUpdateL69__ManagedRegistrationHelperFunction_ScriptRunDelayedStartupFrameProxyEPv
5465:__ZN9Scripting11UnityEngine10PlayerLoop11EarlyUpdateL65__ManagedRegistrationHelperFunction_SpriteAtlasManagerUpdateProxyEPv
5466:__ZN9Scripting11UnityEngine10PlayerLoop11EarlyUpdateL52__ManagedRegistrationHelperFunction_TangoUpdateProxyEPv
5467:__ZN9Scripting11UnityEngine10PlayerLoop11EarlyUpdateL62__ManagedRegistrationHelperFunction_UnityWebRequestUpdateProxyEPv
5468:__ZN9Scripting11UnityEngine10PlayerLoop11EarlyUpdateL67__ManagedRegistrationHelperFunction_UpdateAsyncReadbackManagerProxyEPv
5469:__ZN9Scripting11UnityEngine10PlayerLoop11EarlyUpdateL66__ManagedRegistrationHelperFunction_UpdateCanvasRectTransformProxyEPv
5470:__ZN9Scripting11UnityEngine10PlayerLoop11EarlyUpdateL59__ManagedRegistrationHelperFunction_UpdateInputManagerProxyEPv
5471:__ZN9Scripting11UnityEngine10PlayerLoop11EarlyUpdateL53__ManagedRegistrationHelperFunction_UpdateKinectProxyEPv
5472:__ZN9Scripting11UnityEngine10PlayerLoop11EarlyUpdateL63__ManagedRegistrationHelperFunction_UpdateMainGameViewRectProxyEPv
5473:__ZN9Scripting11UnityEngine10PlayerLoop11EarlyUpdateL57__ManagedRegistrationHelperFunction_UpdatePreloadingProxyEPv
5474:__ZN9Scripting11UnityEngine10PlayerLoop11EarlyUpdateL63__ManagedRegistrationHelperFunction_UpdateStreamingManagerProxyEPv
5475:__ZN9Scripting11UnityEngine10PlayerLoop11EarlyUpdateL70__ManagedRegistrationHelperFunction_UpdateTextureStreamingManagerProxyEPv
5476:__ZN9Scripting11UnityEngine10PlayerLoop11EarlyUpdateL49__ManagedRegistrationHelperFunction_XRUpdateProxyEPv
5477:__ZN9Scripting11UnityEngine10PlayerLoopL52__ManagedRegistrationHelperFunction_FixedUpdateProxyEPv
5478:__ZN9Scripting11UnityEngine10PlayerLoop11FixedUpdateL57__ManagedRegistrationHelperFunction_AudioFixedUpdateProxyEPv
5479:__ZN9Scripting11UnityEngine10PlayerLoop11FixedUpdateL51__ManagedRegistrationHelperFunction_ClearLinesProxyEPv
5480:__ZN9Scripting11UnityEngine10PlayerLoop11FixedUpdateL64__ManagedRegistrationHelperFunction_DirectorFixedSampleTimeProxyEPv
5481:__ZN9Scripting11UnityEngine10PlayerLoop11FixedUpdateL60__ManagedRegistrationHelperFunction_DirectorFixedUpdateProxyEPv
5482:__ZN9Scripting11UnityEngine10PlayerLoop11FixedUpdateL71__ManagedRegistrationHelperFunction_DirectorFixedUpdatePostPhysicsProxyEPv
5483:__ZN9Scripting11UnityEngine10PlayerLoop11FixedUpdateL67__ManagedRegistrationHelperFunction_LegacyFixedAnimationUpdateProxyEPv
5484:__ZN9Scripting11UnityEngine10PlayerLoop11FixedUpdateL60__ManagedRegistrationHelperFunction_NewInputFixedUpdateProxyEPv
5485:__ZN9Scripting11UnityEngine10PlayerLoop11FixedUpdateL61__ManagedRegistrationHelperFunction_Physics2DFixedUpdateProxyEPv
5486:__ZN9Scripting11UnityEngine10PlayerLoop11FixedUpdateL59__ManagedRegistrationHelperFunction_PhysicsFixedUpdateProxyEPv
5487:__ZN9Scripting11UnityEngine10PlayerLoop11FixedUpdateL70__ManagedRegistrationHelperFunction_ScriptRunBehaviourFixedUpdateProxyEPv
5488:__ZN9Scripting11UnityEngine10PlayerLoop11FixedUpdateL71__ManagedRegistrationHelperFunction_ScriptRunDelayedFixedFrameRateProxyEPv
5489:__ZN9Scripting11UnityEngine10PlayerLoop11FixedUpdateL54__ManagedRegistrationHelperFunction_XRFixedUpdateProxyEPv
5490:__ZN9Scripting11UnityEngine10PlayerLoopL55__ManagedRegistrationHelperFunction_InitializationProxyEPv
5491:__ZN9Scripting11UnityEngine10PlayerLoop14InitializationL68__ManagedRegistrationHelperFunction_AsyncUploadTimeSlicedUpdateProxyEPv
5492:__ZN9Scripting11UnityEngine10PlayerLoop14InitializationL59__ManagedRegistrationHelperFunction_DirectorSampleTimeProxyEPv
5493:__ZN9Scripting11UnityEngine10PlayerLoop14InitializationL57__ManagedRegistrationHelperFunction_PlayerUpdateTimeProxyEPv
5494:__ZN9Scripting11UnityEngine10PlayerLoop14InitializationL58__ManagedRegistrationHelperFunction_SynchronizeInputsProxyEPv
5495:__ZN9Scripting11UnityEngine10PlayerLoop14InitializationL57__ManagedRegistrationHelperFunction_SynchronizeStateProxyEPv
5496:__ZN9Scripting11UnityEngine10PlayerLoop14InitializationL54__ManagedRegistrationHelperFunction_XREarlyUpdateProxyEPv
5497:__ZN9Scripting11UnityEngine10PlayerLoopL55__ManagedRegistrationHelperFunction_PostLateUpdateProxyEPv
5498:__ZN9Scripting11UnityEngine10PlayerLoop14PostLateUpdateL56__ManagedRegistrationHelperFunction_BatchModeUpdateProxyEPv
5499:__ZN9Scripting11UnityEngine10PlayerLoop14PostLateUpdateL64__ManagedRegistrationHelperFunction_ClearImmediateRenderersProxyEPv
5500:__ZN9Scripting11UnityEngine10PlayerLoop14PostLateUpdateL59__ManagedRegistrationHelperFunction_DirectorLateUpdateProxyEPv
5501:__ZN9Scripting11UnityEngine10PlayerLoop14PostLateUpdateL60__ManagedRegistrationHelperFunction_DirectorRenderImageProxyEPv
5502:__ZN9Scripting11UnityEngine10PlayerLoop14PostLateUpdateL77__ManagedRegistrationHelperFunction_EndGraphicsJobsAfterScriptLateUpdateProxyEPv
5503:__ZN9Scripting11UnityEngine10PlayerLoop14PostLateUpdateL63__ManagedRegistrationHelperFunction_EnlightenRuntimeUpdateProxyEPv
5504:__ZN9Scripting11UnityEngine10PlayerLoop14PostLateUpdateL67__ManagedRegistrationHelperFunction_ExecuteGameCenterCallbacksProxyEPv
5505:__ZN9Scripting11UnityEngine10PlayerLoop14PostLateUpdateL61__ManagedRegistrationHelperFunction_FinishFrameRenderingProxyEPv
5506:__ZN9Scripting11UnityEngine10PlayerLoop14PostLateUpdateL55__ManagedRegistrationHelperFunction_GUIClearEventsProxyEPv
5507:__ZN9Scripting11UnityEngine10PlayerLoop14PostLateUpdateL54__ManagedRegistrationHelperFunction_InputEndFrameProxyEPv
5508:__ZN9Scripting11UnityEngine10PlayerLoop14PostLateUpdateL63__ManagedRegistrationHelperFunction_MemoryFrameMaintenanceProxyEPv
5509:__ZN9Scripting11UnityEngine10PlayerLoop14PostLateUpdateL67__ManagedRegistrationHelperFunction_ParticleSystemEndUpdateAllProxyEPv
5510:__ZN9Scripting11UnityEngine10PlayerLoop14PostLateUpdateL71__ManagedRegistrationHelperFunction_PhysicsSkinnedClothBeginUpdateProxyEPv
5511:__ZN9Scripting11UnityEngine10PlayerLoop14PostLateUpdateL72__ManagedRegistrationHelperFunction_PhysicsSkinnedClothFinishUpdateProxyEPv
5512:__ZN9Scripting11UnityEngine10PlayerLoop14PostLateUpdateL65__ManagedRegistrationHelperFunction_PlayerEmitCanvasGeometryProxyEPv
5513:__ZN9Scripting11UnityEngine10PlayerLoop14PostLateUpdateL64__ManagedRegistrationHelperFunction_PlayerSendFrameCompleteProxyEPv
5514:__ZN9Scripting11UnityEngine10PlayerLoop14PostLateUpdateL67__ManagedRegistrationHelperFunction_PlayerSendFramePostPresentProxyEPv
5515:__ZN9Scripting11UnityEngine10PlayerLoop14PostLateUpdateL63__ManagedRegistrationHelperFunction_PlayerSendFrameStartedProxyEPv
5516:__ZN9Scripting11UnityEngine10PlayerLoop14PostLateUpdateL61__ManagedRegistrationHelperFunction_PlayerUpdateCanvasesProxyEPv
5517:__ZN9Scripting11UnityEngine10PlayerLoop14PostLateUpdateL57__ManagedRegistrationHelperFunction_PresentAfterDrawProxyEPv
5518:__ZN9Scripting11UnityEngine10PlayerLoop14PostLateUpdateL63__ManagedRegistrationHelperFunction_ProcessWebSendMessagesProxyEPv
5519:__ZN9Scripting11UnityEngine10PlayerLoop14PostLateUpdateL57__ManagedRegistrationHelperFunction_ProfilerEndFrameProxyEPv
5520:__ZN9Scripting11UnityEngine10PlayerLoop14PostLateUpdateL65__ManagedRegistrationHelperFunction_ProfilerSynchronizeStatsProxyEPv
5521:__ZN9Scripting11UnityEngine10PlayerLoop14PostLateUpdateL55__ManagedRegistrationHelperFunction_ResetInputAxisProxyEPv
5522:__ZN9Scripting11UnityEngine10PlayerLoop14PostLateUpdateL73__ManagedRegistrationHelperFunction_ScriptRunDelayedDynamicFrameRateProxyEPv
5523:__ZN9Scripting11UnityEngine10PlayerLoop14PostLateUpdateL59__ManagedRegistrationHelperFunction_ShaderHandleErrorsProxyEPv
5524:__ZN9Scripting11UnityEngine10PlayerLoop14PostLateUpdateL60__ManagedRegistrationHelperFunction_SortingGroupsUpdateProxyEPv
5525:__ZN9Scripting11UnityEngine10PlayerLoop14PostLateUpdateL61__ManagedRegistrationHelperFunction_ThreadedLoadingDebugProxyEPv
5526:__ZN9Scripting11UnityEngine10PlayerLoop14PostLateUpdateL67__ManagedRegistrationHelperFunction_TriggerEndOfFrameCallbacksProxyEPv
5527:__ZN9Scripting11UnityEngine10PlayerLoop14PostLateUpdateL59__ManagedRegistrationHelperFunction_UpdateAllRenderersProxyEPv
5528:__ZN9Scripting11UnityEngine10PlayerLoop14PostLateUpdateL63__ManagedRegistrationHelperFunction_UpdateAllSkinnedMeshesProxyEPv
5529:__ZN9Scripting11UnityEngine10PlayerLoop14PostLateUpdateL52__ManagedRegistrationHelperFunction_UpdateAudioProxyEPv
5530:__ZN9Scripting11UnityEngine10PlayerLoop14PostLateUpdateL66__ManagedRegistrationHelperFunction_UpdateCanvasRectTransformProxyEPv
5531:__ZN9Scripting11UnityEngine10PlayerLoop14PostLateUpdateL64__ManagedRegistrationHelperFunction_UpdateCaptureScreenshotProxyEPv
5532:__ZN9Scripting11UnityEngine10PlayerLoop14PostLateUpdateL67__ManagedRegistrationHelperFunction_UpdateCustomRenderTexturesProxyEPv
5533:__ZN9Scripting11UnityEngine10PlayerLoop14PostLateUpdateL69__ManagedRegistrationHelperFunction_UpdateLightProbeProxyVolumesProxyEPv
5534:__ZN9Scripting11UnityEngine10PlayerLoop14PostLateUpdateL60__ManagedRegistrationHelperFunction_UpdateRectTransformProxyEPv
5535:__ZN9Scripting11UnityEngine10PlayerLoop14PostLateUpdateL57__ManagedRegistrationHelperFunction_UpdateResolutionProxyEPv
5536:__ZN9Scripting11UnityEngine10PlayerLoop14PostLateUpdateL56__ManagedRegistrationHelperFunction_UpdateSubstanceProxyEPv
5537:__ZN9Scripting11UnityEngine10PlayerLoop14PostLateUpdateL52__ManagedRegistrationHelperFunction_UpdateVideoProxyEPv
5538:__ZN9Scripting11UnityEngine10PlayerLoop14PostLateUpdateL60__ManagedRegistrationHelperFunction_UpdateVideoTexturesProxyEPv
5539:__ZN9Scripting11UnityEngine10PlayerLoop14PostLateUpdateL50__ManagedRegistrationHelperFunction_VFXUpdateProxyEPv
5540:__ZN9Scripting11UnityEngine10PlayerLoop14PostLateUpdateL54__ManagedRegistrationHelperFunction_XRPostPresentProxyEPv
5541:__ZN9Scripting11UnityEngine10PlayerLoopL54__ManagedRegistrationHelperFunction_PreLateUpdateProxyEPv
5542:__ZN9Scripting11UnityEngine10PlayerLoop13PreLateUpdateL59__ManagedRegistrationHelperFunction_AIUpdatePostScriptProxyEPv
5543:__ZN9Scripting11UnityEngine10PlayerLoop13PreLateUpdateL64__ManagedRegistrationHelperFunction_ConstraintManagerUpdateProxyEPv
5544:__ZN9Scripting11UnityEngine10PlayerLoop13PreLateUpdateL65__ManagedRegistrationHelperFunction_DirectorDeferredEvaluateProxyEPv
5545:__ZN9Scripting11UnityEngine10PlayerLoop13PreLateUpdateL69__ManagedRegistrationHelperFunction_DirectorUpdateAnimationBeginProxyEPv
5546:__ZN9Scripting11UnityEngine10PlayerLoop13PreLateUpdateL67__ManagedRegistrationHelperFunction_DirectorUpdateAnimationEndProxyEPv
5547:__ZN9Scripting11UnityEngine10PlayerLoop13PreLateUpdateL73__ManagedRegistrationHelperFunction_EndGraphicsJobsAfterScriptUpdateProxyEPv
5548:__ZN9Scripting11UnityEngine10PlayerLoop13PreLateUpdateL62__ManagedRegistrationHelperFunction_LegacyAnimationUpdateProxyEPv
5549:__ZN9Scripting11UnityEngine10PlayerLoop13PreLateUpdateL69__ManagedRegistrationHelperFunction_ParticleSystemBeginUpdateAllProxyEPv
5550:__ZN9Scripting11UnityEngine10PlayerLoop13PreLateUpdateL69__ManagedRegistrationHelperFunction_ScriptRunBehaviourLateUpdateProxyEPv
5551:__ZN9Scripting11UnityEngine10PlayerLoop13PreLateUpdateL63__ManagedRegistrationHelperFunction_UIElementsUpdatePanelsProxyEPv
5552:__ZN9Scripting11UnityEngine10PlayerLoop13PreLateUpdateL51__ManagedRegistrationHelperFunction_UNetUpdateProxyEPv
5553:__ZN9Scripting11UnityEngine10PlayerLoop13PreLateUpdateL68__ManagedRegistrationHelperFunction_UpdateMasterServerInterfaceProxyEPv
5554:__ZN9Scripting11UnityEngine10PlayerLoop13PreLateUpdateL61__ManagedRegistrationHelperFunction_UpdateNetworkManagerProxyEPv
5555:__ZN9Scripting11UnityEngine10PlayerLoopL50__ManagedRegistrationHelperFunction_PreUpdateProxyEPv
5556:__ZN9Scripting11UnityEngine10PlayerLoop9PreUpdateL49__ManagedRegistrationHelperFunction_AIUpdateProxyEPv
5557:__ZN9Scripting11UnityEngine10PlayerLoop9PreUpdateL59__ManagedRegistrationHelperFunction_CheckTexFieldInputProxyEPv
5558:__ZN9Scripting11UnityEngine10PlayerLoop9PreUpdateL62__ManagedRegistrationHelperFunction_IMGUISendQueuedEventsProxyEPv
5559:__ZN9Scripting11UnityEngine10PlayerLoop9PreUpdateL55__ManagedRegistrationHelperFunction_NewInputUpdateProxyEPv
5560:__ZN9Scripting11UnityEngine10PlayerLoop9PreUpdateL56__ManagedRegistrationHelperFunction_Physics2DUpdateProxyEPv
5561:__ZN9Scripting11UnityEngine10PlayerLoop9PreUpdateL54__ManagedRegistrationHelperFunction_PhysicsUpdateProxyEPv
5562:__ZN9Scripting11UnityEngine10PlayerLoop9PreUpdateL56__ManagedRegistrationHelperFunction_SendMouseEventsProxyEPv
5563:__ZN9Scripting11UnityEngine10PlayerLoop9PreUpdateL52__ManagedRegistrationHelperFunction_UpdateVideoProxyEPv
5564:__ZN9Scripting11UnityEngine10PlayerLoop9PreUpdateL51__ManagedRegistrationHelperFunction_WindUpdateProxyEPv
5565:__ZN9Scripting11UnityEngine10PlayerLoopL47__ManagedRegistrationHelperFunction_UpdateProxyEPv
5566:__ZN9Scripting11UnityEngine10PlayerLoop6UpdateL55__ManagedRegistrationHelperFunction_DirectorUpdateProxyEPv
5567:__ZN9Scripting11UnityEngine10PlayerLoop6UpdateL65__ManagedRegistrationHelperFunction_ScriptRunBehaviourUpdateProxyEPv
5568:__ZN9Scripting11UnityEngine10PlayerLoop6UpdateL73__ManagedRegistrationHelperFunction_ScriptRunDelayedDynamicFrameRateProxyEPv
5569:__ZN9Scripting11UnityEngine10PlayerLoop6UpdateL62__ManagedRegistrationHelperFunction_ScriptRunDelayedTasksProxyEPv
5570:__ZN9Scripting11UnityEngineL66__ManagedRegistrationHelperFunction_PreferBinarySerializationProxyEPv
5571:__ZN9Scripting11UnityEngineL52__ManagedRegistrationHelperFunction_PreloadDataProxyEPv
5572:__ZN9Scripting11UnityEngine9ProfilingL48__ManagedRegistrationHelperFunction_SamplerProxyEPv
5573:__ZN9Scripting11UnityEngine9ProfilingL54__ManagedRegistrationHelperFunction_CustomSamplerProxyEPv
5574:__ZN9Scripting11UnityEngine9Profiling6Memory12ExperimentalL55__ManagedRegistrationHelperFunction_MemoryProfilerProxyEPv
5575:__ZN9Scripting11UnityEngine9ProfilingL49__ManagedRegistrationHelperFunction_ProfilerProxyEPv
5576:__ZN9Scripting11UnityEngine9ProfilingL49__ManagedRegistrationHelperFunction_RecorderProxyEPv
5577:__ZN9Scripting11UnityEngineL53__ManagedRegistrationHelperFunction_PropertyNameProxyEPv
5578:__ZN9Scripting11UnityEngineL51__ManagedRegistrationHelperFunction_QuaternionProxyEPv
5579:__ZN9Scripting11UnityEngineL45__ManagedRegistrationHelperFunction_RectProxyEPv
5580:__ZN9Scripting11UnityEngineL48__ManagedRegistrationHelperFunction_RectIntProxyEPv
5581:__ZN9Scripting11UnityEngineL51__ManagedRegistrationHelperFunction_RectOffsetProxyEPv
5582:__ZN9Scripting11UnityEngineL50__ManagedRegistrationHelperFunction_TransformProxyEPv
5583:__ZN9Scripting11UnityEngineL54__ManagedRegistrationHelperFunction_RectTransformProxyEPv
5584:__ZN9Scripting11UnityEngineL56__ManagedRegistrationHelperFunction_ReflectionProbeProxyEPv
5585:__ZN9Scripting11UnityEngine9RenderingL64__ManagedRegistrationHelperFunction_AsyncGPUReadbackRequestProxyEPv
5586:__ZN9Scripting11UnityEngine9RenderingL68__ManagedRegistrationHelperFunction_AsyncRequestNativeArrayDataProxyEPv
5587:__ZN9Scripting11UnityEngine9RenderingL60__ManagedRegistrationHelperFunction_BatchCullingContextProxyEPv
5588:__ZN9Scripting11UnityEngine9RenderingL67__ManagedRegistrationHelperFunction_BatchRendererCullingOutputProxyEPv
5589:__ZN9Scripting11UnityEngine9RenderingL59__ManagedRegistrationHelperFunction_BatchRendererGroupProxyEPv
5590:__ZN9Scripting11UnityEngine9RenderingL57__ManagedRegistrationHelperFunction_CameraPropertiesProxyEPv
5591:__ZN9Scripting11UnityEngine9RenderingL54__ManagedRegistrationHelperFunction_CommandBufferProxyEPv
5592:__ZN9Scripting11UnityEngine9RenderingL57__ManagedRegistrationHelperFunction_CoreCameraValuesProxyEPv
5593:__ZN9Scripting11UnityEngine9RenderingL59__ManagedRegistrationHelperFunction_GraphicsDeviceTypeProxyEPv
5594:__ZN9Scripting11UnityEngine9RenderingL54__ManagedRegistrationHelperFunction_GraphicsFenceProxyEPv
5595:__ZN9Scripting11UnityEngine9RenderingL58__ManagedRegistrationHelperFunction_OnDemandRenderingProxyEPv
5596:__ZN9Scripting11UnityEngine9RenderingL59__ManagedRegistrationHelperFunction_PlatformKeywordSetProxyEPv
5597:__ZN9Scripting11UnityEngine9RenderingL65__ManagedRegistrationHelperFunction_ReflectionProbeBlendInfoProxyEPv
5598:__ZN9Scripting11UnityEngine9RenderingL62__ManagedRegistrationHelperFunction_RenderPipelineManagerProxyEPv
5599:__ZN9Scripting11UnityEngine9RenderingL68__ManagedRegistrationHelperFunction_ScriptableCullingParametersProxyEPv
5600:__ZN9Scripting11UnityEngine9RenderingL54__ManagedRegistrationHelperFunction_ShaderKeywordProxyEPv
5601:__ZN9Scripting11UnityEngine9RenderingL57__ManagedRegistrationHelperFunction_ShaderKeywordSetProxyEPv
5602:__ZN9Scripting11UnityEngine9RenderingL58__ManagedRegistrationHelperFunction_ShaderKeywordTypeProxyEPv
5603:__ZN9Scripting11UnityEngine9RenderingL62__ManagedRegistrationHelperFunction_ShadowDrawingSettingsProxyEPv
5604:__ZN9Scripting11UnityEngine9RenderingL56__ManagedRegistrationHelperFunction_ShadowSplitDataProxyEPv
5605:__ZN9Scripting11UnityEngine9RenderingL61__ManagedRegistrationHelperFunction_SphericalHarmonicsL2ProxyEPv
5606:__ZN9Scripting11UnityEngine9RenderingL67__ManagedRegistrationHelperFunction_SupportedRenderingFeaturesProxyEPv
5607:__ZN9Scripting11UnityEngine9RenderingL66__ManagedRegistrationHelperFunction_VertexAttributeDescriptorProxyEPv
5608:__ZN9Scripting11UnityEngine9RenderingL53__ManagedRegistrationHelperFunction_VisibleLightProxyEPv
5609:__ZN9Scripting11UnityEngine9RenderingL63__ManagedRegistrationHelperFunction_VisibleReflectionProbeProxyEPv
5610:__ZN9Scripting11UnityEngineL57__ManagedRegistrationHelperFunction_RequireComponentProxyEPv
5611:__ZN9Scripting11UnityEngineL51__ManagedRegistrationHelperFunction_ResolutionProxyEPv
5612:__ZN9Scripting11UnityEngineL56__ManagedRegistrationHelperFunction_ResourceRequestProxyEPv
5613:__ZN9Scripting11UnityEngine9ScriptingL58__ManagedRegistrationHelperFunction_PreserveAttributeProxyEPv
5614:__ZN9Scripting11UnityEngineL79__ManagedRegistrationHelperFunction_RuntimeInitializeOnLoadMethodAttributeProxyEPv
5615:__ZN9Scripting11UnityEngine15SceneManagementL53__ManagedRegistrationHelperFunction_SceneManagerProxyEPv
5616:__ZN9Scripting11UnityEngineL57__ManagedRegistrationHelperFunction_ScriptingUtilityProxyEPv
5617:__ZN9Scripting11UnityEngine13SerializationL70__ManagedRegistrationHelperFunction_FormerlySerializedAsAttributeProxyEPv
5618:__ZN9Scripting11UnityEngineL55__ManagedRegistrationHelperFunction_SerializeFieldProxyEPv
5619:__ZN9Scripting11UnityEngineL59__ManagedRegistrationHelperFunction_SerializeReferenceProxyEPv
5620:__ZN9Scripting11UnityEngineL55__ManagedRegistrationHelperFunction_SetupCoroutineProxyEPv
5621:__ZN9Scripting11UnityEngineL47__ManagedRegistrationHelperFunction_SpriteProxyEPv
5622:__ZN9Scripting11UnityEngineL58__ManagedRegistrationHelperFunction_StackTraceUtilityProxyEPv
5623:__ZN9Scripting11UnityEngine9TestToolsL69__ManagedRegistrationHelperFunction_ExcludeFromCoverageAttributeProxyEPv
5624:__ZN9Scripting11UnityEngineL50__ManagedRegistrationHelperFunction_Texture2DProxyEPv
5625:__ZN9Scripting11UnityEngineL55__ManagedRegistrationHelperFunction_Texture2DArrayProxyEPv
5626:__ZN9Scripting11UnityEngineL50__ManagedRegistrationHelperFunction_Texture3DProxyEPv
5627:__ZN9Scripting11UnityEngineL57__ManagedRegistrationHelperFunction_TrackedReferenceProxyEPv
5628:__ZN9Scripting11UnityEngine3U2DL59__ManagedRegistrationHelperFunction_SpriteAtlasManagerProxyEPv
5629:__ZN9Scripting11UnityEngine3U2DL51__ManagedRegistrationHelperFunction_SpriteBoneProxyEPv
5630:__ZN9Scripting11UnityEngineL66__ManagedRegistrationHelperFunction_UnhandledExceptionHandlerProxyEPv
5631:__ZN9Scripting11UnityEngineL55__ManagedRegistrationHelperFunction_UnityExceptionProxyEPv
5632:__ZN9Scripting11UnityEngineL68__ManagedRegistrationHelperFunction_UnitySynchronizationContextProxyEPv
5633:__ZN9Scripting11UnityEngineL48__ManagedRegistrationHelperFunction_Vector2ProxyEPv
5634:__ZN9Scripting11UnityEngineL51__ManagedRegistrationHelperFunction_Vector2IntProxyEPv
5635:__ZN9Scripting11UnityEngineL51__ManagedRegistrationHelperFunction_Vector3IntProxyEPv
5636:__ZN9Scripting11UnityEngineL48__ManagedRegistrationHelperFunction_Vector4ProxyEPv
5637:__ZN9Scripting11UnityEngineL58__ManagedRegistrationHelperFunction_WaitForEndOfFrameProxyEPv
5638:__ZN9Scripting11UnityEngineL59__ManagedRegistrationHelperFunction_WaitForFixedUpdateProxyEPv
5639:__ZN9Scripting11UnityEngineL55__ManagedRegistrationHelperFunction_WaitForSecondsProxyEPv
5640:__ZN9Scripting11UnityEngine19WaitForSecondsProxy9InitProxyEv
5641:__ZN9Scripting11UnityEngine19WaitForSecondsProxy12CleanupProxyEv
5642:__ZN35ScriptingManagedObjectProxyRegistry13RegisterProxyEPKcPFvvES3_
5643:__Z19scripting_array_new17ScriptingClassPtrmm
5644:__ZN17ScriptingGCHandle13AcquireStrongE18ScriptingObjectPtr
5645:__ZN9Scripting11UnityEngine23WaitForFixedUpdateProxy9InitProxyEv
5646:__ZN9Scripting11UnityEngine23WaitForFixedUpdateProxy12CleanupProxyEv
5647:__ZN9Scripting11UnityEngine22WaitForEndOfFrameProxy9InitProxyEv
5648:__ZN9Scripting11UnityEngine22WaitForEndOfFrameProxy12CleanupProxyEv
5649:__ZN9Scripting11UnityEngine12Vector4Proxy9InitProxyEv
5650:__ZN9Scripting11UnityEngine12Vector4Proxy12CleanupProxyEv
5651:__ZN9Scripting11UnityEngine15Vector3IntProxy9InitProxyEv
5652:__ZN9Scripting11UnityEngine15Vector3IntProxy12CleanupProxyEv
5653:__ZN9Scripting11UnityEngine15Vector2IntProxy9InitProxyEv
5654:__ZN9Scripting11UnityEngine15Vector2IntProxy12CleanupProxyEv
5655:__ZN9Scripting11UnityEngine12Vector2Proxy9InitProxyEv
5656:__ZN9Scripting11UnityEngine12Vector2Proxy12CleanupProxyEv
5657:__ZN9Scripting11UnityEngine32UnitySynchronizationContextProxy9InitProxyEv
5658:__ZN9Scripting11UnityEngine32UnitySynchronizationContextProxy12CleanupProxyEv
5659:__ZN9Scripting11UnityEngine19UnityExceptionProxy9InitProxyEv
5660:__ZN9Scripting11UnityEngine19UnityExceptionProxy12CleanupProxyEv
5661:__ZN9Scripting11UnityEngine30UnhandledExceptionHandlerProxy9InitProxyEv
5662:__ZN9Scripting11UnityEngine30UnhandledExceptionHandlerProxy12CleanupProxyEv
5663:__ZN9Scripting11UnityEngine3U2D15SpriteBoneProxy9InitProxyEv
5664:__ZN9Scripting11UnityEngine3U2D15SpriteBoneProxy12CleanupProxyEv
5665:__ZN9Scripting11UnityEngine3U2D23SpriteAtlasManagerProxy9InitProxyEv
5666:__ZN9Scripting11UnityEngine3U2D23SpriteAtlasManagerProxy12CleanupProxyEv
5667:__ZN9Scripting11UnityEngine21TrackedReferenceProxy9InitProxyEv
5668:__ZN9Scripting11UnityEngine21TrackedReferenceProxy12CleanupProxyEv
5669:__ZN9Scripting11UnityEngine14Texture3DProxy9InitProxyEv
5670:__ZN9Scripting11UnityEngine14Texture3DProxy12CleanupProxyEv
5671:__ZN9Scripting11UnityEngine19Texture2DArrayProxy9InitProxyEv
5672:__ZN9Scripting11UnityEngine19Texture2DArrayProxy12CleanupProxyEv
5673:__ZN9Scripting11UnityEngine14Texture2DProxy9InitProxyEv
5674:__ZN9Scripting11UnityEngine14Texture2DProxy12CleanupProxyEv
5675:__ZN9Scripting11UnityEngine9TestTools33ExcludeFromCoverageAttributeProxy9InitProxyEv
5676:__ZN9Scripting11UnityEngine9TestTools33ExcludeFromCoverageAttributeProxy12CleanupProxyEv
5677:__ZN9Scripting11UnityEngine22StackTraceUtilityProxy9InitProxyEv
5678:__ZN9Scripting11UnityEngine22StackTraceUtilityProxy12CleanupProxyEv
5679:__ZN9Scripting11UnityEngine11SpriteProxy9InitProxyEv
5680:__ZN9Scripting11UnityEngine11SpriteProxy12CleanupProxyEv
5681:__ZN9Scripting11UnityEngine19SetupCoroutineProxy9InitProxyEv
5682:__ZN9Scripting11UnityEngine19SetupCoroutineProxy12CleanupProxyEv
5683:__ZN9Scripting11UnityEngine23SerializeReferenceProxy9InitProxyEv
5684:__ZN9Scripting11UnityEngine23SerializeReferenceProxy12CleanupProxyEv
5685:__ZN9Scripting11UnityEngine19SerializeFieldProxy9InitProxyEv
5686:__ZN9Scripting11UnityEngine19SerializeFieldProxy12CleanupProxyEv
5687:__ZN9Scripting11UnityEngine13Serialization34FormerlySerializedAsAttributeProxy9InitProxyEv
5688:__ZN9Scripting11UnityEngine13Serialization34FormerlySerializedAsAttributeProxy12CleanupProxyEv
5689:__ZN9Scripting11UnityEngine21ScriptingUtilityProxy9InitProxyEv
5690:__ZN9Scripting11UnityEngine21ScriptingUtilityProxy12CleanupProxyEv
5691:__ZN9Scripting11UnityEngine15SceneManagement17SceneManagerProxy9InitProxyEv
5692:__ZN9Scripting11UnityEngine15SceneManagement17SceneManagerProxy12CleanupProxyEv
5693:__ZN9Scripting11UnityEngine43RuntimeInitializeOnLoadMethodAttributeProxy9InitProxyEv
5694:__ZN9Scripting11UnityEngine43RuntimeInitializeOnLoadMethodAttributeProxy12CleanupProxyEv
5695:__ZN9Scripting11UnityEngine9Scripting22PreserveAttributeProxy9InitProxyEv
5696:__ZN9Scripting11UnityEngine9Scripting22PreserveAttributeProxy12CleanupProxyEv
5697:__ZN9Scripting11UnityEngine20ResourceRequestProxy9InitProxyEv
5698:__ZN9Scripting11UnityEngine20ResourceRequestProxy12CleanupProxyEv
5699:__ZN9Scripting11UnityEngine15ResolutionProxy9InitProxyEv
5700:__ZN9Scripting11UnityEngine15ResolutionProxy12CleanupProxyEv
5701:__ZN9Scripting11UnityEngine21RequireComponentProxy9InitProxyEv
5702:__ZN9Scripting11UnityEngine21RequireComponentProxy12CleanupProxyEv
5703:__ZN9Scripting11UnityEngine9Rendering27VisibleReflectionProbeProxy9InitProxyEv
5704:__ZN9Scripting11UnityEngine9Rendering27VisibleReflectionProbeProxy12CleanupProxyEv
5705:__ZN9Scripting11UnityEngine9Rendering17VisibleLightProxy9InitProxyEv
5706:__ZN9Scripting11UnityEngine9Rendering17VisibleLightProxy12CleanupProxyEv
5707:__ZN9Scripting11UnityEngine9Rendering30VertexAttributeDescriptorProxy9InitProxyEv
5708:__ZN9Scripting11UnityEngine9Rendering30VertexAttributeDescriptorProxy12CleanupProxyEv
5709:__ZN9Scripting11UnityEngine9Rendering31SupportedRenderingFeaturesProxy9InitProxyEv
5710:__ZN9Scripting11UnityEngine9Rendering31SupportedRenderingFeaturesProxy12CleanupProxyEv
5711:__ZN9Scripting11UnityEngine9Rendering25SphericalHarmonicsL2Proxy9InitProxyEv
5712:__ZN9Scripting11UnityEngine9Rendering25SphericalHarmonicsL2Proxy12CleanupProxyEv
5713:__ZN9Scripting11UnityEngine9Rendering20ShadowSplitDataProxy9InitProxyEv
5714:__ZN9Scripting11UnityEngine9Rendering20ShadowSplitDataProxy12CleanupProxyEv
5715:__ZN9Scripting11UnityEngine9Rendering26ShadowDrawingSettingsProxy9InitProxyEv
5716:__ZN9Scripting11UnityEngine9Rendering26ShadowDrawingSettingsProxy12CleanupProxyEv
5717:__ZN9Scripting11UnityEngine9Rendering22ShaderKeywordTypeProxy9InitProxyEv
5718:__ZN9Scripting11UnityEngine9Rendering22ShaderKeywordTypeProxy12CleanupProxyEv
5719:__ZN9Scripting11UnityEngine9Rendering21ShaderKeywordSetProxy9InitProxyEv
5720:__ZN9Scripting11UnityEngine9Rendering21ShaderKeywordSetProxy12CleanupProxyEv
5721:__ZN9Scripting11UnityEngine9Rendering18ShaderKeywordProxy9InitProxyEv
5722:__ZN9Scripting11UnityEngine9Rendering18ShaderKeywordProxy12CleanupProxyEv
5723:__ZN9Scripting11UnityEngine9Rendering32ScriptableCullingParametersProxy9InitProxyEv
5724:__ZN9Scripting11UnityEngine9Rendering32ScriptableCullingParametersProxy12CleanupProxyEv
5725:__ZN9Scripting11UnityEngine9Rendering26RenderPipelineManagerProxy9InitProxyEv
5726:__ZN9Scripting11UnityEngine9Rendering26RenderPipelineManagerProxy12CleanupProxyEv
5727:__ZN9Scripting11UnityEngine9Rendering29ReflectionProbeBlendInfoProxy9InitProxyEv
5728:__ZN9Scripting11UnityEngine9Rendering29ReflectionProbeBlendInfoProxy12CleanupProxyEv
5729:__ZN9Scripting11UnityEngine9Rendering23PlatformKeywordSetProxy9InitProxyEv
5730:__ZN9Scripting11UnityEngine9Rendering23PlatformKeywordSetProxy12CleanupProxyEv
5731:__ZN9Scripting11UnityEngine9Rendering22OnDemandRenderingProxy9InitProxyEv
5732:__ZN9Scripting11UnityEngine9Rendering22OnDemandRenderingProxy12CleanupProxyEv
5733:__ZN9Scripting11UnityEngine9Rendering18GraphicsFenceProxy9InitProxyEv
5734:__ZN9Scripting11UnityEngine9Rendering18GraphicsFenceProxy12CleanupProxyEv
5735:__ZN9Scripting11UnityEngine9Rendering23GraphicsDeviceTypeProxy9InitProxyEv
5736:__ZN9Scripting11UnityEngine9Rendering23GraphicsDeviceTypeProxy12CleanupProxyEv
5737:__ZN9Scripting11UnityEngine9Rendering21CoreCameraValuesProxy9InitProxyEv
5738:__ZN9Scripting11UnityEngine9Rendering21CoreCameraValuesProxy12CleanupProxyEv
5739:__ZN9Scripting11UnityEngine9Rendering18CommandBufferProxy9InitProxyEv
5740:__ZN9Scripting11UnityEngine9Rendering18CommandBufferProxy12CleanupProxyEv
5741:__ZN9Scripting11UnityEngine9Rendering21CameraPropertiesProxy9InitProxyEv
5742:__ZN9Scripting11UnityEngine9Rendering21CameraPropertiesProxy12CleanupProxyEv
5743:__ZN9Scripting11UnityEngine9Rendering23BatchRendererGroupProxy9InitProxyEv
5744:__ZN9Scripting11UnityEngine9Rendering23BatchRendererGroupProxy12CleanupProxyEv
5745:__ZN9Scripting11UnityEngine9Rendering31BatchRendererCullingOutputProxy9InitProxyEv
5746:__ZN9Scripting11UnityEngine9Rendering31BatchRendererCullingOutputProxy12CleanupProxyEv
5747:__ZN9Scripting11UnityEngine9Rendering24BatchCullingContextProxy9InitProxyEv
5748:__ZN9Scripting11UnityEngine9Rendering24BatchCullingContextProxy12CleanupProxyEv
5749:__ZN9Scripting11UnityEngine9Rendering32AsyncRequestNativeArrayDataProxy9InitProxyEv
5750:__ZN9Scripting11UnityEngine9Rendering32AsyncRequestNativeArrayDataProxy12CleanupProxyEv
5751:__ZN9Scripting11UnityEngine9Rendering28AsyncGPUReadbackRequestProxy9InitProxyEv
5752:__ZN9Scripting11UnityEngine9Rendering28AsyncGPUReadbackRequestProxy12CleanupProxyEv
5753:__ZN9Scripting11UnityEngine20ReflectionProbeProxy9InitProxyEv
5754:__ZN9Scripting11UnityEngine20ReflectionProbeProxy12CleanupProxyEv
5755:__ZN9Scripting11UnityEngine18RectTransformProxy9InitProxyEv
5756:__ZN9Scripting11UnityEngine18RectTransformProxy12CleanupProxyEv
5757:__ZN9Scripting11UnityEngine14TransformProxy9InitProxyEv
5758:__ZN9Scripting11UnityEngine14TransformProxy12CleanupProxyEv
5759:__ZN9Scripting11UnityEngine15RectOffsetProxy9InitProxyEv
5760:__ZN9Scripting11UnityEngine15RectOffsetProxy12CleanupProxyEv
5761:__ZN9Scripting11UnityEngine12RectIntProxy9InitProxyEv
5762:__ZN9Scripting11UnityEngine12RectIntProxy12CleanupProxyEv
5763:__ZN9Scripting11UnityEngine9RectProxy9InitProxyEv
5764:__ZN9Scripting11UnityEngine9RectProxy12CleanupProxyEv
5765:__ZN9Scripting11UnityEngine15QuaternionProxy9InitProxyEv
5766:__ZN9Scripting11UnityEngine15QuaternionProxy12CleanupProxyEv
5767:__ZN9Scripting11UnityEngine17PropertyNameProxy9InitProxyEv
5768:__ZN9Scripting11UnityEngine17PropertyNameProxy12CleanupProxyEv
5769:__ZN9Scripting11UnityEngine9Profiling13RecorderProxy9InitProxyEv
5770:__ZN9Scripting11UnityEngine9Profiling13RecorderProxy12CleanupProxyEv
5771:__ZN9Scripting11UnityEngine9Profiling13ProfilerProxy9InitProxyEv
5772:__ZN9Scripting11UnityEngine9Profiling13ProfilerProxy12CleanupProxyEv
5773:__ZN9Scripting11UnityEngine9Profiling6Memory12Experimental19MemoryProfilerProxy9InitProxyEv
5774:__ZN9Scripting11UnityEngine9Profiling6Memory12Experimental19MemoryProfilerProxy12CleanupProxyEv
5775:__ZN9Scripting11UnityEngine9Profiling18CustomSamplerProxy9InitProxyEv
5776:__ZN9Scripting11UnityEngine9Profiling18CustomSamplerProxy12CleanupProxyEv
5777:__ZN9Scripting11UnityEngine9Profiling12SamplerProxy9InitProxyEv
5778:__ZN9Scripting11UnityEngine9Profiling12SamplerProxy12CleanupProxyEv
5779:__ZN9Scripting11UnityEngine16PreloadDataProxy9InitProxyEv
5780:__ZN9Scripting11UnityEngine16PreloadDataProxy12CleanupProxyEv
5781:__ZN9Scripting11UnityEngine30PreferBinarySerializationProxy9InitProxyEv
5782:__ZN9Scripting11UnityEngine30PreferBinarySerializationProxy12CleanupProxyEv
5783:__ZN9Scripting11UnityEngine10PlayerLoop6Update26ScriptRunDelayedTasksProxy9InitProxyEv
5784:__ZN9Scripting11UnityEngine10PlayerLoop6Update26ScriptRunDelayedTasksProxy12CleanupProxyEv
5785:__ZN9Scripting11UnityEngine10PlayerLoop6Update37ScriptRunDelayedDynamicFrameRateProxy9InitProxyEv
5786:__ZN9Scripting11UnityEngine10PlayerLoop6Update37ScriptRunDelayedDynamicFrameRateProxy12CleanupProxyEv
5787:__ZN9Scripting11UnityEngine10PlayerLoop6Update29ScriptRunBehaviourUpdateProxy9InitProxyEv
5788:__ZN9Scripting11UnityEngine10PlayerLoop6Update29ScriptRunBehaviourUpdateProxy12CleanupProxyEv
5789:__ZN9Scripting11UnityEngine10PlayerLoop6Update19DirectorUpdateProxy9InitProxyEv
5790:__ZN9Scripting11UnityEngine10PlayerLoop6Update19DirectorUpdateProxy12CleanupProxyEv
5791:__ZN9Scripting11UnityEngine10PlayerLoop11UpdateProxy9InitProxyEv
5792:__ZN9Scripting11UnityEngine10PlayerLoop11UpdateProxy12CleanupProxyEv
5793:__ZN9Scripting11UnityEngine10PlayerLoop9PreUpdate15WindUpdateProxy9InitProxyEv
5794:__ZN9Scripting11UnityEngine10PlayerLoop9PreUpdate15WindUpdateProxy12CleanupProxyEv
5795:__ZN9Scripting11UnityEngine10PlayerLoop9PreUpdate16UpdateVideoProxy9InitProxyEv
5796:__ZN9Scripting11UnityEngine10PlayerLoop9PreUpdate16UpdateVideoProxy12CleanupProxyEv
5797:__ZN9Scripting11UnityEngine10PlayerLoop9PreUpdate20SendMouseEventsProxy9InitProxyEv
5798:__ZN9Scripting11UnityEngine10PlayerLoop9PreUpdate20SendMouseEventsProxy12CleanupProxyEv
5799:__ZN9Scripting11UnityEngine10PlayerLoop9PreUpdate18PhysicsUpdateProxy9InitProxyEv
5800:__ZN9Scripting11UnityEngine10PlayerLoop9PreUpdate18PhysicsUpdateProxy12CleanupProxyEv
5801:__ZN9Scripting11UnityEngine10PlayerLoop9PreUpdate20Physics2DUpdateProxy9InitProxyEv
5802:__ZN9Scripting11UnityEngine10PlayerLoop9PreUpdate20Physics2DUpdateProxy12CleanupProxyEv
5803:__ZN9Scripting11UnityEngine10PlayerLoop9PreUpdate19NewInputUpdateProxy9InitProxyEv
5804:__ZN9Scripting11UnityEngine10PlayerLoop9PreUpdate19NewInputUpdateProxy12CleanupProxyEv
5805:__ZN9Scripting11UnityEngine10PlayerLoop9PreUpdate26IMGUISendQueuedEventsProxy9InitProxyEv
5806:__ZN9Scripting11UnityEngine10PlayerLoop9PreUpdate26IMGUISendQueuedEventsProxy12CleanupProxyEv
5807:__ZN9Scripting11UnityEngine10PlayerLoop9PreUpdate23CheckTexFieldInputProxy9InitProxyEv
5808:__ZN9Scripting11UnityEngine10PlayerLoop9PreUpdate23CheckTexFieldInputProxy12CleanupProxyEv
5809:__ZN9Scripting11UnityEngine10PlayerLoop9PreUpdate13AIUpdateProxy9InitProxyEv
5810:__ZN9Scripting11UnityEngine10PlayerLoop9PreUpdate13AIUpdateProxy12CleanupProxyEv
5811:__ZN9Scripting11UnityEngine10PlayerLoop14PreUpdateProxy9InitProxyEv
5812:__ZN9Scripting11UnityEngine10PlayerLoop14PreUpdateProxy12CleanupProxyEv
5813:__ZN9Scripting11UnityEngine10PlayerLoop13PreLateUpdate25UpdateNetworkManagerProxy9InitProxyEv
5814:__ZN9Scripting11UnityEngine10PlayerLoop13PreLateUpdate25UpdateNetworkManagerProxy12CleanupProxyEv
5815:__ZN9Scripting11UnityEngine10PlayerLoop13PreLateUpdate32UpdateMasterServerInterfaceProxy9InitProxyEv
5816:__ZN9Scripting11UnityEngine10PlayerLoop13PreLateUpdate32UpdateMasterServerInterfaceProxy12CleanupProxyEv
5817:__ZN9Scripting11UnityEngine10PlayerLoop13PreLateUpdate15UNetUpdateProxy9InitProxyEv
5818:__ZN9Scripting11UnityEngine10PlayerLoop13PreLateUpdate15UNetUpdateProxy12CleanupProxyEv
5819:__ZN9Scripting11UnityEngine10PlayerLoop13PreLateUpdate27UIElementsUpdatePanelsProxy9InitProxyEv
5820:__ZN9Scripting11UnityEngine10PlayerLoop13PreLateUpdate27UIElementsUpdatePanelsProxy12CleanupProxyEv
5821:__ZN9Scripting11UnityEngine10PlayerLoop13PreLateUpdate33ScriptRunBehaviourLateUpdateProxy9InitProxyEv
5822:__ZN9Scripting11UnityEngine10PlayerLoop13PreLateUpdate33ScriptRunBehaviourLateUpdateProxy12CleanupProxyEv
5823:__ZN9Scripting11UnityEngine10PlayerLoop13PreLateUpdate33ParticleSystemBeginUpdateAllProxy9InitProxyEv
5824:__ZN9Scripting11UnityEngine10PlayerLoop13PreLateUpdate33ParticleSystemBeginUpdateAllProxy12CleanupProxyEv
5825:__ZN9Scripting11UnityEngine10PlayerLoop13PreLateUpdate26LegacyAnimationUpdateProxy9InitProxyEv
5826:__ZN9Scripting11UnityEngine10PlayerLoop13PreLateUpdate26LegacyAnimationUpdateProxy12CleanupProxyEv
5827:__ZN9Scripting11UnityEngine10PlayerLoop13PreLateUpdate37EndGraphicsJobsAfterScriptUpdateProxy9InitProxyEv
5828:__ZN9Scripting11UnityEngine10PlayerLoop13PreLateUpdate37EndGraphicsJobsAfterScriptUpdateProxy12CleanupProxyEv
5829:__ZN9Scripting11UnityEngine10PlayerLoop13PreLateUpdate31DirectorUpdateAnimationEndProxy9InitProxyEv
5830:__ZN9Scripting11UnityEngine10PlayerLoop13PreLateUpdate31DirectorUpdateAnimationEndProxy12CleanupProxyEv
5831:__ZN9Scripting11UnityEngine10PlayerLoop13PreLateUpdate33DirectorUpdateAnimationBeginProxy9InitProxyEv
5832:__ZN9Scripting11UnityEngine10PlayerLoop13PreLateUpdate33DirectorUpdateAnimationBeginProxy12CleanupProxyEv
5833:__ZN9Scripting11UnityEngine10PlayerLoop13PreLateUpdate29DirectorDeferredEvaluateProxy9InitProxyEv
5834:__ZN9Scripting11UnityEngine10PlayerLoop13PreLateUpdate29DirectorDeferredEvaluateProxy12CleanupProxyEv
5835:__ZN9Scripting11UnityEngine10PlayerLoop13PreLateUpdate28ConstraintManagerUpdateProxy9InitProxyEv
5836:__ZN9Scripting11UnityEngine10PlayerLoop13PreLateUpdate28ConstraintManagerUpdateProxy12CleanupProxyEv
5837:__ZN9Scripting11UnityEngine10PlayerLoop13PreLateUpdate23AIUpdatePostScriptProxy9InitProxyEv
5838:__ZN9Scripting11UnityEngine10PlayerLoop13PreLateUpdate23AIUpdatePostScriptProxy12CleanupProxyEv
5839:__ZN9Scripting11UnityEngine10PlayerLoop18PreLateUpdateProxy9InitProxyEv
5840:__ZN9Scripting11UnityEngine10PlayerLoop18PreLateUpdateProxy12CleanupProxyEv
5841:__ZN9Scripting11UnityEngine10PlayerLoop14PostLateUpdate18XRPostPresentProxy9InitProxyEv
5842:__ZN9Scripting11UnityEngine10PlayerLoop14PostLateUpdate18XRPostPresentProxy12CleanupProxyEv
5843:__ZN9Scripting11UnityEngine10PlayerLoop14PostLateUpdate14VFXUpdateProxy9InitProxyEv
5844:__ZN9Scripting11UnityEngine10PlayerLoop14PostLateUpdate14VFXUpdateProxy12CleanupProxyEv
5845:__ZN9Scripting11UnityEngine10PlayerLoop14PostLateUpdate24UpdateVideoTexturesProxy9InitProxyEv
5846:__ZN9Scripting11UnityEngine10PlayerLoop14PostLateUpdate24UpdateVideoTexturesProxy12CleanupProxyEv
5847:__ZN9Scripting11UnityEngine10PlayerLoop14PostLateUpdate16UpdateVideoProxy9InitProxyEv
5848:__ZN9Scripting11UnityEngine10PlayerLoop14PostLateUpdate16UpdateVideoProxy12CleanupProxyEv
5849:__ZN9Scripting11UnityEngine10PlayerLoop14PostLateUpdate20UpdateSubstanceProxy9InitProxyEv
5850:__ZN9Scripting11UnityEngine10PlayerLoop14PostLateUpdate20UpdateSubstanceProxy12CleanupProxyEv
5851:__ZN9Scripting11UnityEngine10PlayerLoop14PostLateUpdate21UpdateResolutionProxy9InitProxyEv
5852:__ZN9Scripting11UnityEngine10PlayerLoop14PostLateUpdate21UpdateResolutionProxy12CleanupProxyEv
5853:__ZN9Scripting11UnityEngine10PlayerLoop14PostLateUpdate24UpdateRectTransformProxy9InitProxyEv
5854:__ZN9Scripting11UnityEngine10PlayerLoop14PostLateUpdate24UpdateRectTransformProxy12CleanupProxyEv
5855:__ZN9Scripting11UnityEngine10PlayerLoop14PostLateUpdate33UpdateLightProbeProxyVolumesProxy9InitProxyEv
5856:__ZN9Scripting11UnityEngine10PlayerLoop14PostLateUpdate33UpdateLightProbeProxyVolumesProxy12CleanupProxyEv
5857:__ZN9Scripting11UnityEngine10PlayerLoop14PostLateUpdate31UpdateCustomRenderTexturesProxy9InitProxyEv
5858:__ZN9Scripting11UnityEngine10PlayerLoop14PostLateUpdate31UpdateCustomRenderTexturesProxy12CleanupProxyEv
5859:__ZN9Scripting11UnityEngine10PlayerLoop14PostLateUpdate28UpdateCaptureScreenshotProxy9InitProxyEv
5860:__ZN9Scripting11UnityEngine10PlayerLoop14PostLateUpdate28UpdateCaptureScreenshotProxy12CleanupProxyEv
5861:__ZN9Scripting11UnityEngine10PlayerLoop14PostLateUpdate30UpdateCanvasRectTransformProxy9InitProxyEv
5862:__ZN9Scripting11UnityEngine10PlayerLoop14PostLateUpdate30UpdateCanvasRectTransformProxy12CleanupProxyEv
5863:__ZN9Scripting11UnityEngine10PlayerLoop14PostLateUpdate16UpdateAudioProxy9InitProxyEv
5864:__ZN9Scripting11UnityEngine10PlayerLoop14PostLateUpdate16UpdateAudioProxy12CleanupProxyEv
5865:__ZN9Scripting11UnityEngine10PlayerLoop14PostLateUpdate27UpdateAllSkinnedMeshesProxy9InitProxyEv
5866:__ZN9Scripting11UnityEngine10PlayerLoop14PostLateUpdate27UpdateAllSkinnedMeshesProxy12CleanupProxyEv
5867:__ZN9Scripting11UnityEngine10PlayerLoop14PostLateUpdate23UpdateAllRenderersProxy9InitProxyEv
5868:__ZN9Scripting11UnityEngine10PlayerLoop14PostLateUpdate23UpdateAllRenderersProxy12CleanupProxyEv
5869:__ZN9Scripting11UnityEngine10PlayerLoop14PostLateUpdate31TriggerEndOfFrameCallbacksProxy9InitProxyEv
5870:__ZN9Scripting11UnityEngine10PlayerLoop14PostLateUpdate31TriggerEndOfFrameCallbacksProxy12CleanupProxyEv
5871:__ZN9Scripting11UnityEngine10PlayerLoop14PostLateUpdate25ThreadedLoadingDebugProxy9InitProxyEv
5872:__ZN9Scripting11UnityEngine10PlayerLoop14PostLateUpdate25ThreadedLoadingDebugProxy12CleanupProxyEv
5873:__ZN9Scripting11UnityEngine10PlayerLoop14PostLateUpdate24SortingGroupsUpdateProxy9InitProxyEv
5874:__ZN9Scripting11UnityEngine10PlayerLoop14PostLateUpdate24SortingGroupsUpdateProxy12CleanupProxyEv
5875:__ZN9Scripting11UnityEngine10PlayerLoop14PostLateUpdate23ShaderHandleErrorsProxy9InitProxyEv
5876:__ZN9Scripting11UnityEngine10PlayerLoop14PostLateUpdate23ShaderHandleErrorsProxy12CleanupProxyEv
5877:__ZN9Scripting11UnityEngine10PlayerLoop14PostLateUpdate37ScriptRunDelayedDynamicFrameRateProxy9InitProxyEv
5878:__ZN9Scripting11UnityEngine10PlayerLoop14PostLateUpdate37ScriptRunDelayedDynamicFrameRateProxy12CleanupProxyEv
5879:__ZN9Scripting11UnityEngine10PlayerLoop14PostLateUpdate19ResetInputAxisProxy9InitProxyEv
5880:__ZN9Scripting11UnityEngine10PlayerLoop14PostLateUpdate19ResetInputAxisProxy12CleanupProxyEv
5881:__ZN9Scripting11UnityEngine10PlayerLoop14PostLateUpdate29ProfilerSynchronizeStatsProxy9InitProxyEv
5882:__ZN9Scripting11UnityEngine10PlayerLoop14PostLateUpdate29ProfilerSynchronizeStatsProxy12CleanupProxyEv
5883:__ZN9Scripting11UnityEngine10PlayerLoop14PostLateUpdate21ProfilerEndFrameProxy9InitProxyEv
5884:__ZN9Scripting11UnityEngine10PlayerLoop14PostLateUpdate21ProfilerEndFrameProxy12CleanupProxyEv
5885:__ZN9Scripting11UnityEngine10PlayerLoop14PostLateUpdate27ProcessWebSendMessagesProxy9InitProxyEv
5886:__ZN9Scripting11UnityEngine10PlayerLoop14PostLateUpdate27ProcessWebSendMessagesProxy12CleanupProxyEv
5887:__ZN9Scripting11UnityEngine10PlayerLoop14PostLateUpdate21PresentAfterDrawProxy9InitProxyEv
5888:__ZN9Scripting11UnityEngine10PlayerLoop14PostLateUpdate21PresentAfterDrawProxy12CleanupProxyEv
5889:__ZN9Scripting11UnityEngine10PlayerLoop14PostLateUpdate25PlayerUpdateCanvasesProxy9InitProxyEv
5890:__ZN9Scripting11UnityEngine10PlayerLoop14PostLateUpdate25PlayerUpdateCanvasesProxy12CleanupProxyEv
5891:__ZN9Scripting11UnityEngine10PlayerLoop14PostLateUpdate27PlayerSendFrameStartedProxy9InitProxyEv
5892:__ZN9Scripting11UnityEngine10PlayerLoop14PostLateUpdate27PlayerSendFrameStartedProxy12CleanupProxyEv
5893:__ZN9Scripting11UnityEngine10PlayerLoop14PostLateUpdate31PlayerSendFramePostPresentProxy9InitProxyEv
5894:__ZN9Scripting11UnityEngine10PlayerLoop14PostLateUpdate31PlayerSendFramePostPresentProxy12CleanupProxyEv
5895:__ZN9Scripting11UnityEngine10PlayerLoop14PostLateUpdate28PlayerSendFrameCompleteProxy9InitProxyEv
5896:__ZN9Scripting11UnityEngine10PlayerLoop14PostLateUpdate28PlayerSendFrameCompleteProxy12CleanupProxyEv
5897:__ZN9Scripting11UnityEngine10PlayerLoop14PostLateUpdate29PlayerEmitCanvasGeometryProxy9InitProxyEv
5898:__ZN9Scripting11UnityEngine10PlayerLoop14PostLateUpdate29PlayerEmitCanvasGeometryProxy12CleanupProxyEv
5899:__ZN9Scripting11UnityEngine10PlayerLoop14PostLateUpdate36PhysicsSkinnedClothFinishUpdateProxy9InitProxyEv
5900:__ZN9Scripting11UnityEngine10PlayerLoop14PostLateUpdate36PhysicsSkinnedClothFinishUpdateProxy12CleanupProxyEv
5901:__ZN9Scripting11UnityEngine10PlayerLoop14PostLateUpdate35PhysicsSkinnedClothBeginUpdateProxy9InitProxyEv
5902:__ZN9Scripting11UnityEngine10PlayerLoop14PostLateUpdate35PhysicsSkinnedClothBeginUpdateProxy12CleanupProxyEv
5903:__ZN9Scripting11UnityEngine10PlayerLoop14PostLateUpdate31ParticleSystemEndUpdateAllProxy9InitProxyEv
5904:__ZN9Scripting11UnityEngine10PlayerLoop14PostLateUpdate31ParticleSystemEndUpdateAllProxy12CleanupProxyEv
5905:__ZN9Scripting11UnityEngine10PlayerLoop14PostLateUpdate27MemoryFrameMaintenanceProxy9InitProxyEv
5906:__ZN9Scripting11UnityEngine10PlayerLoop14PostLateUpdate27MemoryFrameMaintenanceProxy12CleanupProxyEv
5907:__ZN9Scripting11UnityEngine10PlayerLoop14PostLateUpdate18InputEndFrameProxy9InitProxyEv
5908:__ZN9Scripting11UnityEngine10PlayerLoop14PostLateUpdate18InputEndFrameProxy12CleanupProxyEv
5909:__ZN9Scripting11UnityEngine10PlayerLoop14PostLateUpdate19GUIClearEventsProxy9InitProxyEv
5910:__ZN9Scripting11UnityEngine10PlayerLoop14PostLateUpdate19GUIClearEventsProxy12CleanupProxyEv
5911:__ZN9Scripting11UnityEngine10PlayerLoop14PostLateUpdate25FinishFrameRenderingProxy9InitProxyEv
5912:__ZN9Scripting11UnityEngine10PlayerLoop14PostLateUpdate25FinishFrameRenderingProxy12CleanupProxyEv
5913:__ZN9Scripting11UnityEngine10PlayerLoop14PostLateUpdate31ExecuteGameCenterCallbacksProxy9InitProxyEv
5914:__ZN9Scripting11UnityEngine10PlayerLoop14PostLateUpdate31ExecuteGameCenterCallbacksProxy12CleanupProxyEv
5915:__ZN9Scripting11UnityEngine10PlayerLoop14PostLateUpdate27EnlightenRuntimeUpdateProxy9InitProxyEv
5916:__ZN9Scripting11UnityEngine10PlayerLoop14PostLateUpdate27EnlightenRuntimeUpdateProxy12CleanupProxyEv
5917:__ZN9Scripting11UnityEngine10PlayerLoop14PostLateUpdate41EndGraphicsJobsAfterScriptLateUpdateProxy9InitProxyEv
5918:__ZN9Scripting11UnityEngine10PlayerLoop14PostLateUpdate41EndGraphicsJobsAfterScriptLateUpdateProxy12CleanupProxyEv
5919:__ZN9Scripting11UnityEngine10PlayerLoop14PostLateUpdate24DirectorRenderImageProxy9InitProxyEv
5920:__ZN9Scripting11UnityEngine10PlayerLoop14PostLateUpdate24DirectorRenderImageProxy12CleanupProxyEv
5921:__ZN9Scripting11UnityEngine10PlayerLoop14PostLateUpdate23DirectorLateUpdateProxy9InitProxyEv
5922:__ZN9Scripting11UnityEngine10PlayerLoop14PostLateUpdate23DirectorLateUpdateProxy12CleanupProxyEv
5923:__ZN9Scripting11UnityEngine10PlayerLoop14PostLateUpdate28ClearImmediateRenderersProxy9InitProxyEv
5924:__ZN9Scripting11UnityEngine10PlayerLoop14PostLateUpdate28ClearImmediateRenderersProxy12CleanupProxyEv
5925:__ZN9Scripting11UnityEngine10PlayerLoop14PostLateUpdate20BatchModeUpdateProxy9InitProxyEv
5926:__ZN9Scripting11UnityEngine10PlayerLoop14PostLateUpdate20BatchModeUpdateProxy12CleanupProxyEv
5927:__ZN9Scripting11UnityEngine10PlayerLoop19PostLateUpdateProxy9InitProxyEv
5928:__ZN9Scripting11UnityEngine10PlayerLoop19PostLateUpdateProxy12CleanupProxyEv
5929:__ZN9Scripting11UnityEngine10PlayerLoop14Initialization18XREarlyUpdateProxy9InitProxyEv
5930:__ZN9Scripting11UnityEngine10PlayerLoop14Initialization18XREarlyUpdateProxy12CleanupProxyEv
5931:__ZN9Scripting11UnityEngine10PlayerLoop14Initialization21SynchronizeStateProxy9InitProxyEv
5932:__ZN9Scripting11UnityEngine10PlayerLoop14Initialization21SynchronizeStateProxy12CleanupProxyEv
5933:__ZN9Scripting11UnityEngine10PlayerLoop14Initialization22SynchronizeInputsProxy9InitProxyEv
5934:__ZN9Scripting11UnityEngine10PlayerLoop14Initialization22SynchronizeInputsProxy12CleanupProxyEv
5935:__ZN9Scripting11UnityEngine10PlayerLoop14Initialization21PlayerUpdateTimeProxy9InitProxyEv
5936:__ZN9Scripting11UnityEngine10PlayerLoop14Initialization21PlayerUpdateTimeProxy12CleanupProxyEv
5937:__ZN9Scripting11UnityEngine10PlayerLoop14Initialization23DirectorSampleTimeProxy9InitProxyEv
5938:__ZN9Scripting11UnityEngine10PlayerLoop14Initialization23DirectorSampleTimeProxy12CleanupProxyEv
5939:__ZN9Scripting11UnityEngine10PlayerLoop14Initialization32AsyncUploadTimeSlicedUpdateProxy9InitProxyEv
5940:__ZN9Scripting11UnityEngine10PlayerLoop14Initialization32AsyncUploadTimeSlicedUpdateProxy12CleanupProxyEv
5941:__ZN9Scripting11UnityEngine10PlayerLoop19InitializationProxy9InitProxyEv
5942:__ZN9Scripting11UnityEngine10PlayerLoop19InitializationProxy12CleanupProxyEv
5943:__ZN9Scripting11UnityEngine10PlayerLoop11FixedUpdate18XRFixedUpdateProxy9InitProxyEv
5944:__ZN9Scripting11UnityEngine10PlayerLoop11FixedUpdate18XRFixedUpdateProxy12CleanupProxyEv
5945:__ZN9Scripting11UnityEngine10PlayerLoop11FixedUpdate35ScriptRunDelayedFixedFrameRateProxy9InitProxyEv
5946:__ZN9Scripting11UnityEngine10PlayerLoop11FixedUpdate35ScriptRunDelayedFixedFrameRateProxy12CleanupProxyEv
5947:__ZN9Scripting11UnityEngine10PlayerLoop11FixedUpdate34ScriptRunBehaviourFixedUpdateProxy9InitProxyEv
5948:__ZN9Scripting11UnityEngine10PlayerLoop11FixedUpdate34ScriptRunBehaviourFixedUpdateProxy12CleanupProxyEv
5949:__ZN9Scripting11UnityEngine10PlayerLoop11FixedUpdate23PhysicsFixedUpdateProxy9InitProxyEv
5950:__ZN9Scripting11UnityEngine10PlayerLoop11FixedUpdate23PhysicsFixedUpdateProxy12CleanupProxyEv
5951:__ZN9Scripting11UnityEngine10PlayerLoop11FixedUpdate25Physics2DFixedUpdateProxy9InitProxyEv
5952:__ZN9Scripting11UnityEngine10PlayerLoop11FixedUpdate25Physics2DFixedUpdateProxy12CleanupProxyEv
5953:__ZN9Scripting11UnityEngine10PlayerLoop11FixedUpdate24NewInputFixedUpdateProxy9InitProxyEv
5954:__ZN9Scripting11UnityEngine10PlayerLoop11FixedUpdate24NewInputFixedUpdateProxy12CleanupProxyEv
5955:__ZN9Scripting11UnityEngine10PlayerLoop11FixedUpdate31LegacyFixedAnimationUpdateProxy9InitProxyEv
5956:__ZN9Scripting11UnityEngine10PlayerLoop11FixedUpdate31LegacyFixedAnimationUpdateProxy12CleanupProxyEv
5957:__ZN9Scripting11UnityEngine10PlayerLoop11FixedUpdate35DirectorFixedUpdatePostPhysicsProxy9InitProxyEv
5958:__ZN9Scripting11UnityEngine10PlayerLoop11FixedUpdate35DirectorFixedUpdatePostPhysicsProxy12CleanupProxyEv
5959:__ZN9Scripting11UnityEngine10PlayerLoop11FixedUpdate24DirectorFixedUpdateProxy9InitProxyEv
5960:__ZN9Scripting11UnityEngine10PlayerLoop11FixedUpdate24DirectorFixedUpdateProxy12CleanupProxyEv
5961:__ZN9Scripting11UnityEngine10PlayerLoop11FixedUpdate28DirectorFixedSampleTimeProxy9InitProxyEv
5962:__ZN9Scripting11UnityEngine10PlayerLoop11FixedUpdate28DirectorFixedSampleTimeProxy12CleanupProxyEv
5963:__ZN9Scripting11UnityEngine10PlayerLoop11FixedUpdate15ClearLinesProxy9InitProxyEv
5964:__ZN9Scripting11UnityEngine10PlayerLoop11FixedUpdate15ClearLinesProxy12CleanupProxyEv
5965:__ZN9Scripting11UnityEngine10PlayerLoop11FixedUpdate21AudioFixedUpdateProxy9InitProxyEv
5966:__ZN9Scripting11UnityEngine10PlayerLoop11FixedUpdate21AudioFixedUpdateProxy12CleanupProxyEv
5967:__ZN9Scripting11UnityEngine10PlayerLoop16FixedUpdateProxy9InitProxyEv
5968:__ZN9Scripting11UnityEngine10PlayerLoop16FixedUpdateProxy12CleanupProxyEv
5969:__ZN9Scripting11UnityEngine10PlayerLoop11EarlyUpdate13XRUpdateProxy9InitProxyEv
5970:__ZN9Scripting11UnityEngine10PlayerLoop11EarlyUpdate13XRUpdateProxy12CleanupProxyEv
5971:__ZN9Scripting11UnityEngine10PlayerLoop11EarlyUpdate34UpdateTextureStreamingManagerProxy9InitProxyEv
5972:__ZN9Scripting11UnityEngine10PlayerLoop11EarlyUpdate34UpdateTextureStreamingManagerProxy12CleanupProxyEv
5973:__ZN9Scripting11UnityEngine10PlayerLoop11EarlyUpdate27UpdateStreamingManagerProxy9InitProxyEv
5974:__ZN9Scripting11UnityEngine10PlayerLoop11EarlyUpdate27UpdateStreamingManagerProxy12CleanupProxyEv
5975:__ZN9Scripting11UnityEngine10PlayerLoop11EarlyUpdate21UpdatePreloadingProxy9InitProxyEv
5976:__ZN9Scripting11UnityEngine10PlayerLoop11EarlyUpdate21UpdatePreloadingProxy12CleanupProxyEv
5977:__ZN9Scripting11UnityEngine10PlayerLoop11EarlyUpdate27UpdateMainGameViewRectProxy9InitProxyEv
5978:__ZN9Scripting11UnityEngine10PlayerLoop11EarlyUpdate27UpdateMainGameViewRectProxy12CleanupProxyEv
5979:__ZN9Scripting11UnityEngine10PlayerLoop11EarlyUpdate17UpdateKinectProxy9InitProxyEv
5980:__ZN9Scripting11UnityEngine10PlayerLoop11EarlyUpdate17UpdateKinectProxy12CleanupProxyEv
5981:__ZN9Scripting11UnityEngine10PlayerLoop11EarlyUpdate23UpdateInputManagerProxy9InitProxyEv
5982:__ZN9Scripting11UnityEngine10PlayerLoop11EarlyUpdate23UpdateInputManagerProxy12CleanupProxyEv
5983:__ZN9Scripting11UnityEngine10PlayerLoop11EarlyUpdate30UpdateCanvasRectTransformProxy9InitProxyEv
5984:__ZN9Scripting11UnityEngine10PlayerLoop11EarlyUpdate30UpdateCanvasRectTransformProxy12CleanupProxyEv
5985:__ZN9Scripting11UnityEngine10PlayerLoop11EarlyUpdate31UpdateAsyncReadbackManagerProxy9InitProxyEv
5986:__ZN9Scripting11UnityEngine10PlayerLoop11EarlyUpdate31UpdateAsyncReadbackManagerProxy12CleanupProxyEv
5987:__ZN9Scripting11UnityEngine10PlayerLoop11EarlyUpdate26UnityWebRequestUpdateProxy9InitProxyEv
5988:__ZN9Scripting11UnityEngine10PlayerLoop11EarlyUpdate26UnityWebRequestUpdateProxy12CleanupProxyEv
5989:__ZN9Scripting11UnityEngine10PlayerLoop11EarlyUpdate16TangoUpdateProxy9InitProxyEv
5990:__ZN9Scripting11UnityEngine10PlayerLoop11EarlyUpdate16TangoUpdateProxy12CleanupProxyEv
5991:__ZN9Scripting11UnityEngine10PlayerLoop11EarlyUpdate29SpriteAtlasManagerUpdateProxy9InitProxyEv
5992:__ZN9Scripting11UnityEngine10PlayerLoop11EarlyUpdate29SpriteAtlasManagerUpdateProxy12CleanupProxyEv
5993:__ZN9Scripting11UnityEngine10PlayerLoop11EarlyUpdate33ScriptRunDelayedStartupFrameProxy9InitProxyEv
5994:__ZN9Scripting11UnityEngine10PlayerLoop11EarlyUpdate33ScriptRunDelayedStartupFrameProxy12CleanupProxyEv
5995:__ZN9Scripting11UnityEngine10PlayerLoop11EarlyUpdate32ResetFrameStatsAfterPresentProxy9InitProxyEv
5996:__ZN9Scripting11UnityEngine10PlayerLoop11EarlyUpdate32ResetFrameStatsAfterPresentProxy12CleanupProxyEv
5997:__ZN9Scripting11UnityEngine10PlayerLoop11EarlyUpdate28RendererNotifyInvisibleProxy9InitProxyEv
5998:__ZN9Scripting11UnityEngine10PlayerLoop11EarlyUpdate28RendererNotifyInvisibleProxy12CleanupProxyEv
5999:__ZN9Scripting11UnityEngine10PlayerLoop11EarlyUpdate23ProfilerStartFrameProxy9InitProxyEv
6000:__ZN9Scripting11UnityEngine10PlayerLoop11EarlyUpdate23ProfilerStartFrameProxy12CleanupProxyEv
6001:__ZN9Scripting11UnityEngine10PlayerLoop11EarlyUpdate23ProcessRemoteInputProxy9InitProxyEv
6002:__ZN9Scripting11UnityEngine10PlayerLoop11EarlyUpdate23ProcessRemoteInputProxy12CleanupProxyEv
6003:__ZN9Scripting11UnityEngine10PlayerLoop11EarlyUpdate25ProcessMouseInWindowProxy9InitProxyEv
6004:__ZN9Scripting11UnityEngine10PlayerLoop11EarlyUpdate25ProcessMouseInWindowProxy12CleanupProxyEv
6005:__ZN9Scripting11UnityEngine10PlayerLoop11EarlyUpdate24PresentBeforeUpdateProxy9InitProxyEv
6006:__ZN9Scripting11UnityEngine10PlayerLoop11EarlyUpdate24PresentBeforeUpdateProxy12CleanupProxyEv
6007:__ZN9Scripting11UnityEngine10PlayerLoop11EarlyUpdate25PollPlayerConnectionProxy9InitProxyEv
6008:__ZN9Scripting11UnityEngine10PlayerLoop11EarlyUpdate25PollPlayerConnectionProxy12CleanupProxyEv
6009:__ZN9Scripting11UnityEngine10PlayerLoop11EarlyUpdate29PollHtcsPlayerConnectionProxy9InitProxyEv
6010:__ZN9Scripting11UnityEngine10PlayerLoop11EarlyUpdate29PollHtcsPlayerConnectionProxy12CleanupProxyEv
6011:__ZN9Scripting11UnityEngine10PlayerLoop11EarlyUpdate28PlayerCleanupCachedDataProxy9InitProxyEv
6012:__ZN9Scripting11UnityEngine10PlayerLoop11EarlyUpdate28PlayerCleanupCachedDataProxy12CleanupProxyEv
6013:__ZN9Scripting11UnityEngine10PlayerLoop11EarlyUpdate46PhysicsResetInterpolatedTransformPositionProxy9InitProxyEv
6014:__ZN9Scripting11UnityEngine10PlayerLoop11EarlyUpdate46PhysicsResetInterpolatedTransformPositionProxy12CleanupProxyEv
6015:__ZN9Scripting11UnityEngine10PlayerLoop11EarlyUpdate31PerformanceAnalyticsUpdateProxy9InitProxyEv
6016:__ZN9Scripting11UnityEngine10PlayerLoop11EarlyUpdate31PerformanceAnalyticsUpdateProxy12CleanupProxyEv
6017:__ZN9Scripting11UnityEngine10PlayerLoop11EarlyUpdate17GpuTimestampProxy9InitProxyEv
6018:__ZN9Scripting11UnityEngine10PlayerLoop11EarlyUpdate17GpuTimestampProxy12CleanupProxyEv
6019:__ZN9Scripting11UnityEngine10PlayerLoop11EarlyUpdate26ExecuteMainThreadJobsProxy9InitProxyEv
6020:__ZN9Scripting11UnityEngine10PlayerLoop11EarlyUpdate26ExecuteMainThreadJobsProxy12CleanupProxyEv
6021:__ZN9Scripting11UnityEngine10PlayerLoop11EarlyUpdate29DispatchEventQueueEventsProxy9InitProxyEv
6022:__ZN9Scripting11UnityEngine10PlayerLoop11EarlyUpdate29DispatchEventQueueEventsProxy12CleanupProxyEv
6023:__ZN9Scripting11UnityEngine10PlayerLoop11EarlyUpdate29DeliverIosPlatformEventsProxy9InitProxyEv
6024:__ZN9Scripting11UnityEngine10PlayerLoop11EarlyUpdate29DeliverIosPlatformEventsProxy12CleanupProxyEv
6025:__ZN9Scripting11UnityEngine10PlayerLoop11EarlyUpdate15ClearLinesProxy9InitProxyEv
6026:__ZN9Scripting11UnityEngine10PlayerLoop11EarlyUpdate15ClearLinesProxy12CleanupProxyEv
6027:__ZN9Scripting11UnityEngine10PlayerLoop11EarlyUpdate31ClearIntermediateRenderersProxy9InitProxyEv
6028:__ZN9Scripting11UnityEngine10PlayerLoop11EarlyUpdate31ClearIntermediateRenderersProxy12CleanupProxyEv
6029:__ZN9Scripting11UnityEngine10PlayerLoop11EarlyUpdate17ARCoreUpdateProxy9InitProxyEv
6030:__ZN9Scripting11UnityEngine10PlayerLoop11EarlyUpdate17ARCoreUpdateProxy12CleanupProxyEv
6031:__ZN9Scripting11UnityEngine10PlayerLoop11EarlyUpdate29AnalyticsCoreStatsUpdateProxy9InitProxyEv
6032:__ZN9Scripting11UnityEngine10PlayerLoop11EarlyUpdate29AnalyticsCoreStatsUpdateProxy12CleanupProxyEv
6033:__ZN9Scripting11UnityEngine10PlayerLoop16EarlyUpdateProxy9InitProxyEv
6034:__ZN9Scripting11UnityEngine10PlayerLoop16EarlyUpdateProxy12CleanupProxyEv
6035:__ZN9Scripting11UnityEngine9Playables25ScriptPlayableOutputProxy9InitProxyEv
6036:__ZN9Scripting11UnityEngine9Playables25ScriptPlayableOutputProxy12CleanupProxyEv
6037:__ZN9Scripting11UnityEngine9Playables25PlayableOutputHandleProxy9InitProxyEv
6038:__ZN9Scripting11UnityEngine9Playables25PlayableOutputHandleProxy12CleanupProxyEv
6039:__ZN9Scripting11UnityEngine9Playables19PlayableOutputProxy9InitProxyEv
6040:__ZN9Scripting11UnityEngine9Playables19PlayableOutputProxy12CleanupProxyEv
6041:__ZN9Scripting11UnityEngine9Playables19PlayableHandleProxy9InitProxyEv
6042:__ZN9Scripting11UnityEngine9Playables19PlayableHandleProxy12CleanupProxyEv
6043:__ZN9Scripting11UnityEngine9Playables18PlayableGraphProxy9InitProxyEv
6044:__ZN9Scripting11UnityEngine9Playables18PlayableGraphProxy12CleanupProxyEv
6045:__ZN9Scripting11UnityEngine9Playables22PlayableBehaviourProxy9InitProxyEv
6046:__ZN9Scripting11UnityEngine9Playables22PlayableBehaviourProxy12CleanupProxyEv
6047:__ZN9Scripting11UnityEngine9Playables18PlayableAssetProxy9InitProxyEv
